
xmas_crossing_freertos.elf:     file format elf32-littlearm

Sections:
Idx Name          Size      VMA       LMA       File off  Algn
  0 .isr_vector   00000188  08000000  08000000  00010000  2**0
                  CONTENTS, ALLOC, LOAD, READONLY, DATA
  1 .text         0000714c  08000190  08000190  00010190  2**4
                  CONTENTS, ALLOC, LOAD, READONLY, CODE
  2 .rodata       0000015c  080072dc  080072dc  000172dc  2**2
                  CONTENTS, ALLOC, LOAD, READONLY, DATA
  3 .ARM.extab    00000000  08007438  08007438  00020014  2**0
                  CONTENTS
  4 .ARM          00000008  08007438  08007438  00017438  2**2
                  CONTENTS, ALLOC, LOAD, READONLY, DATA
  5 .preinit_array 00000000  08007440  08007440  00020014  2**0
                  CONTENTS, ALLOC, LOAD, DATA
  6 .init_array   00000004  08007440  08007440  00017440  2**2
                  CONTENTS, ALLOC, LOAD, DATA
  7 .fini_array   00000004  08007444  08007444  00017444  2**2
                  CONTENTS, ALLOC, LOAD, DATA
  8 .data         00000014  20000000  08007448  00020000  2**2
                  CONTENTS, ALLOC, LOAD, DATA
  9 .bss          0001a904  20000014  0800745c  00020014  2**2
                  ALLOC
 10 ._user_heap_stack 00000600  2001a918  0800745c  0002a918  2**0
                  ALLOC
 11 .ARM.attributes 00000030  00000000  00000000  00020014  2**0
                  CONTENTS, READONLY
 12 .debug_info   00018b7d  00000000  00000000  00020044  2**0
                  CONTENTS, READONLY, DEBUGGING
 13 .debug_abbrev 000032f1  00000000  00000000  00038bc1  2**0
                  CONTENTS, READONLY, DEBUGGING
 14 .debug_aranges 00001358  00000000  00000000  0003beb8  2**3
                  CONTENTS, READONLY, DEBUGGING
 15 .debug_ranges 000011a0  00000000  00000000  0003d210  2**3
                  CONTENTS, READONLY, DEBUGGING
 16 .debug_macro  000243cd  00000000  00000000  0003e3b0  2**0
                  CONTENTS, READONLY, DEBUGGING
 17 .debug_line   00014429  00000000  00000000  0006277d  2**0
                  CONTENTS, READONLY, DEBUGGING
 18 .debug_str    000d64ef  00000000  00000000  00076ba6  2**0
                  CONTENTS, READONLY, DEBUGGING
 19 .comment      0000007b  00000000  00000000  0014d095  2**0
                  CONTENTS, READONLY
 20 .debug_frame  00004f84  00000000  00000000  0014d110  2**2
                  CONTENTS, READONLY, DEBUGGING

Disassembly of section .text:

08000190 <__do_global_dtors_aux>:
 8000190:	b510      	push	{r4, lr}
 8000192:	4c05      	ldr	r4, [pc, #20]	; (80001a8 <__do_global_dtors_aux+0x18>)
 8000194:	7823      	ldrb	r3, [r4, #0]
 8000196:	b933      	cbnz	r3, 80001a6 <__do_global_dtors_aux+0x16>
 8000198:	4b04      	ldr	r3, [pc, #16]	; (80001ac <__do_global_dtors_aux+0x1c>)
 800019a:	b113      	cbz	r3, 80001a2 <__do_global_dtors_aux+0x12>
 800019c:	4804      	ldr	r0, [pc, #16]	; (80001b0 <__do_global_dtors_aux+0x20>)
 800019e:	f3af 8000 	nop.w
 80001a2:	2301      	movs	r3, #1
 80001a4:	7023      	strb	r3, [r4, #0]
 80001a6:	bd10      	pop	{r4, pc}
 80001a8:	20000014 	.word	0x20000014
 80001ac:	00000000 	.word	0x00000000
 80001b0:	080072c4 	.word	0x080072c4

080001b4 <frame_dummy>:
 80001b4:	b508      	push	{r3, lr}
 80001b6:	4b03      	ldr	r3, [pc, #12]	; (80001c4 <frame_dummy+0x10>)
 80001b8:	b11b      	cbz	r3, 80001c2 <frame_dummy+0xe>
 80001ba:	4903      	ldr	r1, [pc, #12]	; (80001c8 <frame_dummy+0x14>)
 80001bc:	4803      	ldr	r0, [pc, #12]	; (80001cc <frame_dummy+0x18>)
 80001be:	f3af 8000 	nop.w
 80001c2:	bd08      	pop	{r3, pc}
 80001c4:	00000000 	.word	0x00000000
 80001c8:	20000018 	.word	0x20000018
 80001cc:	080072c4 	.word	0x080072c4

080001d0 <SEGGER_RTT_ASM_WriteSkipNoLock>:
 80001d0:	b4f0      	push	{r4, r5, r6, r7}
 80001d2:	eb00 0340 	add.w	r3, r0, r0, lsl #1
 80001d6:	f8df 0088 	ldr.w	r0, [pc, #136]	; 8000260 <_Case3+0x6>
 80001da:	eb00 00c3 	add.w	r0, r0, r3, lsl #3
 80001de:	f100 0618 	add.w	r6, r0, #24
 80001e2:	6930      	ldr	r0, [r6, #16]
 80001e4:	68f7      	ldr	r7, [r6, #12]
 80001e6:	6875      	ldr	r5, [r6, #4]
 80001e8:	4287      	cmp	r7, r0
 80001ea:	d332      	bcc.n	8000252 <_CheckCase4>
 80001ec:	68b3      	ldr	r3, [r6, #8]
 80001ee:	1bdc      	subs	r4, r3, r7
 80001f0:	1e63      	subs	r3, r4, #1
 80001f2:	4293      	cmp	r3, r2
 80001f4:	d314      	bcc.n	8000220 <_CheckCase2>

080001f6 <_Case4>:
 80001f6:	197d      	adds	r5, r7, r5
 80001f8:	19d0      	adds	r0, r2, r7
 80001fa:	bf00      	nop

080001fc <_LoopCopyStraight>:
 80001fc:	f811 3b01 	ldrb.w	r3, [r1], #1
 8000200:	f805 3b01 	strb.w	r3, [r5], #1
 8000204:	3a01      	subs	r2, #1
 8000206:	d005      	beq.n	8000214 <_CSDone>
 8000208:	f811 3b01 	ldrb.w	r3, [r1], #1
 800020c:	f805 3b01 	strb.w	r3, [r5], #1
 8000210:	3a01      	subs	r2, #1
 8000212:	d1f3      	bne.n	80001fc <_LoopCopyStraight>

08000214 <_CSDone>:
 8000214:	f3bf 8f5f 	dmb	sy
 8000218:	60f0      	str	r0, [r6, #12]
 800021a:	2001      	movs	r0, #1
 800021c:	bcf0      	pop	{r4, r5, r6, r7}
 800021e:	4770      	bx	lr

08000220 <_CheckCase2>:
 8000220:	18c0      	adds	r0, r0, r3
 8000222:	4290      	cmp	r0, r2
 8000224:	d319      	bcc.n	800025a <_Case3>
 8000226:	1978      	adds	r0, r7, r5
 8000228:	1b12      	subs	r2, r2, r4

0800022a <_LoopCopyBeforeWrapAround>:
 800022a:	f811 3b01 	ldrb.w	r3, [r1], #1
 800022e:	f800 3b01 	strb.w	r3, [r0], #1
 8000232:	3c01      	subs	r4, #1
 8000234:	d1f9      	bne.n	800022a <_LoopCopyBeforeWrapAround>
 8000236:	1c14      	adds	r4, r2, #0
 8000238:	d005      	beq.n	8000246 <_No2ChunkNeeded>

0800023a <_LoopCopyAfterWrapAround>:
 800023a:	f811 3b01 	ldrb.w	r3, [r1], #1
 800023e:	f805 3b01 	strb.w	r3, [r5], #1
 8000242:	3a01      	subs	r2, #1
 8000244:	d1f9      	bne.n	800023a <_LoopCopyAfterWrapAround>

08000246 <_No2ChunkNeeded>:
 8000246:	f3bf 8f5f 	dmb	sy
 800024a:	60f4      	str	r4, [r6, #12]
 800024c:	2001      	movs	r0, #1
 800024e:	bcf0      	pop	{r4, r5, r6, r7}
 8000250:	4770      	bx	lr

08000252 <_CheckCase4>:
 8000252:	1bc0      	subs	r0, r0, r7
 8000254:	3801      	subs	r0, #1
 8000256:	4290      	cmp	r0, r2
 8000258:	d2cd      	bcs.n	80001f6 <_Case4>

0800025a <_Case3>:
 800025a:	2000      	movs	r0, #0
 800025c:	bcf0      	pop	{r4, r5, r6, r7}
 800025e:	4770      	bx	lr
 8000260:	2001a870 	.word	0x2001a870

08000264 <__aeabi_uldivmod>:
 8000264:	b953      	cbnz	r3, 800027c <__aeabi_uldivmod+0x18>
 8000266:	b94a      	cbnz	r2, 800027c <__aeabi_uldivmod+0x18>
 8000268:	2900      	cmp	r1, #0
 800026a:	bf08      	it	eq
 800026c:	2800      	cmpeq	r0, #0
 800026e:	bf1c      	itt	ne
 8000270:	f04f 31ff 	movne.w	r1, #4294967295
 8000274:	f04f 30ff 	movne.w	r0, #4294967295
 8000278:	f000 b972 	b.w	8000560 <__aeabi_idiv0>
 800027c:	f1ad 0c08 	sub.w	ip, sp, #8
 8000280:	e96d ce04 	strd	ip, lr, [sp, #-16]!
 8000284:	f000 f806 	bl	8000294 <__udivmoddi4>
 8000288:	f8dd e004 	ldr.w	lr, [sp, #4]
 800028c:	e9dd 2302 	ldrd	r2, r3, [sp, #8]
 8000290:	b004      	add	sp, #16
 8000292:	4770      	bx	lr

08000294 <__udivmoddi4>:
 8000294:	e92d 47f0 	stmdb	sp!, {r4, r5, r6, r7, r8, r9, sl, lr}
 8000298:	9e08      	ldr	r6, [sp, #32]
 800029a:	4604      	mov	r4, r0
 800029c:	4688      	mov	r8, r1
 800029e:	2b00      	cmp	r3, #0
 80002a0:	d14b      	bne.n	800033a <__udivmoddi4+0xa6>
 80002a2:	428a      	cmp	r2, r1
 80002a4:	4615      	mov	r5, r2
 80002a6:	d967      	bls.n	8000378 <__udivmoddi4+0xe4>
 80002a8:	fab2 f282 	clz	r2, r2
 80002ac:	b14a      	cbz	r2, 80002c2 <__udivmoddi4+0x2e>
 80002ae:	f1c2 0720 	rsb	r7, r2, #32
 80002b2:	fa01 f302 	lsl.w	r3, r1, r2
 80002b6:	fa20 f707 	lsr.w	r7, r0, r7
 80002ba:	4095      	lsls	r5, r2
 80002bc:	ea47 0803 	orr.w	r8, r7, r3
 80002c0:	4094      	lsls	r4, r2
 80002c2:	ea4f 4e15 	mov.w	lr, r5, lsr #16
 80002c6:	0c23      	lsrs	r3, r4, #16
 80002c8:	fbb8 f7fe 	udiv	r7, r8, lr
 80002cc:	fa1f fc85 	uxth.w	ip, r5
 80002d0:	fb0e 8817 	mls	r8, lr, r7, r8
 80002d4:	ea43 4308 	orr.w	r3, r3, r8, lsl #16
 80002d8:	fb07 f10c 	mul.w	r1, r7, ip
 80002dc:	4299      	cmp	r1, r3
 80002de:	d909      	bls.n	80002f4 <__udivmoddi4+0x60>
 80002e0:	18eb      	adds	r3, r5, r3
 80002e2:	f107 30ff 	add.w	r0, r7, #4294967295
 80002e6:	f080 811b 	bcs.w	8000520 <__udivmoddi4+0x28c>
 80002ea:	4299      	cmp	r1, r3
 80002ec:	f240 8118 	bls.w	8000520 <__udivmoddi4+0x28c>
 80002f0:	3f02      	subs	r7, #2
 80002f2:	442b      	add	r3, r5
 80002f4:	1a5b      	subs	r3, r3, r1
 80002f6:	b2a4      	uxth	r4, r4
 80002f8:	fbb3 f0fe 	udiv	r0, r3, lr
 80002fc:	fb0e 3310 	mls	r3, lr, r0, r3
 8000300:	ea44 4403 	orr.w	r4, r4, r3, lsl #16
 8000304:	fb00 fc0c 	mul.w	ip, r0, ip
 8000308:	45a4      	cmp	ip, r4
 800030a:	d909      	bls.n	8000320 <__udivmoddi4+0x8c>
 800030c:	192c      	adds	r4, r5, r4
 800030e:	f100 33ff 	add.w	r3, r0, #4294967295
 8000312:	f080 8107 	bcs.w	8000524 <__udivmoddi4+0x290>
 8000316:	45a4      	cmp	ip, r4
 8000318:	f240 8104 	bls.w	8000524 <__udivmoddi4+0x290>
 800031c:	3802      	subs	r0, #2
 800031e:	442c      	add	r4, r5
 8000320:	ea40 4007 	orr.w	r0, r0, r7, lsl #16
 8000324:	eba4 040c 	sub.w	r4, r4, ip
 8000328:	2700      	movs	r7, #0
 800032a:	b11e      	cbz	r6, 8000334 <__udivmoddi4+0xa0>
 800032c:	40d4      	lsrs	r4, r2
 800032e:	2300      	movs	r3, #0
 8000330:	e9c6 4300 	strd	r4, r3, [r6]
 8000334:	4639      	mov	r1, r7
 8000336:	e8bd 87f0 	ldmia.w	sp!, {r4, r5, r6, r7, r8, r9, sl, pc}
 800033a:	428b      	cmp	r3, r1
 800033c:	d909      	bls.n	8000352 <__udivmoddi4+0xbe>
 800033e:	2e00      	cmp	r6, #0
 8000340:	f000 80eb 	beq.w	800051a <__udivmoddi4+0x286>
 8000344:	2700      	movs	r7, #0
 8000346:	e9c6 0100 	strd	r0, r1, [r6]
 800034a:	4638      	mov	r0, r7
 800034c:	4639      	mov	r1, r7
 800034e:	e8bd 87f0 	ldmia.w	sp!, {r4, r5, r6, r7, r8, r9, sl, pc}
 8000352:	fab3 f783 	clz	r7, r3
 8000356:	2f00      	cmp	r7, #0
 8000358:	d147      	bne.n	80003ea <__udivmoddi4+0x156>
 800035a:	428b      	cmp	r3, r1
 800035c:	d302      	bcc.n	8000364 <__udivmoddi4+0xd0>
 800035e:	4282      	cmp	r2, r0
 8000360:	f200 80fa 	bhi.w	8000558 <__udivmoddi4+0x2c4>
 8000364:	1a84      	subs	r4, r0, r2
 8000366:	eb61 0303 	sbc.w	r3, r1, r3
 800036a:	2001      	movs	r0, #1
 800036c:	4698      	mov	r8, r3
 800036e:	2e00      	cmp	r6, #0
 8000370:	d0e0      	beq.n	8000334 <__udivmoddi4+0xa0>
 8000372:	e9c6 4800 	strd	r4, r8, [r6]
 8000376:	e7dd      	b.n	8000334 <__udivmoddi4+0xa0>
 8000378:	b902      	cbnz	r2, 800037c <__udivmoddi4+0xe8>
 800037a:	deff      	udf	#255	; 0xff
 800037c:	fab2 f282 	clz	r2, r2
 8000380:	2a00      	cmp	r2, #0
 8000382:	f040 808f 	bne.w	80004a4 <__udivmoddi4+0x210>
 8000386:	1b49      	subs	r1, r1, r5
 8000388:	ea4f 4e15 	mov.w	lr, r5, lsr #16
 800038c:	fa1f f885 	uxth.w	r8, r5
 8000390:	2701      	movs	r7, #1
 8000392:	fbb1 fcfe 	udiv	ip, r1, lr
 8000396:	0c23      	lsrs	r3, r4, #16
 8000398:	fb0e 111c 	mls	r1, lr, ip, r1
 800039c:	ea43 4301 	orr.w	r3, r3, r1, lsl #16
 80003a0:	fb08 f10c 	mul.w	r1, r8, ip
 80003a4:	4299      	cmp	r1, r3
 80003a6:	d907      	bls.n	80003b8 <__udivmoddi4+0x124>
 80003a8:	18eb      	adds	r3, r5, r3
 80003aa:	f10c 30ff 	add.w	r0, ip, #4294967295
 80003ae:	d202      	bcs.n	80003b6 <__udivmoddi4+0x122>
 80003b0:	4299      	cmp	r1, r3
 80003b2:	f200 80cd 	bhi.w	8000550 <__udivmoddi4+0x2bc>
 80003b6:	4684      	mov	ip, r0
 80003b8:	1a59      	subs	r1, r3, r1
 80003ba:	b2a3      	uxth	r3, r4
 80003bc:	fbb1 f0fe 	udiv	r0, r1, lr
 80003c0:	fb0e 1410 	mls	r4, lr, r0, r1
 80003c4:	ea43 4404 	orr.w	r4, r3, r4, lsl #16
 80003c8:	fb08 f800 	mul.w	r8, r8, r0
 80003cc:	45a0      	cmp	r8, r4
 80003ce:	d907      	bls.n	80003e0 <__udivmoddi4+0x14c>
 80003d0:	192c      	adds	r4, r5, r4
 80003d2:	f100 33ff 	add.w	r3, r0, #4294967295
 80003d6:	d202      	bcs.n	80003de <__udivmoddi4+0x14a>
 80003d8:	45a0      	cmp	r8, r4
 80003da:	f200 80b6 	bhi.w	800054a <__udivmoddi4+0x2b6>
 80003de:	4618      	mov	r0, r3
 80003e0:	eba4 0408 	sub.w	r4, r4, r8
 80003e4:	ea40 400c 	orr.w	r0, r0, ip, lsl #16
 80003e8:	e79f      	b.n	800032a <__udivmoddi4+0x96>
 80003ea:	f1c7 0c20 	rsb	ip, r7, #32
 80003ee:	40bb      	lsls	r3, r7
 80003f0:	fa22 fe0c 	lsr.w	lr, r2, ip
 80003f4:	ea4e 0e03 	orr.w	lr, lr, r3
 80003f8:	fa01 f407 	lsl.w	r4, r1, r7
 80003fc:	fa20 f50c 	lsr.w	r5, r0, ip
 8000400:	fa21 f30c 	lsr.w	r3, r1, ip
 8000404:	ea4f 481e 	mov.w	r8, lr, lsr #16
 8000408:	4325      	orrs	r5, r4
 800040a:	fbb3 f9f8 	udiv	r9, r3, r8
 800040e:	0c2c      	lsrs	r4, r5, #16
 8000410:	fb08 3319 	mls	r3, r8, r9, r3
 8000414:	fa1f fa8e 	uxth.w	sl, lr
 8000418:	ea44 4303 	orr.w	r3, r4, r3, lsl #16
 800041c:	fb09 f40a 	mul.w	r4, r9, sl
 8000420:	429c      	cmp	r4, r3
 8000422:	fa02 f207 	lsl.w	r2, r2, r7
 8000426:	fa00 f107 	lsl.w	r1, r0, r7
 800042a:	d90b      	bls.n	8000444 <__udivmoddi4+0x1b0>
 800042c:	eb1e 0303 	adds.w	r3, lr, r3
 8000430:	f109 30ff 	add.w	r0, r9, #4294967295
 8000434:	f080 8087 	bcs.w	8000546 <__udivmoddi4+0x2b2>
 8000438:	429c      	cmp	r4, r3
 800043a:	f240 8084 	bls.w	8000546 <__udivmoddi4+0x2b2>
 800043e:	f1a9 0902 	sub.w	r9, r9, #2
 8000442:	4473      	add	r3, lr
 8000444:	1b1b      	subs	r3, r3, r4
 8000446:	b2ad      	uxth	r5, r5
 8000448:	fbb3 f0f8 	udiv	r0, r3, r8
 800044c:	fb08 3310 	mls	r3, r8, r0, r3
 8000450:	ea45 4403 	orr.w	r4, r5, r3, lsl #16
 8000454:	fb00 fa0a 	mul.w	sl, r0, sl
 8000458:	45a2      	cmp	sl, r4
 800045a:	d908      	bls.n	800046e <__udivmoddi4+0x1da>
 800045c:	eb1e 0404 	adds.w	r4, lr, r4
 8000460:	f100 33ff 	add.w	r3, r0, #4294967295
 8000464:	d26b      	bcs.n	800053e <__udivmoddi4+0x2aa>
 8000466:	45a2      	cmp	sl, r4
 8000468:	d969      	bls.n	800053e <__udivmoddi4+0x2aa>
 800046a:	3802      	subs	r0, #2
 800046c:	4474      	add	r4, lr
 800046e:	ea40 4009 	orr.w	r0, r0, r9, lsl #16
 8000472:	fba0 8902 	umull	r8, r9, r0, r2
 8000476:	eba4 040a 	sub.w	r4, r4, sl
 800047a:	454c      	cmp	r4, r9
 800047c:	46c2      	mov	sl, r8
 800047e:	464b      	mov	r3, r9
 8000480:	d354      	bcc.n	800052c <__udivmoddi4+0x298>
 8000482:	d051      	beq.n	8000528 <__udivmoddi4+0x294>
 8000484:	2e00      	cmp	r6, #0
 8000486:	d069      	beq.n	800055c <__udivmoddi4+0x2c8>
 8000488:	ebb1 050a 	subs.w	r5, r1, sl
 800048c:	eb64 0403 	sbc.w	r4, r4, r3
 8000490:	fa04 fc0c 	lsl.w	ip, r4, ip
 8000494:	40fd      	lsrs	r5, r7
 8000496:	40fc      	lsrs	r4, r7
 8000498:	ea4c 0505 	orr.w	r5, ip, r5
 800049c:	e9c6 5400 	strd	r5, r4, [r6]
 80004a0:	2700      	movs	r7, #0
 80004a2:	e747      	b.n	8000334 <__udivmoddi4+0xa0>
 80004a4:	f1c2 0320 	rsb	r3, r2, #32
 80004a8:	fa20 f703 	lsr.w	r7, r0, r3
 80004ac:	4095      	lsls	r5, r2
 80004ae:	fa01 f002 	lsl.w	r0, r1, r2
 80004b2:	fa21 f303 	lsr.w	r3, r1, r3
 80004b6:	ea4f 4e15 	mov.w	lr, r5, lsr #16
 80004ba:	4338      	orrs	r0, r7
 80004bc:	0c01      	lsrs	r1, r0, #16
 80004be:	fbb3 f7fe 	udiv	r7, r3, lr
 80004c2:	fa1f f885 	uxth.w	r8, r5
 80004c6:	fb0e 3317 	mls	r3, lr, r7, r3
 80004ca:	ea41 4103 	orr.w	r1, r1, r3, lsl #16
 80004ce:	fb07 f308 	mul.w	r3, r7, r8
 80004d2:	428b      	cmp	r3, r1
 80004d4:	fa04 f402 	lsl.w	r4, r4, r2
 80004d8:	d907      	bls.n	80004ea <__udivmoddi4+0x256>
 80004da:	1869      	adds	r1, r5, r1
 80004dc:	f107 3cff 	add.w	ip, r7, #4294967295
 80004e0:	d22f      	bcs.n	8000542 <__udivmoddi4+0x2ae>
 80004e2:	428b      	cmp	r3, r1
 80004e4:	d92d      	bls.n	8000542 <__udivmoddi4+0x2ae>
 80004e6:	3f02      	subs	r7, #2
 80004e8:	4429      	add	r1, r5
 80004ea:	1acb      	subs	r3, r1, r3
 80004ec:	b281      	uxth	r1, r0
 80004ee:	fbb3 f0fe 	udiv	r0, r3, lr
 80004f2:	fb0e 3310 	mls	r3, lr, r0, r3
 80004f6:	ea41 4103 	orr.w	r1, r1, r3, lsl #16
 80004fa:	fb00 f308 	mul.w	r3, r0, r8
 80004fe:	428b      	cmp	r3, r1
 8000500:	d907      	bls.n	8000512 <__udivmoddi4+0x27e>
 8000502:	1869      	adds	r1, r5, r1
 8000504:	f100 3cff 	add.w	ip, r0, #4294967295
 8000508:	d217      	bcs.n	800053a <__udivmoddi4+0x2a6>
 800050a:	428b      	cmp	r3, r1
 800050c:	d915      	bls.n	800053a <__udivmoddi4+0x2a6>
 800050e:	3802      	subs	r0, #2
 8000510:	4429      	add	r1, r5
 8000512:	1ac9      	subs	r1, r1, r3
 8000514:	ea40 4707 	orr.w	r7, r0, r7, lsl #16
 8000518:	e73b      	b.n	8000392 <__udivmoddi4+0xfe>
 800051a:	4637      	mov	r7, r6
 800051c:	4630      	mov	r0, r6
 800051e:	e709      	b.n	8000334 <__udivmoddi4+0xa0>
 8000520:	4607      	mov	r7, r0
 8000522:	e6e7      	b.n	80002f4 <__udivmoddi4+0x60>
 8000524:	4618      	mov	r0, r3
 8000526:	e6fb      	b.n	8000320 <__udivmoddi4+0x8c>
 8000528:	4541      	cmp	r1, r8
 800052a:	d2ab      	bcs.n	8000484 <__udivmoddi4+0x1f0>
 800052c:	ebb8 0a02 	subs.w	sl, r8, r2
 8000530:	eb69 020e 	sbc.w	r2, r9, lr
 8000534:	3801      	subs	r0, #1
 8000536:	4613      	mov	r3, r2
 8000538:	e7a4      	b.n	8000484 <__udivmoddi4+0x1f0>
 800053a:	4660      	mov	r0, ip
 800053c:	e7e9      	b.n	8000512 <__udivmoddi4+0x27e>
 800053e:	4618      	mov	r0, r3
 8000540:	e795      	b.n	800046e <__udivmoddi4+0x1da>
 8000542:	4667      	mov	r7, ip
 8000544:	e7d1      	b.n	80004ea <__udivmoddi4+0x256>
 8000546:	4681      	mov	r9, r0
 8000548:	e77c      	b.n	8000444 <__udivmoddi4+0x1b0>
 800054a:	3802      	subs	r0, #2
 800054c:	442c      	add	r4, r5
 800054e:	e747      	b.n	80003e0 <__udivmoddi4+0x14c>
 8000550:	f1ac 0c02 	sub.w	ip, ip, #2
 8000554:	442b      	add	r3, r5
 8000556:	e72f      	b.n	80003b8 <__udivmoddi4+0x124>
 8000558:	4638      	mov	r0, r7
 800055a:	e708      	b.n	800036e <__udivmoddi4+0xda>
 800055c:	4637      	mov	r7, r6
 800055e:	e6e9      	b.n	8000334 <__udivmoddi4+0xa0>

08000560 <__aeabi_idiv0>:
 8000560:	4770      	bx	lr
 8000562:	bf00      	nop

08000564 <vTask_GateCtrl>:
 */

extern TIM_HandleTypeDef htim3;

void vTask_GateCtrl(void* params)
{
 8000564:	b580      	push	{r7, lr}
 8000566:	b082      	sub	sp, #8
 8000568:	af00      	add	r7, sp, #0
 800056a:	6078      	str	r0, [r7, #4]
	for( ; ; )
	{
		/* slowly lower gate */
		if ( state_machine_get_state() == CLC_train_crossing || state_machine_get_state() == CLC_train_exit_in_progress )
 800056c:	f000 f900 	bl	8000770 <state_machine_get_state>
 8000570:	4603      	mov	r3, r0
 8000572:	2b01      	cmp	r3, #1
 8000574:	d004      	beq.n	8000580 <vTask_GateCtrl+0x1c>
 8000576:	f000 f8fb 	bl	8000770 <state_machine_get_state>
 800057a:	4603      	mov	r3, r0
 800057c:	2b02      	cmp	r3, #2
 800057e:	d103      	bne.n	8000588 <vTask_GateCtrl+0x24>
		{
			gate_ctrl_update_servo_angle( GATE_CTRL_LOWER );
 8000580:	2000      	movs	r0, #0
 8000582:	f000 f80d 	bl	80005a0 <gate_ctrl_update_servo_angle>
 8000586:	e007      	b.n	8000598 <vTask_GateCtrl+0x34>
		}

		/* slowly raise gate */
		else if ( state_machine_get_state() == CLC_train_exit_fully )
 8000588:	f000 f8f2 	bl	8000770 <state_machine_get_state>
 800058c:	4603      	mov	r3, r0
 800058e:	2b03      	cmp	r3, #3
 8000590:	d102      	bne.n	8000598 <vTask_GateCtrl+0x34>
		{
			gate_ctrl_update_servo_angle( GATE_CTRL_RAISE );
 8000592:	2001      	movs	r0, #1
 8000594:	f000 f804 	bl	80005a0 <gate_ctrl_update_servo_angle>
		 *
		 * Time from fully raised to fully lowered or vice versa is based on 4 seconds
		 * 4 seconds = 4000 ms / (GATE_CTRL_GATE_FULLY_RAISED_SERVO_VAL - GATE_CTRL_GATE_FULLY_LOWERED_SERVO_VAL)
		 * Therefore, 4ms task delay is required
		 */
		vTaskDelay(pdMS_TO_TICKS(4));
 8000598:	2004      	movs	r0, #4
 800059a:	f003 fc19 	bl	8003dd0 <vTaskDelay>
		if ( state_machine_get_state() == CLC_train_crossing || state_machine_get_state() == CLC_train_exit_in_progress )
 800059e:	e7e5      	b.n	800056c <vTask_GateCtrl+0x8>

080005a0 <gate_ctrl_update_servo_angle>:
	}
}

void gate_ctrl_update_servo_angle(uint8_t servoDir)
{
 80005a0:	b480      	push	{r7}
 80005a2:	b083      	sub	sp, #12
 80005a4:	af00      	add	r7, sp, #0
 80005a6:	4603      	mov	r3, r0
 80005a8:	71fb      	strb	r3, [r7, #7]
	if ( servoDir == GATE_CTRL_RAISE )
 80005aa:	79fb      	ldrb	r3, [r7, #7]
 80005ac:	2b01      	cmp	r3, #1
 80005ae:	d107      	bne.n	80005c0 <gate_ctrl_update_servo_angle+0x20>
	{
		htim3.Instance->CCR1 = htim3.Instance->CCR1 + 1;	/* INCREASE capture compare reg to increase duty cycle */
 80005b0:	4b1a      	ldr	r3, [pc, #104]	; (800061c <gate_ctrl_update_servo_angle+0x7c>)
 80005b2:	681b      	ldr	r3, [r3, #0]
 80005b4:	6b5a      	ldr	r2, [r3, #52]	; 0x34
 80005b6:	4b19      	ldr	r3, [pc, #100]	; (800061c <gate_ctrl_update_servo_angle+0x7c>)
 80005b8:	681b      	ldr	r3, [r3, #0]
 80005ba:	3201      	adds	r2, #1
 80005bc:	635a      	str	r2, [r3, #52]	; 0x34
 80005be:	e009      	b.n	80005d4 <gate_ctrl_update_servo_angle+0x34>
	}
	else if ( servoDir == GATE_CTRL_LOWER )
 80005c0:	79fb      	ldrb	r3, [r7, #7]
 80005c2:	2b00      	cmp	r3, #0
 80005c4:	d106      	bne.n	80005d4 <gate_ctrl_update_servo_angle+0x34>
	{
		htim3.Instance->CCR1 = htim3.Instance->CCR1 - 1;	/* DECREASE capture compare reg to increase duty cycle */
 80005c6:	4b15      	ldr	r3, [pc, #84]	; (800061c <gate_ctrl_update_servo_angle+0x7c>)
 80005c8:	681b      	ldr	r3, [r3, #0]
 80005ca:	6b5a      	ldr	r2, [r3, #52]	; 0x34
 80005cc:	4b13      	ldr	r3, [pc, #76]	; (800061c <gate_ctrl_update_servo_angle+0x7c>)
 80005ce:	681b      	ldr	r3, [r3, #0]
 80005d0:	3a01      	subs	r2, #1
 80005d2:	635a      	str	r2, [r3, #52]	; 0x34
	 *
	 * #define GATE_CTRL_GATE_FULLY_LOWERED_SERVO_VAL 	(min value)
	 * #define GATE_CTRL_GATE_FULLY_RAISED_SERVO_VAL	(max value)
	 *
	 * */
	htim3.Instance->CCR1 = gate_ctrl_servo_angle_check( htim3.Instance->CCR1 );
 80005d4:	4b11      	ldr	r3, [pc, #68]	; (800061c <gate_ctrl_update_servo_angle+0x7c>)
 80005d6:	681b      	ldr	r3, [r3, #0]
 80005d8:	6b5b      	ldr	r3, [r3, #52]	; 0x34
 80005da:	f5b3 6fe1 	cmp.w	r3, #1800	; 0x708
 80005de:	d805      	bhi.n	80005ec <gate_ctrl_update_servo_angle+0x4c>
 80005e0:	4b0e      	ldr	r3, [pc, #56]	; (800061c <gate_ctrl_update_servo_angle+0x7c>)
 80005e2:	681b      	ldr	r3, [r3, #0]
 80005e4:	6b5b      	ldr	r3, [r3, #52]	; 0x34
 80005e6:	f5b3 7f48 	cmp.w	r3, #800	; 0x320
 80005ea:	d30c      	bcc.n	8000606 <gate_ctrl_update_servo_angle+0x66>
 80005ec:	4b0b      	ldr	r3, [pc, #44]	; (800061c <gate_ctrl_update_servo_angle+0x7c>)
 80005ee:	681b      	ldr	r3, [r3, #0]
 80005f0:	6b5b      	ldr	r3, [r3, #52]	; 0x34
 80005f2:	f5b3 6fe1 	cmp.w	r3, #1800	; 0x708
 80005f6:	d803      	bhi.n	8000600 <gate_ctrl_update_servo_angle+0x60>
 80005f8:	4b08      	ldr	r3, [pc, #32]	; (800061c <gate_ctrl_update_servo_angle+0x7c>)
 80005fa:	681b      	ldr	r3, [r3, #0]
 80005fc:	6b5b      	ldr	r3, [r3, #52]	; 0x34
 80005fe:	e004      	b.n	800060a <gate_ctrl_update_servo_angle+0x6a>
 8000600:	f44f 63e1 	mov.w	r3, #1800	; 0x708
 8000604:	e001      	b.n	800060a <gate_ctrl_update_servo_angle+0x6a>
 8000606:	f44f 7348 	mov.w	r3, #800	; 0x320
 800060a:	4a04      	ldr	r2, [pc, #16]	; (800061c <gate_ctrl_update_servo_angle+0x7c>)
 800060c:	6812      	ldr	r2, [r2, #0]
 800060e:	6353      	str	r3, [r2, #52]	; 0x34
}
 8000610:	bf00      	nop
 8000612:	370c      	adds	r7, #12
 8000614:	46bd      	mov	sp, r7
 8000616:	f85d 7b04 	ldr.w	r7, [sp], #4
 800061a:	4770      	bx	lr
 800061c:	2001a770 	.word	0x2001a770

08000620 <gate_ctrl_gate_not_fully_raised>:

uint8_t gate_ctrl_gate_not_fully_raised(void)
{
 8000620:	b480      	push	{r7}
 8000622:	af00      	add	r7, sp, #0
	return htim3.Instance->CCR1 != GATE_CTRL_GATE_FULLY_RAISED_SERVO_VAL;
 8000624:	4b06      	ldr	r3, [pc, #24]	; (8000640 <gate_ctrl_gate_not_fully_raised+0x20>)
 8000626:	681b      	ldr	r3, [r3, #0]
 8000628:	6b5b      	ldr	r3, [r3, #52]	; 0x34
 800062a:	f5b3 6fe1 	cmp.w	r3, #1800	; 0x708
 800062e:	bf14      	ite	ne
 8000630:	2301      	movne	r3, #1
 8000632:	2300      	moveq	r3, #0
 8000634:	b2db      	uxtb	r3, r3
}
 8000636:	4618      	mov	r0, r3
 8000638:	46bd      	mov	sp, r7
 800063a:	f85d 7b04 	ldr.w	r7, [sp], #4
 800063e:	4770      	bx	lr
 8000640:	2001a770 	.word	0x2001a770

08000644 <vTask_IntersectionCtrl>:
 8000644:	b580      	push	{r7, lr}
 8000646:	b084      	sub	sp, #16
 8000648:	af00      	add	r7, sp, #0
 800064a:	6078      	str	r0, [r7, #4]
 800064c:	f003 fd06 	bl	800405c <xTaskGetTickCount>
 8000650:	4603      	mov	r3, r0
 8000652:	60fb      	str	r3, [r7, #12]
 8000654:	f000 f88c 	bl	8000770 <state_machine_get_state>
 8000658:	4603      	mov	r3, r0
 800065a:	2b01      	cmp	r3, #1
 800065c:	d009      	beq.n	8000672 <vTask_IntersectionCtrl+0x2e>
 800065e:	f000 f887 	bl	8000770 <state_machine_get_state>
 8000662:	4603      	mov	r3, r0
 8000664:	2b02      	cmp	r3, #2
 8000666:	d004      	beq.n	8000672 <vTask_IntersectionCtrl+0x2e>
 8000668:	f7ff ffda 	bl	8000620 <gate_ctrl_gate_not_fully_raised>
 800066c:	4603      	mov	r3, r0
 800066e:	2b00      	cmp	r3, #0
 8000670:	d012      	beq.n	8000698 <vTask_IntersectionCtrl+0x54>
 8000672:	f44f 4180 	mov.w	r1, #16384	; 0x4000
 8000676:	480f      	ldr	r0, [pc, #60]	; (80006b4 <vTask_IntersectionCtrl+0x70>)
 8000678:	f000 fb75 	bl	8000d66 <HAL_GPIO_TogglePin>
 800067c:	2200      	movs	r2, #0
 800067e:	f44f 5180 	mov.w	r1, #4096	; 0x1000
 8000682:	480c      	ldr	r0, [pc, #48]	; (80006b4 <vTask_IntersectionCtrl+0x70>)
 8000684:	f000 fb56 	bl	8000d34 <HAL_GPIO_WritePin>
 8000688:	f107 030c 	add.w	r3, r7, #12
 800068c:	f240 21ee 	movw	r1, #750	; 0x2ee
 8000690:	4618      	mov	r0, r3
 8000692:	f003 fb1f 	bl	8003cd4 <xTaskDelayUntil>
 8000696:	e00b      	b.n	80006b0 <vTask_IntersectionCtrl+0x6c>
 8000698:	2200      	movs	r2, #0
 800069a:	f44f 4180 	mov.w	r1, #16384	; 0x4000
 800069e:	4805      	ldr	r0, [pc, #20]	; (80006b4 <vTask_IntersectionCtrl+0x70>)
 80006a0:	f000 fb48 	bl	8000d34 <HAL_GPIO_WritePin>
 80006a4:	2201      	movs	r2, #1
 80006a6:	f44f 5180 	mov.w	r1, #4096	; 0x1000
 80006aa:	4802      	ldr	r0, [pc, #8]	; (80006b4 <vTask_IntersectionCtrl+0x70>)
 80006ac:	f000 fb42 	bl	8000d34 <HAL_GPIO_WritePin>
 80006b0:	e7d0      	b.n	8000654 <vTask_IntersectionCtrl+0x10>
 80006b2:	bf00      	nop
 80006b4:	40020c00 	.word	0x40020c00

080006b8 <vTask_SensorRead>:
 80006b8:	b580      	push	{r7, lr}
 80006ba:	b082      	sub	sp, #8
 80006bc:	af00      	add	r7, sp, #0
 80006be:	6078      	str	r0, [r7, #4]
 80006c0:	2101      	movs	r1, #1
 80006c2:	4808      	ldr	r0, [pc, #32]	; (80006e4 <vTask_SensorRead+0x2c>)
 80006c4:	f000 fb1e 	bl	8000d04 <HAL_GPIO_ReadPin>
 80006c8:	4603      	mov	r3, r0
 80006ca:	461a      	mov	r2, r3
 80006cc:	4b06      	ldr	r3, [pc, #24]	; (80006e8 <vTask_SensorRead+0x30>)
 80006ce:	701a      	strb	r2, [r3, #0]
 80006d0:	2180      	movs	r1, #128	; 0x80
 80006d2:	4806      	ldr	r0, [pc, #24]	; (80006ec <vTask_SensorRead+0x34>)
 80006d4:	f000 fb16 	bl	8000d04 <HAL_GPIO_ReadPin>
 80006d8:	4603      	mov	r3, r0
 80006da:	461a      	mov	r2, r3
 80006dc:	4b04      	ldr	r3, [pc, #16]	; (80006f0 <vTask_SensorRead+0x38>)
 80006de:	701a      	strb	r2, [r3, #0]
 80006e0:	e7ee      	b.n	80006c0 <vTask_SensorRead+0x8>
 80006e2:	bf00      	nop
 80006e4:	40020c00 	.word	0x40020c00
 80006e8:	20000030 	.word	0x20000030
 80006ec:	40021000 	.word	0x40021000
 80006f0:	20000031 	.word	0x20000031

080006f4 <sensor_read_get_sensor1_reading>:
 80006f4:	b480      	push	{r7}
 80006f6:	af00      	add	r7, sp, #0
 80006f8:	4b03      	ldr	r3, [pc, #12]	; (8000708 <sensor_read_get_sensor1_reading+0x14>)
 80006fa:	781b      	ldrb	r3, [r3, #0]
 80006fc:	4618      	mov	r0, r3
 80006fe:	46bd      	mov	sp, r7
 8000700:	f85d 7b04 	ldr.w	r7, [sp], #4
 8000704:	4770      	bx	lr
 8000706:	bf00      	nop
 8000708:	20000030 	.word	0x20000030

0800070c <sensor_read_get_sensor2_reading>:
 800070c:	b480      	push	{r7}
 800070e:	af00      	add	r7, sp, #0
 8000710:	4b03      	ldr	r3, [pc, #12]	; (8000720 <sensor_read_get_sensor2_reading+0x14>)
 8000712:	781b      	ldrb	r3, [r3, #0]
 8000714:	4618      	mov	r0, r3
 8000716:	46bd      	mov	sp, r7
 8000718:	f85d 7b04 	ldr.w	r7, [sp], #4
 800071c:	4770      	bx	lr
 800071e:	bf00      	nop
 8000720:	20000031 	.word	0x20000031

08000724 <vTask_StateMachine>:
 */

static uint8_t CLC_current_state = CLC_train_not_present;

void vTask_StateMachine(void* params)
{
 8000724:	b580      	push	{r7, lr}
 8000726:	b082      	sub	sp, #8
 8000728:	af00      	add	r7, sp, #0
 800072a:	6078      	str	r0, [r7, #4]
	for(;;)
	{
		if ( sensor_read_get_sensor1_reading() == LOW )
 800072c:	f7ff ffe2 	bl	80006f4 <sensor_read_get_sensor1_reading>
 8000730:	4603      	mov	r3, r0
 8000732:	2b00      	cmp	r3, #0
 8000734:	d1fa      	bne.n	800072c <vTask_StateMachine+0x8>
		{
			while ( sensor_read_get_sensor2_reading() == HIGH )
 8000736:	e002      	b.n	800073e <vTask_StateMachine+0x1a>
				CLC_current_state = CLC_train_crossing;
 8000738:	4b0c      	ldr	r3, [pc, #48]	; (800076c <vTask_StateMachine+0x48>)
 800073a:	2201      	movs	r2, #1
 800073c:	701a      	strb	r2, [r3, #0]
			while ( sensor_read_get_sensor2_reading() == HIGH )
 800073e:	f7ff ffe5 	bl	800070c <sensor_read_get_sensor2_reading>
 8000742:	4603      	mov	r3, r0
 8000744:	2b01      	cmp	r3, #1
 8000746:	d0f7      	beq.n	8000738 <vTask_StateMachine+0x14>
			while ( sensor_read_get_sensor2_reading() == LOW )
 8000748:	e002      	b.n	8000750 <vTask_StateMachine+0x2c>
				CLC_current_state = CLC_train_exit_in_progress;
 800074a:	4b08      	ldr	r3, [pc, #32]	; (800076c <vTask_StateMachine+0x48>)
 800074c:	2202      	movs	r2, #2
 800074e:	701a      	strb	r2, [r3, #0]
			while ( sensor_read_get_sensor2_reading() == LOW )
 8000750:	f7ff ffdc 	bl	800070c <sensor_read_get_sensor2_reading>
 8000754:	4603      	mov	r3, r0
 8000756:	2b00      	cmp	r3, #0
 8000758:	d0f7      	beq.n	800074a <vTask_StateMachine+0x26>
			CLC_current_state = CLC_train_exit_fully;
 800075a:	4b04      	ldr	r3, [pc, #16]	; (800076c <vTask_StateMachine+0x48>)
 800075c:	2203      	movs	r2, #3
 800075e:	701a      	strb	r2, [r3, #0]
			vTaskDelay(pdMS_TO_TICKS(2000)); //delay to make sure train fully exits
 8000760:	f44f 60fa 	mov.w	r0, #2000	; 0x7d0
 8000764:	f003 fb34 	bl	8003dd0 <vTaskDelay>
		if ( sensor_read_get_sensor1_reading() == LOW )
 8000768:	e7e0      	b.n	800072c <vTask_StateMachine+0x8>
 800076a:	bf00      	nop
 800076c:	20000032 	.word	0x20000032

08000770 <state_machine_get_state>:
		}
	}
}

uint8_t state_machine_get_state(void)
{
 8000770:	b480      	push	{r7}
 8000772:	af00      	add	r7, sp, #0
	return CLC_current_state;
 8000774:	4b03      	ldr	r3, [pc, #12]	; (8000784 <state_machine_get_state+0x14>)
 8000776:	781b      	ldrb	r3, [r3, #0]
}
 8000778:	4618      	mov	r0, r3
 800077a:	46bd      	mov	sp, r7
 800077c:	f85d 7b04 	ldr.w	r7, [sp], #4
 8000780:	4770      	bx	lr
 8000782:	bf00      	nop
 8000784:	20000032 	.word	0x20000032

08000788 <HAL_Init>:
 8000788:	b580      	push	{r7, lr}
 800078a:	af00      	add	r7, sp, #0
 800078c:	4b0e      	ldr	r3, [pc, #56]	; (80007c8 <HAL_Init+0x40>)
 800078e:	681b      	ldr	r3, [r3, #0]
 8000790:	4a0d      	ldr	r2, [pc, #52]	; (80007c8 <HAL_Init+0x40>)
 8000792:	f443 7300 	orr.w	r3, r3, #512	; 0x200
 8000796:	6013      	str	r3, [r2, #0]
 8000798:	4b0b      	ldr	r3, [pc, #44]	; (80007c8 <HAL_Init+0x40>)
 800079a:	681b      	ldr	r3, [r3, #0]
 800079c:	4a0a      	ldr	r2, [pc, #40]	; (80007c8 <HAL_Init+0x40>)
 800079e:	f443 6380 	orr.w	r3, r3, #1024	; 0x400
 80007a2:	6013      	str	r3, [r2, #0]
 80007a4:	4b08      	ldr	r3, [pc, #32]	; (80007c8 <HAL_Init+0x40>)
 80007a6:	681b      	ldr	r3, [r3, #0]
 80007a8:	4a07      	ldr	r2, [pc, #28]	; (80007c8 <HAL_Init+0x40>)
 80007aa:	f443 7380 	orr.w	r3, r3, #256	; 0x100
 80007ae:	6013      	str	r3, [r2, #0]
 80007b0:	2003      	movs	r0, #3
 80007b2:	f000 f8d8 	bl	8000966 <HAL_NVIC_SetPriorityGrouping>
 80007b6:	2000      	movs	r0, #0
 80007b8:	f002 fa66 	bl	8002c88 <HAL_InitTick>
 80007bc:	f002 f9ca 	bl	8002b54 <HAL_MspInit>
 80007c0:	2300      	movs	r3, #0
 80007c2:	4618      	mov	r0, r3
 80007c4:	bd80      	pop	{r7, pc}
 80007c6:	bf00      	nop
 80007c8:	40023c00 	.word	0x40023c00

080007cc <HAL_IncTick>:
 80007cc:	b480      	push	{r7}
 80007ce:	af00      	add	r7, sp, #0
 80007d0:	4b06      	ldr	r3, [pc, #24]	; (80007ec <HAL_IncTick+0x20>)
 80007d2:	781b      	ldrb	r3, [r3, #0]
 80007d4:	461a      	mov	r2, r3
 80007d6:	4b06      	ldr	r3, [pc, #24]	; (80007f0 <HAL_IncTick+0x24>)
 80007d8:	681b      	ldr	r3, [r3, #0]
 80007da:	4413      	add	r3, r2
 80007dc:	4a04      	ldr	r2, [pc, #16]	; (80007f0 <HAL_IncTick+0x24>)
 80007de:	6013      	str	r3, [r2, #0]
 80007e0:	bf00      	nop
 80007e2:	46bd      	mov	sp, r7
 80007e4:	f85d 7b04 	ldr.w	r7, [sp], #4
 80007e8:	4770      	bx	lr
 80007ea:	bf00      	nop
 80007ec:	20000004 	.word	0x20000004
 80007f0:	2001a76c 	.word	0x2001a76c

080007f4 <HAL_GetTick>:
 80007f4:	b480      	push	{r7}
 80007f6:	af00      	add	r7, sp, #0
 80007f8:	4b03      	ldr	r3, [pc, #12]	; (8000808 <HAL_GetTick+0x14>)
 80007fa:	681b      	ldr	r3, [r3, #0]
 80007fc:	4618      	mov	r0, r3
 80007fe:	46bd      	mov	sp, r7
 8000800:	f85d 7b04 	ldr.w	r7, [sp], #4
 8000804:	4770      	bx	lr
 8000806:	bf00      	nop
 8000808:	2001a76c 	.word	0x2001a76c

0800080c <__NVIC_SetPriorityGrouping>:
 800080c:	b480      	push	{r7}
 800080e:	b085      	sub	sp, #20
 8000810:	af00      	add	r7, sp, #0
 8000812:	6078      	str	r0, [r7, #4]
 8000814:	687b      	ldr	r3, [r7, #4]
 8000816:	f003 0307 	and.w	r3, r3, #7
 800081a:	60fb      	str	r3, [r7, #12]
 800081c:	4b0c      	ldr	r3, [pc, #48]	; (8000850 <__NVIC_SetPriorityGrouping+0x44>)
 800081e:	68db      	ldr	r3, [r3, #12]
 8000820:	60bb      	str	r3, [r7, #8]
 8000822:	68ba      	ldr	r2, [r7, #8]
 8000824:	f64f 03ff 	movw	r3, #63743	; 0xf8ff
 8000828:	4013      	ands	r3, r2
 800082a:	60bb      	str	r3, [r7, #8]
 800082c:	68fb      	ldr	r3, [r7, #12]
 800082e:	021a      	lsls	r2, r3, #8
 8000830:	68bb      	ldr	r3, [r7, #8]
 8000832:	4313      	orrs	r3, r2
 8000834:	f043 63bf 	orr.w	r3, r3, #100139008	; 0x5f80000
 8000838:	f443 3300 	orr.w	r3, r3, #131072	; 0x20000
 800083c:	60bb      	str	r3, [r7, #8]
 800083e:	4a04      	ldr	r2, [pc, #16]	; (8000850 <__NVIC_SetPriorityGrouping+0x44>)
 8000840:	68bb      	ldr	r3, [r7, #8]
 8000842:	60d3      	str	r3, [r2, #12]
 8000844:	bf00      	nop
 8000846:	3714      	adds	r7, #20
 8000848:	46bd      	mov	sp, r7
 800084a:	f85d 7b04 	ldr.w	r7, [sp], #4
 800084e:	4770      	bx	lr
 8000850:	e000ed00 	.word	0xe000ed00

08000854 <__NVIC_GetPriorityGrouping>:
 8000854:	b480      	push	{r7}
 8000856:	af00      	add	r7, sp, #0
 8000858:	4b04      	ldr	r3, [pc, #16]	; (800086c <__NVIC_GetPriorityGrouping+0x18>)
 800085a:	68db      	ldr	r3, [r3, #12]
 800085c:	0a1b      	lsrs	r3, r3, #8
 800085e:	f003 0307 	and.w	r3, r3, #7
 8000862:	4618      	mov	r0, r3
 8000864:	46bd      	mov	sp, r7
 8000866:	f85d 7b04 	ldr.w	r7, [sp], #4
 800086a:	4770      	bx	lr
 800086c:	e000ed00 	.word	0xe000ed00

08000870 <__NVIC_EnableIRQ>:
 8000870:	b480      	push	{r7}
 8000872:	b083      	sub	sp, #12
 8000874:	af00      	add	r7, sp, #0
 8000876:	4603      	mov	r3, r0
 8000878:	71fb      	strb	r3, [r7, #7]
 800087a:	f997 3007 	ldrsb.w	r3, [r7, #7]
 800087e:	2b00      	cmp	r3, #0
 8000880:	db0b      	blt.n	800089a <__NVIC_EnableIRQ+0x2a>
 8000882:	79fb      	ldrb	r3, [r7, #7]
 8000884:	f003 021f 	and.w	r2, r3, #31
 8000888:	4907      	ldr	r1, [pc, #28]	; (80008a8 <__NVIC_EnableIRQ+0x38>)
 800088a:	f997 3007 	ldrsb.w	r3, [r7, #7]
 800088e:	095b      	lsrs	r3, r3, #5
 8000890:	2001      	movs	r0, #1
 8000892:	fa00 f202 	lsl.w	r2, r0, r2
 8000896:	f841 2023 	str.w	r2, [r1, r3, lsl #2]
 800089a:	bf00      	nop
 800089c:	370c      	adds	r7, #12
 800089e:	46bd      	mov	sp, r7
 80008a0:	f85d 7b04 	ldr.w	r7, [sp], #4
 80008a4:	4770      	bx	lr
 80008a6:	bf00      	nop
 80008a8:	e000e100 	.word	0xe000e100

080008ac <__NVIC_SetPriority>:
 80008ac:	b480      	push	{r7}
 80008ae:	b083      	sub	sp, #12
 80008b0:	af00      	add	r7, sp, #0
 80008b2:	4603      	mov	r3, r0
 80008b4:	6039      	str	r1, [r7, #0]
 80008b6:	71fb      	strb	r3, [r7, #7]
 80008b8:	f997 3007 	ldrsb.w	r3, [r7, #7]
 80008bc:	2b00      	cmp	r3, #0
 80008be:	db0a      	blt.n	80008d6 <__NVIC_SetPriority+0x2a>
 80008c0:	683b      	ldr	r3, [r7, #0]
 80008c2:	b2da      	uxtb	r2, r3
 80008c4:	490c      	ldr	r1, [pc, #48]	; (80008f8 <__NVIC_SetPriority+0x4c>)
 80008c6:	f997 3007 	ldrsb.w	r3, [r7, #7]
 80008ca:	0112      	lsls	r2, r2, #4
 80008cc:	b2d2      	uxtb	r2, r2
 80008ce:	440b      	add	r3, r1
 80008d0:	f883 2300 	strb.w	r2, [r3, #768]	; 0x300
 80008d4:	e00a      	b.n	80008ec <__NVIC_SetPriority+0x40>
 80008d6:	683b      	ldr	r3, [r7, #0]
 80008d8:	b2da      	uxtb	r2, r3
 80008da:	4908      	ldr	r1, [pc, #32]	; (80008fc <__NVIC_SetPriority+0x50>)
 80008dc:	79fb      	ldrb	r3, [r7, #7]
 80008de:	f003 030f 	and.w	r3, r3, #15
 80008e2:	3b04      	subs	r3, #4
 80008e4:	0112      	lsls	r2, r2, #4
 80008e6:	b2d2      	uxtb	r2, r2
 80008e8:	440b      	add	r3, r1
 80008ea:	761a      	strb	r2, [r3, #24]
 80008ec:	bf00      	nop
 80008ee:	370c      	adds	r7, #12
 80008f0:	46bd      	mov	sp, r7
 80008f2:	f85d 7b04 	ldr.w	r7, [sp], #4
 80008f6:	4770      	bx	lr
 80008f8:	e000e100 	.word	0xe000e100
 80008fc:	e000ed00 	.word	0xe000ed00

08000900 <NVIC_EncodePriority>:
 8000900:	b480      	push	{r7}
 8000902:	b089      	sub	sp, #36	; 0x24
 8000904:	af00      	add	r7, sp, #0
 8000906:	60f8      	str	r0, [r7, #12]
 8000908:	60b9      	str	r1, [r7, #8]
 800090a:	607a      	str	r2, [r7, #4]
 800090c:	68fb      	ldr	r3, [r7, #12]
 800090e:	f003 0307 	and.w	r3, r3, #7
 8000912:	61fb      	str	r3, [r7, #28]
 8000914:	69fb      	ldr	r3, [r7, #28]
 8000916:	f1c3 0307 	rsb	r3, r3, #7
 800091a:	2b04      	cmp	r3, #4
 800091c:	bf28      	it	cs
 800091e:	2304      	movcs	r3, #4
 8000920:	61bb      	str	r3, [r7, #24]
 8000922:	69fb      	ldr	r3, [r7, #28]
 8000924:	3304      	adds	r3, #4
 8000926:	2b06      	cmp	r3, #6
 8000928:	d902      	bls.n	8000930 <NVIC_EncodePriority+0x30>
 800092a:	69fb      	ldr	r3, [r7, #28]
 800092c:	3b03      	subs	r3, #3
 800092e:	e000      	b.n	8000932 <NVIC_EncodePriority+0x32>
 8000930:	2300      	movs	r3, #0
 8000932:	617b      	str	r3, [r7, #20]
 8000934:	f04f 32ff 	mov.w	r2, #4294967295
 8000938:	69bb      	ldr	r3, [r7, #24]
 800093a:	fa02 f303 	lsl.w	r3, r2, r3
 800093e:	43da      	mvns	r2, r3
 8000940:	68bb      	ldr	r3, [r7, #8]
 8000942:	401a      	ands	r2, r3
 8000944:	697b      	ldr	r3, [r7, #20]
 8000946:	409a      	lsls	r2, r3
 8000948:	f04f 31ff 	mov.w	r1, #4294967295
 800094c:	697b      	ldr	r3, [r7, #20]
 800094e:	fa01 f303 	lsl.w	r3, r1, r3
 8000952:	43d9      	mvns	r1, r3
 8000954:	687b      	ldr	r3, [r7, #4]
 8000956:	400b      	ands	r3, r1
 8000958:	4313      	orrs	r3, r2
 800095a:	4618      	mov	r0, r3
 800095c:	3724      	adds	r7, #36	; 0x24
 800095e:	46bd      	mov	sp, r7
 8000960:	f85d 7b04 	ldr.w	r7, [sp], #4
 8000964:	4770      	bx	lr

08000966 <HAL_NVIC_SetPriorityGrouping>:
 8000966:	b580      	push	{r7, lr}
 8000968:	b082      	sub	sp, #8
 800096a:	af00      	add	r7, sp, #0
 800096c:	6078      	str	r0, [r7, #4]
 800096e:	6878      	ldr	r0, [r7, #4]
 8000970:	f7ff ff4c 	bl	800080c <__NVIC_SetPriorityGrouping>
 8000974:	bf00      	nop
 8000976:	3708      	adds	r7, #8
 8000978:	46bd      	mov	sp, r7
 800097a:	bd80      	pop	{r7, pc}

0800097c <HAL_NVIC_SetPriority>:
 800097c:	b580      	push	{r7, lr}
 800097e:	b086      	sub	sp, #24
 8000980:	af00      	add	r7, sp, #0
 8000982:	4603      	mov	r3, r0
 8000984:	60b9      	str	r1, [r7, #8]
 8000986:	607a      	str	r2, [r7, #4]
 8000988:	73fb      	strb	r3, [r7, #15]
 800098a:	2300      	movs	r3, #0
 800098c:	617b      	str	r3, [r7, #20]
 800098e:	f7ff ff61 	bl	8000854 <__NVIC_GetPriorityGrouping>
 8000992:	6178      	str	r0, [r7, #20]
 8000994:	687a      	ldr	r2, [r7, #4]
 8000996:	68b9      	ldr	r1, [r7, #8]
 8000998:	6978      	ldr	r0, [r7, #20]
 800099a:	f7ff ffb1 	bl	8000900 <NVIC_EncodePriority>
 800099e:	4602      	mov	r2, r0
 80009a0:	f997 300f 	ldrsb.w	r3, [r7, #15]
 80009a4:	4611      	mov	r1, r2
 80009a6:	4618      	mov	r0, r3
 80009a8:	f7ff ff80 	bl	80008ac <__NVIC_SetPriority>
 80009ac:	bf00      	nop
 80009ae:	3718      	adds	r7, #24
 80009b0:	46bd      	mov	sp, r7
 80009b2:	bd80      	pop	{r7, pc}

080009b4 <HAL_NVIC_EnableIRQ>:
 80009b4:	b580      	push	{r7, lr}
 80009b6:	b082      	sub	sp, #8
 80009b8:	af00      	add	r7, sp, #0
 80009ba:	4603      	mov	r3, r0
 80009bc:	71fb      	strb	r3, [r7, #7]
 80009be:	f997 3007 	ldrsb.w	r3, [r7, #7]
 80009c2:	4618      	mov	r0, r3
 80009c4:	f7ff ff54 	bl	8000870 <__NVIC_EnableIRQ>
 80009c8:	bf00      	nop
 80009ca:	3708      	adds	r7, #8
 80009cc:	46bd      	mov	sp, r7
 80009ce:	bd80      	pop	{r7, pc}

080009d0 <HAL_GPIO_Init>:
 80009d0:	b480      	push	{r7}
 80009d2:	b089      	sub	sp, #36	; 0x24
 80009d4:	af00      	add	r7, sp, #0
 80009d6:	6078      	str	r0, [r7, #4]
 80009d8:	6039      	str	r1, [r7, #0]
 80009da:	2300      	movs	r3, #0
 80009dc:	617b      	str	r3, [r7, #20]
 80009de:	2300      	movs	r3, #0
 80009e0:	613b      	str	r3, [r7, #16]
 80009e2:	2300      	movs	r3, #0
 80009e4:	61bb      	str	r3, [r7, #24]
 80009e6:	2300      	movs	r3, #0
 80009e8:	61fb      	str	r3, [r7, #28]
 80009ea:	e16b      	b.n	8000cc4 <HAL_GPIO_Init+0x2f4>
 80009ec:	2201      	movs	r2, #1
 80009ee:	69fb      	ldr	r3, [r7, #28]
 80009f0:	fa02 f303 	lsl.w	r3, r2, r3
 80009f4:	617b      	str	r3, [r7, #20]
 80009f6:	683b      	ldr	r3, [r7, #0]
 80009f8:	681b      	ldr	r3, [r3, #0]
 80009fa:	697a      	ldr	r2, [r7, #20]
 80009fc:	4013      	ands	r3, r2
 80009fe:	613b      	str	r3, [r7, #16]
 8000a00:	693a      	ldr	r2, [r7, #16]
 8000a02:	697b      	ldr	r3, [r7, #20]
 8000a04:	429a      	cmp	r2, r3
 8000a06:	f040 815a 	bne.w	8000cbe <HAL_GPIO_Init+0x2ee>
 8000a0a:	683b      	ldr	r3, [r7, #0]
 8000a0c:	685b      	ldr	r3, [r3, #4]
 8000a0e:	2b01      	cmp	r3, #1
 8000a10:	d00b      	beq.n	8000a2a <HAL_GPIO_Init+0x5a>
 8000a12:	683b      	ldr	r3, [r7, #0]
 8000a14:	685b      	ldr	r3, [r3, #4]
 8000a16:	2b02      	cmp	r3, #2
 8000a18:	d007      	beq.n	8000a2a <HAL_GPIO_Init+0x5a>
 8000a1a:	683b      	ldr	r3, [r7, #0]
 8000a1c:	685b      	ldr	r3, [r3, #4]
 8000a1e:	2b11      	cmp	r3, #17
 8000a20:	d003      	beq.n	8000a2a <HAL_GPIO_Init+0x5a>
 8000a22:	683b      	ldr	r3, [r7, #0]
 8000a24:	685b      	ldr	r3, [r3, #4]
 8000a26:	2b12      	cmp	r3, #18
 8000a28:	d130      	bne.n	8000a8c <HAL_GPIO_Init+0xbc>
 8000a2a:	687b      	ldr	r3, [r7, #4]
 8000a2c:	689b      	ldr	r3, [r3, #8]
 8000a2e:	61bb      	str	r3, [r7, #24]
 8000a30:	69fb      	ldr	r3, [r7, #28]
 8000a32:	005b      	lsls	r3, r3, #1
 8000a34:	2203      	movs	r2, #3
 8000a36:	fa02 f303 	lsl.w	r3, r2, r3
 8000a3a:	43db      	mvns	r3, r3
 8000a3c:	69ba      	ldr	r2, [r7, #24]
 8000a3e:	4013      	ands	r3, r2
 8000a40:	61bb      	str	r3, [r7, #24]
 8000a42:	683b      	ldr	r3, [r7, #0]
 8000a44:	68da      	ldr	r2, [r3, #12]
 8000a46:	69fb      	ldr	r3, [r7, #28]
 8000a48:	005b      	lsls	r3, r3, #1
 8000a4a:	fa02 f303 	lsl.w	r3, r2, r3
 8000a4e:	69ba      	ldr	r2, [r7, #24]
 8000a50:	4313      	orrs	r3, r2
 8000a52:	61bb      	str	r3, [r7, #24]
 8000a54:	687b      	ldr	r3, [r7, #4]
 8000a56:	69ba      	ldr	r2, [r7, #24]
 8000a58:	609a      	str	r2, [r3, #8]
 8000a5a:	687b      	ldr	r3, [r7, #4]
 8000a5c:	685b      	ldr	r3, [r3, #4]
 8000a5e:	61bb      	str	r3, [r7, #24]
 8000a60:	2201      	movs	r2, #1
 8000a62:	69fb      	ldr	r3, [r7, #28]
 8000a64:	fa02 f303 	lsl.w	r3, r2, r3
 8000a68:	43db      	mvns	r3, r3
 8000a6a:	69ba      	ldr	r2, [r7, #24]
 8000a6c:	4013      	ands	r3, r2
 8000a6e:	61bb      	str	r3, [r7, #24]
 8000a70:	683b      	ldr	r3, [r7, #0]
 8000a72:	685b      	ldr	r3, [r3, #4]
 8000a74:	091b      	lsrs	r3, r3, #4
 8000a76:	f003 0201 	and.w	r2, r3, #1
 8000a7a:	69fb      	ldr	r3, [r7, #28]
 8000a7c:	fa02 f303 	lsl.w	r3, r2, r3
 8000a80:	69ba      	ldr	r2, [r7, #24]
 8000a82:	4313      	orrs	r3, r2
 8000a84:	61bb      	str	r3, [r7, #24]
 8000a86:	687b      	ldr	r3, [r7, #4]
 8000a88:	69ba      	ldr	r2, [r7, #24]
 8000a8a:	605a      	str	r2, [r3, #4]
 8000a8c:	687b      	ldr	r3, [r7, #4]
 8000a8e:	68db      	ldr	r3, [r3, #12]
 8000a90:	61bb      	str	r3, [r7, #24]
 8000a92:	69fb      	ldr	r3, [r7, #28]
 8000a94:	005b      	lsls	r3, r3, #1
 8000a96:	2203      	movs	r2, #3
 8000a98:	fa02 f303 	lsl.w	r3, r2, r3
 8000a9c:	43db      	mvns	r3, r3
 8000a9e:	69ba      	ldr	r2, [r7, #24]
 8000aa0:	4013      	ands	r3, r2
 8000aa2:	61bb      	str	r3, [r7, #24]
 8000aa4:	683b      	ldr	r3, [r7, #0]
 8000aa6:	689a      	ldr	r2, [r3, #8]
 8000aa8:	69fb      	ldr	r3, [r7, #28]
 8000aaa:	005b      	lsls	r3, r3, #1
 8000aac:	fa02 f303 	lsl.w	r3, r2, r3
 8000ab0:	69ba      	ldr	r2, [r7, #24]
 8000ab2:	4313      	orrs	r3, r2
 8000ab4:	61bb      	str	r3, [r7, #24]
 8000ab6:	687b      	ldr	r3, [r7, #4]
 8000ab8:	69ba      	ldr	r2, [r7, #24]
 8000aba:	60da      	str	r2, [r3, #12]
 8000abc:	683b      	ldr	r3, [r7, #0]
 8000abe:	685b      	ldr	r3, [r3, #4]
 8000ac0:	2b02      	cmp	r3, #2
 8000ac2:	d003      	beq.n	8000acc <HAL_GPIO_Init+0xfc>
 8000ac4:	683b      	ldr	r3, [r7, #0]
 8000ac6:	685b      	ldr	r3, [r3, #4]
 8000ac8:	2b12      	cmp	r3, #18
 8000aca:	d123      	bne.n	8000b14 <HAL_GPIO_Init+0x144>
 8000acc:	69fb      	ldr	r3, [r7, #28]
 8000ace:	08da      	lsrs	r2, r3, #3
 8000ad0:	687b      	ldr	r3, [r7, #4]
 8000ad2:	3208      	adds	r2, #8
 8000ad4:	f853 3022 	ldr.w	r3, [r3, r2, lsl #2]
 8000ad8:	61bb      	str	r3, [r7, #24]
 8000ada:	69fb      	ldr	r3, [r7, #28]
 8000adc:	f003 0307 	and.w	r3, r3, #7
 8000ae0:	009b      	lsls	r3, r3, #2
 8000ae2:	220f      	movs	r2, #15
 8000ae4:	fa02 f303 	lsl.w	r3, r2, r3
 8000ae8:	43db      	mvns	r3, r3
 8000aea:	69ba      	ldr	r2, [r7, #24]
 8000aec:	4013      	ands	r3, r2
 8000aee:	61bb      	str	r3, [r7, #24]
 8000af0:	683b      	ldr	r3, [r7, #0]
 8000af2:	691a      	ldr	r2, [r3, #16]
 8000af4:	69fb      	ldr	r3, [r7, #28]
 8000af6:	f003 0307 	and.w	r3, r3, #7
 8000afa:	009b      	lsls	r3, r3, #2
 8000afc:	fa02 f303 	lsl.w	r3, r2, r3
 8000b00:	69ba      	ldr	r2, [r7, #24]
 8000b02:	4313      	orrs	r3, r2
 8000b04:	61bb      	str	r3, [r7, #24]
 8000b06:	69fb      	ldr	r3, [r7, #28]
 8000b08:	08da      	lsrs	r2, r3, #3
 8000b0a:	687b      	ldr	r3, [r7, #4]
 8000b0c:	3208      	adds	r2, #8
 8000b0e:	69b9      	ldr	r1, [r7, #24]
 8000b10:	f843 1022 	str.w	r1, [r3, r2, lsl #2]
 8000b14:	687b      	ldr	r3, [r7, #4]
 8000b16:	681b      	ldr	r3, [r3, #0]
 8000b18:	61bb      	str	r3, [r7, #24]
 8000b1a:	69fb      	ldr	r3, [r7, #28]
 8000b1c:	005b      	lsls	r3, r3, #1
 8000b1e:	2203      	movs	r2, #3
 8000b20:	fa02 f303 	lsl.w	r3, r2, r3
 8000b24:	43db      	mvns	r3, r3
 8000b26:	69ba      	ldr	r2, [r7, #24]
 8000b28:	4013      	ands	r3, r2
 8000b2a:	61bb      	str	r3, [r7, #24]
 8000b2c:	683b      	ldr	r3, [r7, #0]
 8000b2e:	685b      	ldr	r3, [r3, #4]
 8000b30:	f003 0203 	and.w	r2, r3, #3
 8000b34:	69fb      	ldr	r3, [r7, #28]
 8000b36:	005b      	lsls	r3, r3, #1
 8000b38:	fa02 f303 	lsl.w	r3, r2, r3
 8000b3c:	69ba      	ldr	r2, [r7, #24]
 8000b3e:	4313      	orrs	r3, r2
 8000b40:	61bb      	str	r3, [r7, #24]
 8000b42:	687b      	ldr	r3, [r7, #4]
 8000b44:	69ba      	ldr	r2, [r7, #24]
 8000b46:	601a      	str	r2, [r3, #0]
 8000b48:	683b      	ldr	r3, [r7, #0]
 8000b4a:	685b      	ldr	r3, [r3, #4]
 8000b4c:	f003 5380 	and.w	r3, r3, #268435456	; 0x10000000
 8000b50:	2b00      	cmp	r3, #0
 8000b52:	f000 80b4 	beq.w	8000cbe <HAL_GPIO_Init+0x2ee>
 8000b56:	2300      	movs	r3, #0
 8000b58:	60fb      	str	r3, [r7, #12]
 8000b5a:	4b5f      	ldr	r3, [pc, #380]	; (8000cd8 <HAL_GPIO_Init+0x308>)
 8000b5c:	6c5b      	ldr	r3, [r3, #68]	; 0x44
 8000b5e:	4a5e      	ldr	r2, [pc, #376]	; (8000cd8 <HAL_GPIO_Init+0x308>)
 8000b60:	f443 4380 	orr.w	r3, r3, #16384	; 0x4000
 8000b64:	6453      	str	r3, [r2, #68]	; 0x44
 8000b66:	4b5c      	ldr	r3, [pc, #368]	; (8000cd8 <HAL_GPIO_Init+0x308>)
 8000b68:	6c5b      	ldr	r3, [r3, #68]	; 0x44
 8000b6a:	f403 4380 	and.w	r3, r3, #16384	; 0x4000
 8000b6e:	60fb      	str	r3, [r7, #12]
 8000b70:	68fb      	ldr	r3, [r7, #12]
 8000b72:	4a5a      	ldr	r2, [pc, #360]	; (8000cdc <HAL_GPIO_Init+0x30c>)
 8000b74:	69fb      	ldr	r3, [r7, #28]
 8000b76:	089b      	lsrs	r3, r3, #2
 8000b78:	3302      	adds	r3, #2
 8000b7a:	f852 3023 	ldr.w	r3, [r2, r3, lsl #2]
 8000b7e:	61bb      	str	r3, [r7, #24]
 8000b80:	69fb      	ldr	r3, [r7, #28]
 8000b82:	f003 0303 	and.w	r3, r3, #3
 8000b86:	009b      	lsls	r3, r3, #2
 8000b88:	220f      	movs	r2, #15
 8000b8a:	fa02 f303 	lsl.w	r3, r2, r3
 8000b8e:	43db      	mvns	r3, r3
 8000b90:	69ba      	ldr	r2, [r7, #24]
 8000b92:	4013      	ands	r3, r2
 8000b94:	61bb      	str	r3, [r7, #24]
 8000b96:	687b      	ldr	r3, [r7, #4]
 8000b98:	4a51      	ldr	r2, [pc, #324]	; (8000ce0 <HAL_GPIO_Init+0x310>)
 8000b9a:	4293      	cmp	r3, r2
 8000b9c:	d02b      	beq.n	8000bf6 <HAL_GPIO_Init+0x226>
 8000b9e:	687b      	ldr	r3, [r7, #4]
 8000ba0:	4a50      	ldr	r2, [pc, #320]	; (8000ce4 <HAL_GPIO_Init+0x314>)
 8000ba2:	4293      	cmp	r3, r2
 8000ba4:	d025      	beq.n	8000bf2 <HAL_GPIO_Init+0x222>
 8000ba6:	687b      	ldr	r3, [r7, #4]
 8000ba8:	4a4f      	ldr	r2, [pc, #316]	; (8000ce8 <HAL_GPIO_Init+0x318>)
 8000baa:	4293      	cmp	r3, r2
 8000bac:	d01f      	beq.n	8000bee <HAL_GPIO_Init+0x21e>
 8000bae:	687b      	ldr	r3, [r7, #4]
 8000bb0:	4a4e      	ldr	r2, [pc, #312]	; (8000cec <HAL_GPIO_Init+0x31c>)
 8000bb2:	4293      	cmp	r3, r2
 8000bb4:	d019      	beq.n	8000bea <HAL_GPIO_Init+0x21a>
 8000bb6:	687b      	ldr	r3, [r7, #4]
 8000bb8:	4a4d      	ldr	r2, [pc, #308]	; (8000cf0 <HAL_GPIO_Init+0x320>)
 8000bba:	4293      	cmp	r3, r2
 8000bbc:	d013      	beq.n	8000be6 <HAL_GPIO_Init+0x216>
 8000bbe:	687b      	ldr	r3, [r7, #4]
 8000bc0:	4a4c      	ldr	r2, [pc, #304]	; (8000cf4 <HAL_GPIO_Init+0x324>)
 8000bc2:	4293      	cmp	r3, r2
 8000bc4:	d00d      	beq.n	8000be2 <HAL_GPIO_Init+0x212>
 8000bc6:	687b      	ldr	r3, [r7, #4]
 8000bc8:	4a4b      	ldr	r2, [pc, #300]	; (8000cf8 <HAL_GPIO_Init+0x328>)
 8000bca:	4293      	cmp	r3, r2
 8000bcc:	d007      	beq.n	8000bde <HAL_GPIO_Init+0x20e>
 8000bce:	687b      	ldr	r3, [r7, #4]
 8000bd0:	4a4a      	ldr	r2, [pc, #296]	; (8000cfc <HAL_GPIO_Init+0x32c>)
 8000bd2:	4293      	cmp	r3, r2
 8000bd4:	d101      	bne.n	8000bda <HAL_GPIO_Init+0x20a>
 8000bd6:	2307      	movs	r3, #7
 8000bd8:	e00e      	b.n	8000bf8 <HAL_GPIO_Init+0x228>
 8000bda:	2308      	movs	r3, #8
 8000bdc:	e00c      	b.n	8000bf8 <HAL_GPIO_Init+0x228>
 8000bde:	2306      	movs	r3, #6
 8000be0:	e00a      	b.n	8000bf8 <HAL_GPIO_Init+0x228>
 8000be2:	2305      	movs	r3, #5
 8000be4:	e008      	b.n	8000bf8 <HAL_GPIO_Init+0x228>
 8000be6:	2304      	movs	r3, #4
 8000be8:	e006      	b.n	8000bf8 <HAL_GPIO_Init+0x228>
 8000bea:	2303      	movs	r3, #3
 8000bec:	e004      	b.n	8000bf8 <HAL_GPIO_Init+0x228>
 8000bee:	2302      	movs	r3, #2
 8000bf0:	e002      	b.n	8000bf8 <HAL_GPIO_Init+0x228>
 8000bf2:	2301      	movs	r3, #1
 8000bf4:	e000      	b.n	8000bf8 <HAL_GPIO_Init+0x228>
 8000bf6:	2300      	movs	r3, #0
 8000bf8:	69fa      	ldr	r2, [r7, #28]
 8000bfa:	f002 0203 	and.w	r2, r2, #3
 8000bfe:	0092      	lsls	r2, r2, #2
 8000c00:	4093      	lsls	r3, r2
 8000c02:	69ba      	ldr	r2, [r7, #24]
 8000c04:	4313      	orrs	r3, r2
 8000c06:	61bb      	str	r3, [r7, #24]
 8000c08:	4934      	ldr	r1, [pc, #208]	; (8000cdc <HAL_GPIO_Init+0x30c>)
 8000c0a:	69fb      	ldr	r3, [r7, #28]
 8000c0c:	089b      	lsrs	r3, r3, #2
 8000c0e:	3302      	adds	r3, #2
 8000c10:	69ba      	ldr	r2, [r7, #24]
 8000c12:	f841 2023 	str.w	r2, [r1, r3, lsl #2]
 8000c16:	4b3a      	ldr	r3, [pc, #232]	; (8000d00 <HAL_GPIO_Init+0x330>)
 8000c18:	681b      	ldr	r3, [r3, #0]
 8000c1a:	61bb      	str	r3, [r7, #24]
 8000c1c:	693b      	ldr	r3, [r7, #16]
 8000c1e:	43db      	mvns	r3, r3
 8000c20:	69ba      	ldr	r2, [r7, #24]
 8000c22:	4013      	ands	r3, r2
 8000c24:	61bb      	str	r3, [r7, #24]
 8000c26:	683b      	ldr	r3, [r7, #0]
 8000c28:	685b      	ldr	r3, [r3, #4]
 8000c2a:	f403 3380 	and.w	r3, r3, #65536	; 0x10000
 8000c2e:	2b00      	cmp	r3, #0
 8000c30:	d003      	beq.n	8000c3a <HAL_GPIO_Init+0x26a>
 8000c32:	69ba      	ldr	r2, [r7, #24]
 8000c34:	693b      	ldr	r3, [r7, #16]
 8000c36:	4313      	orrs	r3, r2
 8000c38:	61bb      	str	r3, [r7, #24]
 8000c3a:	4a31      	ldr	r2, [pc, #196]	; (8000d00 <HAL_GPIO_Init+0x330>)
 8000c3c:	69bb      	ldr	r3, [r7, #24]
 8000c3e:	6013      	str	r3, [r2, #0]
 8000c40:	4b2f      	ldr	r3, [pc, #188]	; (8000d00 <HAL_GPIO_Init+0x330>)
 8000c42:	685b      	ldr	r3, [r3, #4]
 8000c44:	61bb      	str	r3, [r7, #24]
 8000c46:	693b      	ldr	r3, [r7, #16]
 8000c48:	43db      	mvns	r3, r3
 8000c4a:	69ba      	ldr	r2, [r7, #24]
 8000c4c:	4013      	ands	r3, r2
 8000c4e:	61bb      	str	r3, [r7, #24]
 8000c50:	683b      	ldr	r3, [r7, #0]
 8000c52:	685b      	ldr	r3, [r3, #4]
 8000c54:	f403 3300 	and.w	r3, r3, #131072	; 0x20000
 8000c58:	2b00      	cmp	r3, #0
 8000c5a:	d003      	beq.n	8000c64 <HAL_GPIO_Init+0x294>
 8000c5c:	69ba      	ldr	r2, [r7, #24]
 8000c5e:	693b      	ldr	r3, [r7, #16]
 8000c60:	4313      	orrs	r3, r2
 8000c62:	61bb      	str	r3, [r7, #24]
 8000c64:	4a26      	ldr	r2, [pc, #152]	; (8000d00 <HAL_GPIO_Init+0x330>)
 8000c66:	69bb      	ldr	r3, [r7, #24]
 8000c68:	6053      	str	r3, [r2, #4]
 8000c6a:	4b25      	ldr	r3, [pc, #148]	; (8000d00 <HAL_GPIO_Init+0x330>)
 8000c6c:	689b      	ldr	r3, [r3, #8]
 8000c6e:	61bb      	str	r3, [r7, #24]
 8000c70:	693b      	ldr	r3, [r7, #16]
 8000c72:	43db      	mvns	r3, r3
 8000c74:	69ba      	ldr	r2, [r7, #24]
 8000c76:	4013      	ands	r3, r2
 8000c78:	61bb      	str	r3, [r7, #24]
 8000c7a:	683b      	ldr	r3, [r7, #0]
 8000c7c:	685b      	ldr	r3, [r3, #4]
 8000c7e:	f403 1380 	and.w	r3, r3, #1048576	; 0x100000
 8000c82:	2b00      	cmp	r3, #0
 8000c84:	d003      	beq.n	8000c8e <HAL_GPIO_Init+0x2be>
 8000c86:	69ba      	ldr	r2, [r7, #24]
 8000c88:	693b      	ldr	r3, [r7, #16]
 8000c8a:	4313      	orrs	r3, r2
 8000c8c:	61bb      	str	r3, [r7, #24]
 8000c8e:	4a1c      	ldr	r2, [pc, #112]	; (8000d00 <HAL_GPIO_Init+0x330>)
 8000c90:	69bb      	ldr	r3, [r7, #24]
 8000c92:	6093      	str	r3, [r2, #8]
 8000c94:	4b1a      	ldr	r3, [pc, #104]	; (8000d00 <HAL_GPIO_Init+0x330>)
 8000c96:	68db      	ldr	r3, [r3, #12]
 8000c98:	61bb      	str	r3, [r7, #24]
 8000c9a:	693b      	ldr	r3, [r7, #16]
 8000c9c:	43db      	mvns	r3, r3
 8000c9e:	69ba      	ldr	r2, [r7, #24]
 8000ca0:	4013      	ands	r3, r2
 8000ca2:	61bb      	str	r3, [r7, #24]
 8000ca4:	683b      	ldr	r3, [r7, #0]
 8000ca6:	685b      	ldr	r3, [r3, #4]
 8000ca8:	f403 1300 	and.w	r3, r3, #2097152	; 0x200000
 8000cac:	2b00      	cmp	r3, #0
 8000cae:	d003      	beq.n	8000cb8 <HAL_GPIO_Init+0x2e8>
 8000cb0:	69ba      	ldr	r2, [r7, #24]
 8000cb2:	693b      	ldr	r3, [r7, #16]
 8000cb4:	4313      	orrs	r3, r2
 8000cb6:	61bb      	str	r3, [r7, #24]
 8000cb8:	4a11      	ldr	r2, [pc, #68]	; (8000d00 <HAL_GPIO_Init+0x330>)
 8000cba:	69bb      	ldr	r3, [r7, #24]
 8000cbc:	60d3      	str	r3, [r2, #12]
 8000cbe:	69fb      	ldr	r3, [r7, #28]
 8000cc0:	3301      	adds	r3, #1
 8000cc2:	61fb      	str	r3, [r7, #28]
 8000cc4:	69fb      	ldr	r3, [r7, #28]
 8000cc6:	2b0f      	cmp	r3, #15
 8000cc8:	f67f ae90 	bls.w	80009ec <HAL_GPIO_Init+0x1c>
 8000ccc:	bf00      	nop
 8000cce:	3724      	adds	r7, #36	; 0x24
 8000cd0:	46bd      	mov	sp, r7
 8000cd2:	f85d 7b04 	ldr.w	r7, [sp], #4
 8000cd6:	4770      	bx	lr
 8000cd8:	40023800 	.word	0x40023800
 8000cdc:	40013800 	.word	0x40013800
 8000ce0:	40020000 	.word	0x40020000
 8000ce4:	40020400 	.word	0x40020400
 8000ce8:	40020800 	.word	0x40020800
 8000cec:	40020c00 	.word	0x40020c00
 8000cf0:	40021000 	.word	0x40021000
 8000cf4:	40021400 	.word	0x40021400
 8000cf8:	40021800 	.word	0x40021800
 8000cfc:	40021c00 	.word	0x40021c00
 8000d00:	40013c00 	.word	0x40013c00

08000d04 <HAL_GPIO_ReadPin>:
 8000d04:	b480      	push	{r7}
 8000d06:	b085      	sub	sp, #20
 8000d08:	af00      	add	r7, sp, #0
 8000d0a:	6078      	str	r0, [r7, #4]
 8000d0c:	460b      	mov	r3, r1
 8000d0e:	807b      	strh	r3, [r7, #2]
 8000d10:	687b      	ldr	r3, [r7, #4]
 8000d12:	691a      	ldr	r2, [r3, #16]
 8000d14:	887b      	ldrh	r3, [r7, #2]
 8000d16:	4013      	ands	r3, r2
 8000d18:	2b00      	cmp	r3, #0
 8000d1a:	d002      	beq.n	8000d22 <HAL_GPIO_ReadPin+0x1e>
 8000d1c:	2301      	movs	r3, #1
 8000d1e:	73fb      	strb	r3, [r7, #15]
 8000d20:	e001      	b.n	8000d26 <HAL_GPIO_ReadPin+0x22>
 8000d22:	2300      	movs	r3, #0
 8000d24:	73fb      	strb	r3, [r7, #15]
 8000d26:	7bfb      	ldrb	r3, [r7, #15]
 8000d28:	4618      	mov	r0, r3
 8000d2a:	3714      	adds	r7, #20
 8000d2c:	46bd      	mov	sp, r7
 8000d2e:	f85d 7b04 	ldr.w	r7, [sp], #4
 8000d32:	4770      	bx	lr

08000d34 <HAL_GPIO_WritePin>:
 8000d34:	b480      	push	{r7}
 8000d36:	b083      	sub	sp, #12
 8000d38:	af00      	add	r7, sp, #0
 8000d3a:	6078      	str	r0, [r7, #4]
 8000d3c:	460b      	mov	r3, r1
 8000d3e:	807b      	strh	r3, [r7, #2]
 8000d40:	4613      	mov	r3, r2
 8000d42:	707b      	strb	r3, [r7, #1]
 8000d44:	787b      	ldrb	r3, [r7, #1]
 8000d46:	2b00      	cmp	r3, #0
 8000d48:	d003      	beq.n	8000d52 <HAL_GPIO_WritePin+0x1e>
 8000d4a:	887a      	ldrh	r2, [r7, #2]
 8000d4c:	687b      	ldr	r3, [r7, #4]
 8000d4e:	619a      	str	r2, [r3, #24]
 8000d50:	e003      	b.n	8000d5a <HAL_GPIO_WritePin+0x26>
 8000d52:	887b      	ldrh	r3, [r7, #2]
 8000d54:	041a      	lsls	r2, r3, #16
 8000d56:	687b      	ldr	r3, [r7, #4]
 8000d58:	619a      	str	r2, [r3, #24]
 8000d5a:	bf00      	nop
 8000d5c:	370c      	adds	r7, #12
 8000d5e:	46bd      	mov	sp, r7
 8000d60:	f85d 7b04 	ldr.w	r7, [sp], #4
 8000d64:	4770      	bx	lr

08000d66 <HAL_GPIO_TogglePin>:
 8000d66:	b480      	push	{r7}
 8000d68:	b083      	sub	sp, #12
 8000d6a:	af00      	add	r7, sp, #0
 8000d6c:	6078      	str	r0, [r7, #4]
 8000d6e:	460b      	mov	r3, r1
 8000d70:	807b      	strh	r3, [r7, #2]
 8000d72:	687b      	ldr	r3, [r7, #4]
 8000d74:	695a      	ldr	r2, [r3, #20]
 8000d76:	887b      	ldrh	r3, [r7, #2]
 8000d78:	401a      	ands	r2, r3
 8000d7a:	887b      	ldrh	r3, [r7, #2]
 8000d7c:	429a      	cmp	r2, r3
 8000d7e:	d104      	bne.n	8000d8a <HAL_GPIO_TogglePin+0x24>
 8000d80:	887b      	ldrh	r3, [r7, #2]
 8000d82:	041a      	lsls	r2, r3, #16
 8000d84:	687b      	ldr	r3, [r7, #4]
 8000d86:	619a      	str	r2, [r3, #24]
 8000d88:	e002      	b.n	8000d90 <HAL_GPIO_TogglePin+0x2a>
 8000d8a:	887a      	ldrh	r2, [r7, #2]
 8000d8c:	687b      	ldr	r3, [r7, #4]
 8000d8e:	619a      	str	r2, [r3, #24]
 8000d90:	bf00      	nop
 8000d92:	370c      	adds	r7, #12
 8000d94:	46bd      	mov	sp, r7
 8000d96:	f85d 7b04 	ldr.w	r7, [sp], #4
 8000d9a:	4770      	bx	lr

08000d9c <HAL_RCC_OscConfig>:
 8000d9c:	b580      	push	{r7, lr}
 8000d9e:	b086      	sub	sp, #24
 8000da0:	af00      	add	r7, sp, #0
 8000da2:	6078      	str	r0, [r7, #4]
 8000da4:	687b      	ldr	r3, [r7, #4]
 8000da6:	2b00      	cmp	r3, #0
 8000da8:	d101      	bne.n	8000dae <HAL_RCC_OscConfig+0x12>
 8000daa:	2301      	movs	r3, #1
 8000dac:	e25b      	b.n	8001266 <HAL_RCC_OscConfig+0x4ca>
 8000dae:	687b      	ldr	r3, [r7, #4]
 8000db0:	681b      	ldr	r3, [r3, #0]
 8000db2:	f003 0301 	and.w	r3, r3, #1
 8000db6:	2b00      	cmp	r3, #0
 8000db8:	d075      	beq.n	8000ea6 <HAL_RCC_OscConfig+0x10a>
 8000dba:	4ba3      	ldr	r3, [pc, #652]	; (8001048 <HAL_RCC_OscConfig+0x2ac>)
 8000dbc:	689b      	ldr	r3, [r3, #8]
 8000dbe:	f003 030c 	and.w	r3, r3, #12
 8000dc2:	2b04      	cmp	r3, #4
 8000dc4:	d00c      	beq.n	8000de0 <HAL_RCC_OscConfig+0x44>
 8000dc6:	4ba0      	ldr	r3, [pc, #640]	; (8001048 <HAL_RCC_OscConfig+0x2ac>)
 8000dc8:	689b      	ldr	r3, [r3, #8]
 8000dca:	f003 030c 	and.w	r3, r3, #12
 8000dce:	2b08      	cmp	r3, #8
 8000dd0:	d112      	bne.n	8000df8 <HAL_RCC_OscConfig+0x5c>
 8000dd2:	4b9d      	ldr	r3, [pc, #628]	; (8001048 <HAL_RCC_OscConfig+0x2ac>)
 8000dd4:	685b      	ldr	r3, [r3, #4]
 8000dd6:	f403 0380 	and.w	r3, r3, #4194304	; 0x400000
 8000dda:	f5b3 0f80 	cmp.w	r3, #4194304	; 0x400000
 8000dde:	d10b      	bne.n	8000df8 <HAL_RCC_OscConfig+0x5c>
 8000de0:	4b99      	ldr	r3, [pc, #612]	; (8001048 <HAL_RCC_OscConfig+0x2ac>)
 8000de2:	681b      	ldr	r3, [r3, #0]
 8000de4:	f403 3300 	and.w	r3, r3, #131072	; 0x20000
 8000de8:	2b00      	cmp	r3, #0
 8000dea:	d05b      	beq.n	8000ea4 <HAL_RCC_OscConfig+0x108>
 8000dec:	687b      	ldr	r3, [r7, #4]
 8000dee:	685b      	ldr	r3, [r3, #4]
 8000df0:	2b00      	cmp	r3, #0
 8000df2:	d157      	bne.n	8000ea4 <HAL_RCC_OscConfig+0x108>
 8000df4:	2301      	movs	r3, #1
 8000df6:	e236      	b.n	8001266 <HAL_RCC_OscConfig+0x4ca>
 8000df8:	687b      	ldr	r3, [r7, #4]
 8000dfa:	685b      	ldr	r3, [r3, #4]
 8000dfc:	f5b3 3f80 	cmp.w	r3, #65536	; 0x10000
 8000e00:	d106      	bne.n	8000e10 <HAL_RCC_OscConfig+0x74>
 8000e02:	4b91      	ldr	r3, [pc, #580]	; (8001048 <HAL_RCC_OscConfig+0x2ac>)
 8000e04:	681b      	ldr	r3, [r3, #0]
 8000e06:	4a90      	ldr	r2, [pc, #576]	; (8001048 <HAL_RCC_OscConfig+0x2ac>)
 8000e08:	f443 3380 	orr.w	r3, r3, #65536	; 0x10000
 8000e0c:	6013      	str	r3, [r2, #0]
 8000e0e:	e01d      	b.n	8000e4c <HAL_RCC_OscConfig+0xb0>
 8000e10:	687b      	ldr	r3, [r7, #4]
 8000e12:	685b      	ldr	r3, [r3, #4]
 8000e14:	f5b3 2fa0 	cmp.w	r3, #327680	; 0x50000
 8000e18:	d10c      	bne.n	8000e34 <HAL_RCC_OscConfig+0x98>
 8000e1a:	4b8b      	ldr	r3, [pc, #556]	; (8001048 <HAL_RCC_OscConfig+0x2ac>)
 8000e1c:	681b      	ldr	r3, [r3, #0]
 8000e1e:	4a8a      	ldr	r2, [pc, #552]	; (8001048 <HAL_RCC_OscConfig+0x2ac>)
 8000e20:	f443 2380 	orr.w	r3, r3, #262144	; 0x40000
 8000e24:	6013      	str	r3, [r2, #0]
 8000e26:	4b88      	ldr	r3, [pc, #544]	; (8001048 <HAL_RCC_OscConfig+0x2ac>)
 8000e28:	681b      	ldr	r3, [r3, #0]
 8000e2a:	4a87      	ldr	r2, [pc, #540]	; (8001048 <HAL_RCC_OscConfig+0x2ac>)
 8000e2c:	f443 3380 	orr.w	r3, r3, #65536	; 0x10000
 8000e30:	6013      	str	r3, [r2, #0]
 8000e32:	e00b      	b.n	8000e4c <HAL_RCC_OscConfig+0xb0>
 8000e34:	4b84      	ldr	r3, [pc, #528]	; (8001048 <HAL_RCC_OscConfig+0x2ac>)
 8000e36:	681b      	ldr	r3, [r3, #0]
 8000e38:	4a83      	ldr	r2, [pc, #524]	; (8001048 <HAL_RCC_OscConfig+0x2ac>)
 8000e3a:	f423 3380 	bic.w	r3, r3, #65536	; 0x10000
 8000e3e:	6013      	str	r3, [r2, #0]
 8000e40:	4b81      	ldr	r3, [pc, #516]	; (8001048 <HAL_RCC_OscConfig+0x2ac>)
 8000e42:	681b      	ldr	r3, [r3, #0]
 8000e44:	4a80      	ldr	r2, [pc, #512]	; (8001048 <HAL_RCC_OscConfig+0x2ac>)
 8000e46:	f423 2380 	bic.w	r3, r3, #262144	; 0x40000
 8000e4a:	6013      	str	r3, [r2, #0]
 8000e4c:	687b      	ldr	r3, [r7, #4]
 8000e4e:	685b      	ldr	r3, [r3, #4]
 8000e50:	2b00      	cmp	r3, #0
 8000e52:	d013      	beq.n	8000e7c <HAL_RCC_OscConfig+0xe0>
 8000e54:	f7ff fcce 	bl	80007f4 <HAL_GetTick>
 8000e58:	6138      	str	r0, [r7, #16]
 8000e5a:	e008      	b.n	8000e6e <HAL_RCC_OscConfig+0xd2>
 8000e5c:	f7ff fcca 	bl	80007f4 <HAL_GetTick>
 8000e60:	4602      	mov	r2, r0
 8000e62:	693b      	ldr	r3, [r7, #16]
 8000e64:	1ad3      	subs	r3, r2, r3
 8000e66:	2b64      	cmp	r3, #100	; 0x64
 8000e68:	d901      	bls.n	8000e6e <HAL_RCC_OscConfig+0xd2>
 8000e6a:	2303      	movs	r3, #3
 8000e6c:	e1fb      	b.n	8001266 <HAL_RCC_OscConfig+0x4ca>
 8000e6e:	4b76      	ldr	r3, [pc, #472]	; (8001048 <HAL_RCC_OscConfig+0x2ac>)
 8000e70:	681b      	ldr	r3, [r3, #0]
 8000e72:	f403 3300 	and.w	r3, r3, #131072	; 0x20000
 8000e76:	2b00      	cmp	r3, #0
 8000e78:	d0f0      	beq.n	8000e5c <HAL_RCC_OscConfig+0xc0>
 8000e7a:	e014      	b.n	8000ea6 <HAL_RCC_OscConfig+0x10a>
 8000e7c:	f7ff fcba 	bl	80007f4 <HAL_GetTick>
 8000e80:	6138      	str	r0, [r7, #16]
 8000e82:	e008      	b.n	8000e96 <HAL_RCC_OscConfig+0xfa>
 8000e84:	f7ff fcb6 	bl	80007f4 <HAL_GetTick>
 8000e88:	4602      	mov	r2, r0
 8000e8a:	693b      	ldr	r3, [r7, #16]
 8000e8c:	1ad3      	subs	r3, r2, r3
 8000e8e:	2b64      	cmp	r3, #100	; 0x64
 8000e90:	d901      	bls.n	8000e96 <HAL_RCC_OscConfig+0xfa>
 8000e92:	2303      	movs	r3, #3
 8000e94:	e1e7      	b.n	8001266 <HAL_RCC_OscConfig+0x4ca>
 8000e96:	4b6c      	ldr	r3, [pc, #432]	; (8001048 <HAL_RCC_OscConfig+0x2ac>)
 8000e98:	681b      	ldr	r3, [r3, #0]
 8000e9a:	f403 3300 	and.w	r3, r3, #131072	; 0x20000
 8000e9e:	2b00      	cmp	r3, #0
 8000ea0:	d1f0      	bne.n	8000e84 <HAL_RCC_OscConfig+0xe8>
 8000ea2:	e000      	b.n	8000ea6 <HAL_RCC_OscConfig+0x10a>
 8000ea4:	bf00      	nop
 8000ea6:	687b      	ldr	r3, [r7, #4]
 8000ea8:	681b      	ldr	r3, [r3, #0]
 8000eaa:	f003 0302 	and.w	r3, r3, #2
 8000eae:	2b00      	cmp	r3, #0
 8000eb0:	d063      	beq.n	8000f7a <HAL_RCC_OscConfig+0x1de>
 8000eb2:	4b65      	ldr	r3, [pc, #404]	; (8001048 <HAL_RCC_OscConfig+0x2ac>)
 8000eb4:	689b      	ldr	r3, [r3, #8]
 8000eb6:	f003 030c 	and.w	r3, r3, #12
 8000eba:	2b00      	cmp	r3, #0
 8000ebc:	d00b      	beq.n	8000ed6 <HAL_RCC_OscConfig+0x13a>
 8000ebe:	4b62      	ldr	r3, [pc, #392]	; (8001048 <HAL_RCC_OscConfig+0x2ac>)
 8000ec0:	689b      	ldr	r3, [r3, #8]
 8000ec2:	f003 030c 	and.w	r3, r3, #12
 8000ec6:	2b08      	cmp	r3, #8
 8000ec8:	d11c      	bne.n	8000f04 <HAL_RCC_OscConfig+0x168>
 8000eca:	4b5f      	ldr	r3, [pc, #380]	; (8001048 <HAL_RCC_OscConfig+0x2ac>)
 8000ecc:	685b      	ldr	r3, [r3, #4]
 8000ece:	f403 0380 	and.w	r3, r3, #4194304	; 0x400000
 8000ed2:	2b00      	cmp	r3, #0
 8000ed4:	d116      	bne.n	8000f04 <HAL_RCC_OscConfig+0x168>
 8000ed6:	4b5c      	ldr	r3, [pc, #368]	; (8001048 <HAL_RCC_OscConfig+0x2ac>)
 8000ed8:	681b      	ldr	r3, [r3, #0]
 8000eda:	f003 0302 	and.w	r3, r3, #2
 8000ede:	2b00      	cmp	r3, #0
 8000ee0:	d005      	beq.n	8000eee <HAL_RCC_OscConfig+0x152>
 8000ee2:	687b      	ldr	r3, [r7, #4]
 8000ee4:	68db      	ldr	r3, [r3, #12]
 8000ee6:	2b01      	cmp	r3, #1
 8000ee8:	d001      	beq.n	8000eee <HAL_RCC_OscConfig+0x152>
 8000eea:	2301      	movs	r3, #1
 8000eec:	e1bb      	b.n	8001266 <HAL_RCC_OscConfig+0x4ca>
 8000eee:	4b56      	ldr	r3, [pc, #344]	; (8001048 <HAL_RCC_OscConfig+0x2ac>)
 8000ef0:	681b      	ldr	r3, [r3, #0]
 8000ef2:	f023 02f8 	bic.w	r2, r3, #248	; 0xf8
 8000ef6:	687b      	ldr	r3, [r7, #4]
 8000ef8:	691b      	ldr	r3, [r3, #16]
 8000efa:	00db      	lsls	r3, r3, #3
 8000efc:	4952      	ldr	r1, [pc, #328]	; (8001048 <HAL_RCC_OscConfig+0x2ac>)
 8000efe:	4313      	orrs	r3, r2
 8000f00:	600b      	str	r3, [r1, #0]
 8000f02:	e03a      	b.n	8000f7a <HAL_RCC_OscConfig+0x1de>
 8000f04:	687b      	ldr	r3, [r7, #4]
 8000f06:	68db      	ldr	r3, [r3, #12]
 8000f08:	2b00      	cmp	r3, #0
 8000f0a:	d020      	beq.n	8000f4e <HAL_RCC_OscConfig+0x1b2>
 8000f0c:	4b4f      	ldr	r3, [pc, #316]	; (800104c <HAL_RCC_OscConfig+0x2b0>)
 8000f0e:	2201      	movs	r2, #1
 8000f10:	601a      	str	r2, [r3, #0]
 8000f12:	f7ff fc6f 	bl	80007f4 <HAL_GetTick>
 8000f16:	6138      	str	r0, [r7, #16]
 8000f18:	e008      	b.n	8000f2c <HAL_RCC_OscConfig+0x190>
 8000f1a:	f7ff fc6b 	bl	80007f4 <HAL_GetTick>
 8000f1e:	4602      	mov	r2, r0
 8000f20:	693b      	ldr	r3, [r7, #16]
 8000f22:	1ad3      	subs	r3, r2, r3
 8000f24:	2b02      	cmp	r3, #2
 8000f26:	d901      	bls.n	8000f2c <HAL_RCC_OscConfig+0x190>
 8000f28:	2303      	movs	r3, #3
 8000f2a:	e19c      	b.n	8001266 <HAL_RCC_OscConfig+0x4ca>
 8000f2c:	4b46      	ldr	r3, [pc, #280]	; (8001048 <HAL_RCC_OscConfig+0x2ac>)
 8000f2e:	681b      	ldr	r3, [r3, #0]
 8000f30:	f003 0302 	and.w	r3, r3, #2
 8000f34:	2b00      	cmp	r3, #0
 8000f36:	d0f0      	beq.n	8000f1a <HAL_RCC_OscConfig+0x17e>
 8000f38:	4b43      	ldr	r3, [pc, #268]	; (8001048 <HAL_RCC_OscConfig+0x2ac>)
 8000f3a:	681b      	ldr	r3, [r3, #0]
 8000f3c:	f023 02f8 	bic.w	r2, r3, #248	; 0xf8
 8000f40:	687b      	ldr	r3, [r7, #4]
 8000f42:	691b      	ldr	r3, [r3, #16]
 8000f44:	00db      	lsls	r3, r3, #3
 8000f46:	4940      	ldr	r1, [pc, #256]	; (8001048 <HAL_RCC_OscConfig+0x2ac>)
 8000f48:	4313      	orrs	r3, r2
 8000f4a:	600b      	str	r3, [r1, #0]
 8000f4c:	e015      	b.n	8000f7a <HAL_RCC_OscConfig+0x1de>
 8000f4e:	4b3f      	ldr	r3, [pc, #252]	; (800104c <HAL_RCC_OscConfig+0x2b0>)
 8000f50:	2200      	movs	r2, #0
 8000f52:	601a      	str	r2, [r3, #0]
 8000f54:	f7ff fc4e 	bl	80007f4 <HAL_GetTick>
 8000f58:	6138      	str	r0, [r7, #16]
 8000f5a:	e008      	b.n	8000f6e <HAL_RCC_OscConfig+0x1d2>
 8000f5c:	f7ff fc4a 	bl	80007f4 <HAL_GetTick>
 8000f60:	4602      	mov	r2, r0
 8000f62:	693b      	ldr	r3, [r7, #16]
 8000f64:	1ad3      	subs	r3, r2, r3
 8000f66:	2b02      	cmp	r3, #2
 8000f68:	d901      	bls.n	8000f6e <HAL_RCC_OscConfig+0x1d2>
 8000f6a:	2303      	movs	r3, #3
 8000f6c:	e17b      	b.n	8001266 <HAL_RCC_OscConfig+0x4ca>
 8000f6e:	4b36      	ldr	r3, [pc, #216]	; (8001048 <HAL_RCC_OscConfig+0x2ac>)
 8000f70:	681b      	ldr	r3, [r3, #0]
 8000f72:	f003 0302 	and.w	r3, r3, #2
 8000f76:	2b00      	cmp	r3, #0
 8000f78:	d1f0      	bne.n	8000f5c <HAL_RCC_OscConfig+0x1c0>
 8000f7a:	687b      	ldr	r3, [r7, #4]
 8000f7c:	681b      	ldr	r3, [r3, #0]
 8000f7e:	f003 0308 	and.w	r3, r3, #8
 8000f82:	2b00      	cmp	r3, #0
 8000f84:	d030      	beq.n	8000fe8 <HAL_RCC_OscConfig+0x24c>
 8000f86:	687b      	ldr	r3, [r7, #4]
 8000f88:	695b      	ldr	r3, [r3, #20]
 8000f8a:	2b00      	cmp	r3, #0
 8000f8c:	d016      	beq.n	8000fbc <HAL_RCC_OscConfig+0x220>
 8000f8e:	4b30      	ldr	r3, [pc, #192]	; (8001050 <HAL_RCC_OscConfig+0x2b4>)
 8000f90:	2201      	movs	r2, #1
 8000f92:	601a      	str	r2, [r3, #0]
 8000f94:	f7ff fc2e 	bl	80007f4 <HAL_GetTick>
 8000f98:	6138      	str	r0, [r7, #16]
 8000f9a:	e008      	b.n	8000fae <HAL_RCC_OscConfig+0x212>
 8000f9c:	f7ff fc2a 	bl	80007f4 <HAL_GetTick>
 8000fa0:	4602      	mov	r2, r0
 8000fa2:	693b      	ldr	r3, [r7, #16]
 8000fa4:	1ad3      	subs	r3, r2, r3
 8000fa6:	2b02      	cmp	r3, #2
 8000fa8:	d901      	bls.n	8000fae <HAL_RCC_OscConfig+0x212>
 8000faa:	2303      	movs	r3, #3
 8000fac:	e15b      	b.n	8001266 <HAL_RCC_OscConfig+0x4ca>
 8000fae:	4b26      	ldr	r3, [pc, #152]	; (8001048 <HAL_RCC_OscConfig+0x2ac>)
 8000fb0:	6f5b      	ldr	r3, [r3, #116]	; 0x74
 8000fb2:	f003 0302 	and.w	r3, r3, #2
 8000fb6:	2b00      	cmp	r3, #0
 8000fb8:	d0f0      	beq.n	8000f9c <HAL_RCC_OscConfig+0x200>
 8000fba:	e015      	b.n	8000fe8 <HAL_RCC_OscConfig+0x24c>
 8000fbc:	4b24      	ldr	r3, [pc, #144]	; (8001050 <HAL_RCC_OscConfig+0x2b4>)
 8000fbe:	2200      	movs	r2, #0
 8000fc0:	601a      	str	r2, [r3, #0]
 8000fc2:	f7ff fc17 	bl	80007f4 <HAL_GetTick>
 8000fc6:	6138      	str	r0, [r7, #16]
 8000fc8:	e008      	b.n	8000fdc <HAL_RCC_OscConfig+0x240>
 8000fca:	f7ff fc13 	bl	80007f4 <HAL_GetTick>
 8000fce:	4602      	mov	r2, r0
 8000fd0:	693b      	ldr	r3, [r7, #16]
 8000fd2:	1ad3      	subs	r3, r2, r3
 8000fd4:	2b02      	cmp	r3, #2
 8000fd6:	d901      	bls.n	8000fdc <HAL_RCC_OscConfig+0x240>
 8000fd8:	2303      	movs	r3, #3
 8000fda:	e144      	b.n	8001266 <HAL_RCC_OscConfig+0x4ca>
 8000fdc:	4b1a      	ldr	r3, [pc, #104]	; (8001048 <HAL_RCC_OscConfig+0x2ac>)
 8000fde:	6f5b      	ldr	r3, [r3, #116]	; 0x74
 8000fe0:	f003 0302 	and.w	r3, r3, #2
 8000fe4:	2b00      	cmp	r3, #0
 8000fe6:	d1f0      	bne.n	8000fca <HAL_RCC_OscConfig+0x22e>
 8000fe8:	687b      	ldr	r3, [r7, #4]
 8000fea:	681b      	ldr	r3, [r3, #0]
 8000fec:	f003 0304 	and.w	r3, r3, #4
 8000ff0:	2b00      	cmp	r3, #0
 8000ff2:	f000 80a0 	beq.w	8001136 <HAL_RCC_OscConfig+0x39a>
 8000ff6:	2300      	movs	r3, #0
 8000ff8:	75fb      	strb	r3, [r7, #23]
 8000ffa:	4b13      	ldr	r3, [pc, #76]	; (8001048 <HAL_RCC_OscConfig+0x2ac>)
 8000ffc:	6c1b      	ldr	r3, [r3, #64]	; 0x40
 8000ffe:	f003 5380 	and.w	r3, r3, #268435456	; 0x10000000
 8001002:	2b00      	cmp	r3, #0
 8001004:	d10f      	bne.n	8001026 <HAL_RCC_OscConfig+0x28a>
 8001006:	2300      	movs	r3, #0
 8001008:	60bb      	str	r3, [r7, #8]
 800100a:	4b0f      	ldr	r3, [pc, #60]	; (8001048 <HAL_RCC_OscConfig+0x2ac>)
 800100c:	6c1b      	ldr	r3, [r3, #64]	; 0x40
 800100e:	4a0e      	ldr	r2, [pc, #56]	; (8001048 <HAL_RCC_OscConfig+0x2ac>)
 8001010:	f043 5380 	orr.w	r3, r3, #268435456	; 0x10000000
 8001014:	6413      	str	r3, [r2, #64]	; 0x40
 8001016:	4b0c      	ldr	r3, [pc, #48]	; (8001048 <HAL_RCC_OscConfig+0x2ac>)
 8001018:	6c1b      	ldr	r3, [r3, #64]	; 0x40
 800101a:	f003 5380 	and.w	r3, r3, #268435456	; 0x10000000
 800101e:	60bb      	str	r3, [r7, #8]
 8001020:	68bb      	ldr	r3, [r7, #8]
 8001022:	2301      	movs	r3, #1
 8001024:	75fb      	strb	r3, [r7, #23]
 8001026:	4b0b      	ldr	r3, [pc, #44]	; (8001054 <HAL_RCC_OscConfig+0x2b8>)
 8001028:	681b      	ldr	r3, [r3, #0]
 800102a:	f403 7380 	and.w	r3, r3, #256	; 0x100
 800102e:	2b00      	cmp	r3, #0
 8001030:	d121      	bne.n	8001076 <HAL_RCC_OscConfig+0x2da>
 8001032:	4b08      	ldr	r3, [pc, #32]	; (8001054 <HAL_RCC_OscConfig+0x2b8>)
 8001034:	681b      	ldr	r3, [r3, #0]
 8001036:	4a07      	ldr	r2, [pc, #28]	; (8001054 <HAL_RCC_OscConfig+0x2b8>)
 8001038:	f443 7380 	orr.w	r3, r3, #256	; 0x100
 800103c:	6013      	str	r3, [r2, #0]
 800103e:	f7ff fbd9 	bl	80007f4 <HAL_GetTick>
 8001042:	6138      	str	r0, [r7, #16]
 8001044:	e011      	b.n	800106a <HAL_RCC_OscConfig+0x2ce>
 8001046:	bf00      	nop
 8001048:	40023800 	.word	0x40023800
 800104c:	42470000 	.word	0x42470000
 8001050:	42470e80 	.word	0x42470e80
 8001054:	40007000 	.word	0x40007000
 8001058:	f7ff fbcc 	bl	80007f4 <HAL_GetTick>
 800105c:	4602      	mov	r2, r0
 800105e:	693b      	ldr	r3, [r7, #16]
 8001060:	1ad3      	subs	r3, r2, r3
 8001062:	2b02      	cmp	r3, #2
 8001064:	d901      	bls.n	800106a <HAL_RCC_OscConfig+0x2ce>
 8001066:	2303      	movs	r3, #3
 8001068:	e0fd      	b.n	8001266 <HAL_RCC_OscConfig+0x4ca>
 800106a:	4b81      	ldr	r3, [pc, #516]	; (8001270 <HAL_RCC_OscConfig+0x4d4>)
 800106c:	681b      	ldr	r3, [r3, #0]
 800106e:	f403 7380 	and.w	r3, r3, #256	; 0x100
 8001072:	2b00      	cmp	r3, #0
 8001074:	d0f0      	beq.n	8001058 <HAL_RCC_OscConfig+0x2bc>
 8001076:	687b      	ldr	r3, [r7, #4]
 8001078:	689b      	ldr	r3, [r3, #8]
 800107a:	2b01      	cmp	r3, #1
 800107c:	d106      	bne.n	800108c <HAL_RCC_OscConfig+0x2f0>
 800107e:	4b7d      	ldr	r3, [pc, #500]	; (8001274 <HAL_RCC_OscConfig+0x4d8>)
 8001080:	6f1b      	ldr	r3, [r3, #112]	; 0x70
 8001082:	4a7c      	ldr	r2, [pc, #496]	; (8001274 <HAL_RCC_OscConfig+0x4d8>)
 8001084:	f043 0301 	orr.w	r3, r3, #1
 8001088:	6713      	str	r3, [r2, #112]	; 0x70
 800108a:	e01c      	b.n	80010c6 <HAL_RCC_OscConfig+0x32a>
 800108c:	687b      	ldr	r3, [r7, #4]
 800108e:	689b      	ldr	r3, [r3, #8]
 8001090:	2b05      	cmp	r3, #5
 8001092:	d10c      	bne.n	80010ae <HAL_RCC_OscConfig+0x312>
 8001094:	4b77      	ldr	r3, [pc, #476]	; (8001274 <HAL_RCC_OscConfig+0x4d8>)
 8001096:	6f1b      	ldr	r3, [r3, #112]	; 0x70
 8001098:	4a76      	ldr	r2, [pc, #472]	; (8001274 <HAL_RCC_OscConfig+0x4d8>)
 800109a:	f043 0304 	orr.w	r3, r3, #4
 800109e:	6713      	str	r3, [r2, #112]	; 0x70
 80010a0:	4b74      	ldr	r3, [pc, #464]	; (8001274 <HAL_RCC_OscConfig+0x4d8>)
 80010a2:	6f1b      	ldr	r3, [r3, #112]	; 0x70
 80010a4:	4a73      	ldr	r2, [pc, #460]	; (8001274 <HAL_RCC_OscConfig+0x4d8>)
 80010a6:	f043 0301 	orr.w	r3, r3, #1
 80010aa:	6713      	str	r3, [r2, #112]	; 0x70
 80010ac:	e00b      	b.n	80010c6 <HAL_RCC_OscConfig+0x32a>
 80010ae:	4b71      	ldr	r3, [pc, #452]	; (8001274 <HAL_RCC_OscConfig+0x4d8>)
 80010b0:	6f1b      	ldr	r3, [r3, #112]	; 0x70
 80010b2:	4a70      	ldr	r2, [pc, #448]	; (8001274 <HAL_RCC_OscConfig+0x4d8>)
 80010b4:	f023 0301 	bic.w	r3, r3, #1
 80010b8:	6713      	str	r3, [r2, #112]	; 0x70
 80010ba:	4b6e      	ldr	r3, [pc, #440]	; (8001274 <HAL_RCC_OscConfig+0x4d8>)
 80010bc:	6f1b      	ldr	r3, [r3, #112]	; 0x70
 80010be:	4a6d      	ldr	r2, [pc, #436]	; (8001274 <HAL_RCC_OscConfig+0x4d8>)
 80010c0:	f023 0304 	bic.w	r3, r3, #4
 80010c4:	6713      	str	r3, [r2, #112]	; 0x70
 80010c6:	687b      	ldr	r3, [r7, #4]
 80010c8:	689b      	ldr	r3, [r3, #8]
 80010ca:	2b00      	cmp	r3, #0
 80010cc:	d015      	beq.n	80010fa <HAL_RCC_OscConfig+0x35e>
 80010ce:	f7ff fb91 	bl	80007f4 <HAL_GetTick>
 80010d2:	6138      	str	r0, [r7, #16]
 80010d4:	e00a      	b.n	80010ec <HAL_RCC_OscConfig+0x350>
 80010d6:	f7ff fb8d 	bl	80007f4 <HAL_GetTick>
 80010da:	4602      	mov	r2, r0
 80010dc:	693b      	ldr	r3, [r7, #16]
 80010de:	1ad3      	subs	r3, r2, r3
 80010e0:	f241 3288 	movw	r2, #5000	; 0x1388
 80010e4:	4293      	cmp	r3, r2
 80010e6:	d901      	bls.n	80010ec <HAL_RCC_OscConfig+0x350>
 80010e8:	2303      	movs	r3, #3
 80010ea:	e0bc      	b.n	8001266 <HAL_RCC_OscConfig+0x4ca>
 80010ec:	4b61      	ldr	r3, [pc, #388]	; (8001274 <HAL_RCC_OscConfig+0x4d8>)
 80010ee:	6f1b      	ldr	r3, [r3, #112]	; 0x70
 80010f0:	f003 0302 	and.w	r3, r3, #2
 80010f4:	2b00      	cmp	r3, #0
 80010f6:	d0ee      	beq.n	80010d6 <HAL_RCC_OscConfig+0x33a>
 80010f8:	e014      	b.n	8001124 <HAL_RCC_OscConfig+0x388>
 80010fa:	f7ff fb7b 	bl	80007f4 <HAL_GetTick>
 80010fe:	6138      	str	r0, [r7, #16]
 8001100:	e00a      	b.n	8001118 <HAL_RCC_OscConfig+0x37c>
 8001102:	f7ff fb77 	bl	80007f4 <HAL_GetTick>
 8001106:	4602      	mov	r2, r0
 8001108:	693b      	ldr	r3, [r7, #16]
 800110a:	1ad3      	subs	r3, r2, r3
 800110c:	f241 3288 	movw	r2, #5000	; 0x1388
 8001110:	4293      	cmp	r3, r2
 8001112:	d901      	bls.n	8001118 <HAL_RCC_OscConfig+0x37c>
 8001114:	2303      	movs	r3, #3
 8001116:	e0a6      	b.n	8001266 <HAL_RCC_OscConfig+0x4ca>
 8001118:	4b56      	ldr	r3, [pc, #344]	; (8001274 <HAL_RCC_OscConfig+0x4d8>)
 800111a:	6f1b      	ldr	r3, [r3, #112]	; 0x70
 800111c:	f003 0302 	and.w	r3, r3, #2
 8001120:	2b00      	cmp	r3, #0
 8001122:	d1ee      	bne.n	8001102 <HAL_RCC_OscConfig+0x366>
 8001124:	7dfb      	ldrb	r3, [r7, #23]
 8001126:	2b01      	cmp	r3, #1
 8001128:	d105      	bne.n	8001136 <HAL_RCC_OscConfig+0x39a>
 800112a:	4b52      	ldr	r3, [pc, #328]	; (8001274 <HAL_RCC_OscConfig+0x4d8>)
 800112c:	6c1b      	ldr	r3, [r3, #64]	; 0x40
 800112e:	4a51      	ldr	r2, [pc, #324]	; (8001274 <HAL_RCC_OscConfig+0x4d8>)
 8001130:	f023 5380 	bic.w	r3, r3, #268435456	; 0x10000000
 8001134:	6413      	str	r3, [r2, #64]	; 0x40
 8001136:	687b      	ldr	r3, [r7, #4]
 8001138:	699b      	ldr	r3, [r3, #24]
 800113a:	2b00      	cmp	r3, #0
 800113c:	f000 8092 	beq.w	8001264 <HAL_RCC_OscConfig+0x4c8>
 8001140:	4b4c      	ldr	r3, [pc, #304]	; (8001274 <HAL_RCC_OscConfig+0x4d8>)
 8001142:	689b      	ldr	r3, [r3, #8]
 8001144:	f003 030c 	and.w	r3, r3, #12
 8001148:	2b08      	cmp	r3, #8
 800114a:	d05c      	beq.n	8001206 <HAL_RCC_OscConfig+0x46a>
 800114c:	687b      	ldr	r3, [r7, #4]
 800114e:	699b      	ldr	r3, [r3, #24]
 8001150:	2b02      	cmp	r3, #2
 8001152:	d141      	bne.n	80011d8 <HAL_RCC_OscConfig+0x43c>
 8001154:	4b48      	ldr	r3, [pc, #288]	; (8001278 <HAL_RCC_OscConfig+0x4dc>)
 8001156:	2200      	movs	r2, #0
 8001158:	601a      	str	r2, [r3, #0]
 800115a:	f7ff fb4b 	bl	80007f4 <HAL_GetTick>
 800115e:	6138      	str	r0, [r7, #16]
 8001160:	e008      	b.n	8001174 <HAL_RCC_OscConfig+0x3d8>
 8001162:	f7ff fb47 	bl	80007f4 <HAL_GetTick>
 8001166:	4602      	mov	r2, r0
 8001168:	693b      	ldr	r3, [r7, #16]
 800116a:	1ad3      	subs	r3, r2, r3
 800116c:	2b02      	cmp	r3, #2
 800116e:	d901      	bls.n	8001174 <HAL_RCC_OscConfig+0x3d8>
 8001170:	2303      	movs	r3, #3
 8001172:	e078      	b.n	8001266 <HAL_RCC_OscConfig+0x4ca>
 8001174:	4b3f      	ldr	r3, [pc, #252]	; (8001274 <HAL_RCC_OscConfig+0x4d8>)
 8001176:	681b      	ldr	r3, [r3, #0]
 8001178:	f003 7300 	and.w	r3, r3, #33554432	; 0x2000000
 800117c:	2b00      	cmp	r3, #0
 800117e:	d1f0      	bne.n	8001162 <HAL_RCC_OscConfig+0x3c6>
 8001180:	687b      	ldr	r3, [r7, #4]
 8001182:	69da      	ldr	r2, [r3, #28]
 8001184:	687b      	ldr	r3, [r7, #4]
 8001186:	6a1b      	ldr	r3, [r3, #32]
 8001188:	431a      	orrs	r2, r3
 800118a:	687b      	ldr	r3, [r7, #4]
 800118c:	6a5b      	ldr	r3, [r3, #36]	; 0x24
 800118e:	019b      	lsls	r3, r3, #6
 8001190:	431a      	orrs	r2, r3
 8001192:	687b      	ldr	r3, [r7, #4]
 8001194:	6a9b      	ldr	r3, [r3, #40]	; 0x28
 8001196:	085b      	lsrs	r3, r3, #1
 8001198:	3b01      	subs	r3, #1
 800119a:	041b      	lsls	r3, r3, #16
 800119c:	431a      	orrs	r2, r3
 800119e:	687b      	ldr	r3, [r7, #4]
 80011a0:	6adb      	ldr	r3, [r3, #44]	; 0x2c
 80011a2:	061b      	lsls	r3, r3, #24
 80011a4:	4933      	ldr	r1, [pc, #204]	; (8001274 <HAL_RCC_OscConfig+0x4d8>)
 80011a6:	4313      	orrs	r3, r2
 80011a8:	604b      	str	r3, [r1, #4]
 80011aa:	4b33      	ldr	r3, [pc, #204]	; (8001278 <HAL_RCC_OscConfig+0x4dc>)
 80011ac:	2201      	movs	r2, #1
 80011ae:	601a      	str	r2, [r3, #0]
 80011b0:	f7ff fb20 	bl	80007f4 <HAL_GetTick>
 80011b4:	6138      	str	r0, [r7, #16]
 80011b6:	e008      	b.n	80011ca <HAL_RCC_OscConfig+0x42e>
 80011b8:	f7ff fb1c 	bl	80007f4 <HAL_GetTick>
 80011bc:	4602      	mov	r2, r0
 80011be:	693b      	ldr	r3, [r7, #16]
 80011c0:	1ad3      	subs	r3, r2, r3
 80011c2:	2b02      	cmp	r3, #2
 80011c4:	d901      	bls.n	80011ca <HAL_RCC_OscConfig+0x42e>
 80011c6:	2303      	movs	r3, #3
 80011c8:	e04d      	b.n	8001266 <HAL_RCC_OscConfig+0x4ca>
 80011ca:	4b2a      	ldr	r3, [pc, #168]	; (8001274 <HAL_RCC_OscConfig+0x4d8>)
 80011cc:	681b      	ldr	r3, [r3, #0]
 80011ce:	f003 7300 	and.w	r3, r3, #33554432	; 0x2000000
 80011d2:	2b00      	cmp	r3, #0
 80011d4:	d0f0      	beq.n	80011b8 <HAL_RCC_OscConfig+0x41c>
 80011d6:	e045      	b.n	8001264 <HAL_RCC_OscConfig+0x4c8>
 80011d8:	4b27      	ldr	r3, [pc, #156]	; (8001278 <HAL_RCC_OscConfig+0x4dc>)
 80011da:	2200      	movs	r2, #0
 80011dc:	601a      	str	r2, [r3, #0]
 80011de:	f7ff fb09 	bl	80007f4 <HAL_GetTick>
 80011e2:	6138      	str	r0, [r7, #16]
 80011e4:	e008      	b.n	80011f8 <HAL_RCC_OscConfig+0x45c>
 80011e6:	f7ff fb05 	bl	80007f4 <HAL_GetTick>
 80011ea:	4602      	mov	r2, r0
 80011ec:	693b      	ldr	r3, [r7, #16]
 80011ee:	1ad3      	subs	r3, r2, r3
 80011f0:	2b02      	cmp	r3, #2
 80011f2:	d901      	bls.n	80011f8 <HAL_RCC_OscConfig+0x45c>
 80011f4:	2303      	movs	r3, #3
 80011f6:	e036      	b.n	8001266 <HAL_RCC_OscConfig+0x4ca>
 80011f8:	4b1e      	ldr	r3, [pc, #120]	; (8001274 <HAL_RCC_OscConfig+0x4d8>)
 80011fa:	681b      	ldr	r3, [r3, #0]
 80011fc:	f003 7300 	and.w	r3, r3, #33554432	; 0x2000000
 8001200:	2b00      	cmp	r3, #0
 8001202:	d1f0      	bne.n	80011e6 <HAL_RCC_OscConfig+0x44a>
 8001204:	e02e      	b.n	8001264 <HAL_RCC_OscConfig+0x4c8>
 8001206:	687b      	ldr	r3, [r7, #4]
 8001208:	699b      	ldr	r3, [r3, #24]
 800120a:	2b01      	cmp	r3, #1
 800120c:	d101      	bne.n	8001212 <HAL_RCC_OscConfig+0x476>
 800120e:	2301      	movs	r3, #1
 8001210:	e029      	b.n	8001266 <HAL_RCC_OscConfig+0x4ca>
 8001212:	4b18      	ldr	r3, [pc, #96]	; (8001274 <HAL_RCC_OscConfig+0x4d8>)
 8001214:	689b      	ldr	r3, [r3, #8]
 8001216:	60fb      	str	r3, [r7, #12]
 8001218:	68fb      	ldr	r3, [r7, #12]
 800121a:	f403 0280 	and.w	r2, r3, #4194304	; 0x400000
 800121e:	687b      	ldr	r3, [r7, #4]
 8001220:	69db      	ldr	r3, [r3, #28]
 8001222:	429a      	cmp	r2, r3
 8001224:	d11c      	bne.n	8001260 <HAL_RCC_OscConfig+0x4c4>
 8001226:	68fb      	ldr	r3, [r7, #12]
 8001228:	f003 023f 	and.w	r2, r3, #63	; 0x3f
 800122c:	687b      	ldr	r3, [r7, #4]
 800122e:	6a1b      	ldr	r3, [r3, #32]
 8001230:	429a      	cmp	r2, r3
 8001232:	d115      	bne.n	8001260 <HAL_RCC_OscConfig+0x4c4>
 8001234:	68fa      	ldr	r2, [r7, #12]
 8001236:	f647 73c0 	movw	r3, #32704	; 0x7fc0
 800123a:	4013      	ands	r3, r2
 800123c:	687a      	ldr	r2, [r7, #4]
 800123e:	6a52      	ldr	r2, [r2, #36]	; 0x24
 8001240:	4293      	cmp	r3, r2
 8001242:	d10d      	bne.n	8001260 <HAL_RCC_OscConfig+0x4c4>
 8001244:	68fb      	ldr	r3, [r7, #12]
 8001246:	f403 3240 	and.w	r2, r3, #196608	; 0x30000
 800124a:	687b      	ldr	r3, [r7, #4]
 800124c:	6a9b      	ldr	r3, [r3, #40]	; 0x28
 800124e:	429a      	cmp	r2, r3
 8001250:	d106      	bne.n	8001260 <HAL_RCC_OscConfig+0x4c4>
 8001252:	68fb      	ldr	r3, [r7, #12]
 8001254:	f003 6270 	and.w	r2, r3, #251658240	; 0xf000000
 8001258:	687b      	ldr	r3, [r7, #4]
 800125a:	6adb      	ldr	r3, [r3, #44]	; 0x2c
 800125c:	429a      	cmp	r2, r3
 800125e:	d001      	beq.n	8001264 <HAL_RCC_OscConfig+0x4c8>
 8001260:	2301      	movs	r3, #1
 8001262:	e000      	b.n	8001266 <HAL_RCC_OscConfig+0x4ca>
 8001264:	2300      	movs	r3, #0
 8001266:	4618      	mov	r0, r3
 8001268:	3718      	adds	r7, #24
 800126a:	46bd      	mov	sp, r7
 800126c:	bd80      	pop	{r7, pc}
 800126e:	bf00      	nop
 8001270:	40007000 	.word	0x40007000
 8001274:	40023800 	.word	0x40023800
 8001278:	42470060 	.word	0x42470060

0800127c <HAL_RCC_ClockConfig>:
 800127c:	b580      	push	{r7, lr}
 800127e:	b084      	sub	sp, #16
 8001280:	af00      	add	r7, sp, #0
 8001282:	6078      	str	r0, [r7, #4]
 8001284:	6039      	str	r1, [r7, #0]
 8001286:	687b      	ldr	r3, [r7, #4]
 8001288:	2b00      	cmp	r3, #0
 800128a:	d101      	bne.n	8001290 <HAL_RCC_ClockConfig+0x14>
 800128c:	2301      	movs	r3, #1
 800128e:	e0cc      	b.n	800142a <HAL_RCC_ClockConfig+0x1ae>
 8001290:	4b68      	ldr	r3, [pc, #416]	; (8001434 <HAL_RCC_ClockConfig+0x1b8>)
 8001292:	681b      	ldr	r3, [r3, #0]
 8001294:	f003 030f 	and.w	r3, r3, #15
 8001298:	683a      	ldr	r2, [r7, #0]
 800129a:	429a      	cmp	r2, r3
 800129c:	d90c      	bls.n	80012b8 <HAL_RCC_ClockConfig+0x3c>
 800129e:	4b65      	ldr	r3, [pc, #404]	; (8001434 <HAL_RCC_ClockConfig+0x1b8>)
 80012a0:	683a      	ldr	r2, [r7, #0]
 80012a2:	b2d2      	uxtb	r2, r2
 80012a4:	701a      	strb	r2, [r3, #0]
 80012a6:	4b63      	ldr	r3, [pc, #396]	; (8001434 <HAL_RCC_ClockConfig+0x1b8>)
 80012a8:	681b      	ldr	r3, [r3, #0]
 80012aa:	f003 030f 	and.w	r3, r3, #15
 80012ae:	683a      	ldr	r2, [r7, #0]
 80012b0:	429a      	cmp	r2, r3
 80012b2:	d001      	beq.n	80012b8 <HAL_RCC_ClockConfig+0x3c>
 80012b4:	2301      	movs	r3, #1
 80012b6:	e0b8      	b.n	800142a <HAL_RCC_ClockConfig+0x1ae>
 80012b8:	687b      	ldr	r3, [r7, #4]
 80012ba:	681b      	ldr	r3, [r3, #0]
 80012bc:	f003 0302 	and.w	r3, r3, #2
 80012c0:	2b00      	cmp	r3, #0
 80012c2:	d020      	beq.n	8001306 <HAL_RCC_ClockConfig+0x8a>
 80012c4:	687b      	ldr	r3, [r7, #4]
 80012c6:	681b      	ldr	r3, [r3, #0]
 80012c8:	f003 0304 	and.w	r3, r3, #4
 80012cc:	2b00      	cmp	r3, #0
 80012ce:	d005      	beq.n	80012dc <HAL_RCC_ClockConfig+0x60>
 80012d0:	4b59      	ldr	r3, [pc, #356]	; (8001438 <HAL_RCC_ClockConfig+0x1bc>)
 80012d2:	689b      	ldr	r3, [r3, #8]
 80012d4:	4a58      	ldr	r2, [pc, #352]	; (8001438 <HAL_RCC_ClockConfig+0x1bc>)
 80012d6:	f443 53e0 	orr.w	r3, r3, #7168	; 0x1c00
 80012da:	6093      	str	r3, [r2, #8]
 80012dc:	687b      	ldr	r3, [r7, #4]
 80012de:	681b      	ldr	r3, [r3, #0]
 80012e0:	f003 0308 	and.w	r3, r3, #8
 80012e4:	2b00      	cmp	r3, #0
 80012e6:	d005      	beq.n	80012f4 <HAL_RCC_ClockConfig+0x78>
 80012e8:	4b53      	ldr	r3, [pc, #332]	; (8001438 <HAL_RCC_ClockConfig+0x1bc>)
 80012ea:	689b      	ldr	r3, [r3, #8]
 80012ec:	4a52      	ldr	r2, [pc, #328]	; (8001438 <HAL_RCC_ClockConfig+0x1bc>)
 80012ee:	f443 4360 	orr.w	r3, r3, #57344	; 0xe000
 80012f2:	6093      	str	r3, [r2, #8]
 80012f4:	4b50      	ldr	r3, [pc, #320]	; (8001438 <HAL_RCC_ClockConfig+0x1bc>)
 80012f6:	689b      	ldr	r3, [r3, #8]
 80012f8:	f023 02f0 	bic.w	r2, r3, #240	; 0xf0
 80012fc:	687b      	ldr	r3, [r7, #4]
 80012fe:	689b      	ldr	r3, [r3, #8]
 8001300:	494d      	ldr	r1, [pc, #308]	; (8001438 <HAL_RCC_ClockConfig+0x1bc>)
 8001302:	4313      	orrs	r3, r2
 8001304:	608b      	str	r3, [r1, #8]
 8001306:	687b      	ldr	r3, [r7, #4]
 8001308:	681b      	ldr	r3, [r3, #0]
 800130a:	f003 0301 	and.w	r3, r3, #1
 800130e:	2b00      	cmp	r3, #0
 8001310:	d044      	beq.n	800139c <HAL_RCC_ClockConfig+0x120>
 8001312:	687b      	ldr	r3, [r7, #4]
 8001314:	685b      	ldr	r3, [r3, #4]
 8001316:	2b01      	cmp	r3, #1
 8001318:	d107      	bne.n	800132a <HAL_RCC_ClockConfig+0xae>
 800131a:	4b47      	ldr	r3, [pc, #284]	; (8001438 <HAL_RCC_ClockConfig+0x1bc>)
 800131c:	681b      	ldr	r3, [r3, #0]
 800131e:	f403 3300 	and.w	r3, r3, #131072	; 0x20000
 8001322:	2b00      	cmp	r3, #0
 8001324:	d119      	bne.n	800135a <HAL_RCC_ClockConfig+0xde>
 8001326:	2301      	movs	r3, #1
 8001328:	e07f      	b.n	800142a <HAL_RCC_ClockConfig+0x1ae>
 800132a:	687b      	ldr	r3, [r7, #4]
 800132c:	685b      	ldr	r3, [r3, #4]
 800132e:	2b02      	cmp	r3, #2
 8001330:	d003      	beq.n	800133a <HAL_RCC_ClockConfig+0xbe>
 8001332:	687b      	ldr	r3, [r7, #4]
 8001334:	685b      	ldr	r3, [r3, #4]
 8001336:	2b03      	cmp	r3, #3
 8001338:	d107      	bne.n	800134a <HAL_RCC_ClockConfig+0xce>
 800133a:	4b3f      	ldr	r3, [pc, #252]	; (8001438 <HAL_RCC_ClockConfig+0x1bc>)
 800133c:	681b      	ldr	r3, [r3, #0]
 800133e:	f003 7300 	and.w	r3, r3, #33554432	; 0x2000000
 8001342:	2b00      	cmp	r3, #0
 8001344:	d109      	bne.n	800135a <HAL_RCC_ClockConfig+0xde>
 8001346:	2301      	movs	r3, #1
 8001348:	e06f      	b.n	800142a <HAL_RCC_ClockConfig+0x1ae>
 800134a:	4b3b      	ldr	r3, [pc, #236]	; (8001438 <HAL_RCC_ClockConfig+0x1bc>)
 800134c:	681b      	ldr	r3, [r3, #0]
 800134e:	f003 0302 	and.w	r3, r3, #2
 8001352:	2b00      	cmp	r3, #0
 8001354:	d101      	bne.n	800135a <HAL_RCC_ClockConfig+0xde>
 8001356:	2301      	movs	r3, #1
 8001358:	e067      	b.n	800142a <HAL_RCC_ClockConfig+0x1ae>
 800135a:	4b37      	ldr	r3, [pc, #220]	; (8001438 <HAL_RCC_ClockConfig+0x1bc>)
 800135c:	689b      	ldr	r3, [r3, #8]
 800135e:	f023 0203 	bic.w	r2, r3, #3
 8001362:	687b      	ldr	r3, [r7, #4]
 8001364:	685b      	ldr	r3, [r3, #4]
 8001366:	4934      	ldr	r1, [pc, #208]	; (8001438 <HAL_RCC_ClockConfig+0x1bc>)
 8001368:	4313      	orrs	r3, r2
 800136a:	608b      	str	r3, [r1, #8]
 800136c:	f7ff fa42 	bl	80007f4 <HAL_GetTick>
 8001370:	60f8      	str	r0, [r7, #12]
 8001372:	e00a      	b.n	800138a <HAL_RCC_ClockConfig+0x10e>
 8001374:	f7ff fa3e 	bl	80007f4 <HAL_GetTick>
 8001378:	4602      	mov	r2, r0
 800137a:	68fb      	ldr	r3, [r7, #12]
 800137c:	1ad3      	subs	r3, r2, r3
 800137e:	f241 3288 	movw	r2, #5000	; 0x1388
 8001382:	4293      	cmp	r3, r2
 8001384:	d901      	bls.n	800138a <HAL_RCC_ClockConfig+0x10e>
 8001386:	2303      	movs	r3, #3
 8001388:	e04f      	b.n	800142a <HAL_RCC_ClockConfig+0x1ae>
 800138a:	4b2b      	ldr	r3, [pc, #172]	; (8001438 <HAL_RCC_ClockConfig+0x1bc>)
 800138c:	689b      	ldr	r3, [r3, #8]
 800138e:	f003 020c 	and.w	r2, r3, #12
 8001392:	687b      	ldr	r3, [r7, #4]
 8001394:	685b      	ldr	r3, [r3, #4]
 8001396:	009b      	lsls	r3, r3, #2
 8001398:	429a      	cmp	r2, r3
 800139a:	d1eb      	bne.n	8001374 <HAL_RCC_ClockConfig+0xf8>
 800139c:	4b25      	ldr	r3, [pc, #148]	; (8001434 <HAL_RCC_ClockConfig+0x1b8>)
 800139e:	681b      	ldr	r3, [r3, #0]
 80013a0:	f003 030f 	and.w	r3, r3, #15
 80013a4:	683a      	ldr	r2, [r7, #0]
 80013a6:	429a      	cmp	r2, r3
 80013a8:	d20c      	bcs.n	80013c4 <HAL_RCC_ClockConfig+0x148>
 80013aa:	4b22      	ldr	r3, [pc, #136]	; (8001434 <HAL_RCC_ClockConfig+0x1b8>)
 80013ac:	683a      	ldr	r2, [r7, #0]
 80013ae:	b2d2      	uxtb	r2, r2
 80013b0:	701a      	strb	r2, [r3, #0]
 80013b2:	4b20      	ldr	r3, [pc, #128]	; (8001434 <HAL_RCC_ClockConfig+0x1b8>)
 80013b4:	681b      	ldr	r3, [r3, #0]
 80013b6:	f003 030f 	and.w	r3, r3, #15
 80013ba:	683a      	ldr	r2, [r7, #0]
 80013bc:	429a      	cmp	r2, r3
 80013be:	d001      	beq.n	80013c4 <HAL_RCC_ClockConfig+0x148>
 80013c0:	2301      	movs	r3, #1
 80013c2:	e032      	b.n	800142a <HAL_RCC_ClockConfig+0x1ae>
 80013c4:	687b      	ldr	r3, [r7, #4]
 80013c6:	681b      	ldr	r3, [r3, #0]
 80013c8:	f003 0304 	and.w	r3, r3, #4
 80013cc:	2b00      	cmp	r3, #0
 80013ce:	d008      	beq.n	80013e2 <HAL_RCC_ClockConfig+0x166>
 80013d0:	4b19      	ldr	r3, [pc, #100]	; (8001438 <HAL_RCC_ClockConfig+0x1bc>)
 80013d2:	689b      	ldr	r3, [r3, #8]
 80013d4:	f423 52e0 	bic.w	r2, r3, #7168	; 0x1c00
 80013d8:	687b      	ldr	r3, [r7, #4]
 80013da:	68db      	ldr	r3, [r3, #12]
 80013dc:	4916      	ldr	r1, [pc, #88]	; (8001438 <HAL_RCC_ClockConfig+0x1bc>)
 80013de:	4313      	orrs	r3, r2
 80013e0:	608b      	str	r3, [r1, #8]
 80013e2:	687b      	ldr	r3, [r7, #4]
 80013e4:	681b      	ldr	r3, [r3, #0]
 80013e6:	f003 0308 	and.w	r3, r3, #8
 80013ea:	2b00      	cmp	r3, #0
 80013ec:	d009      	beq.n	8001402 <HAL_RCC_ClockConfig+0x186>
 80013ee:	4b12      	ldr	r3, [pc, #72]	; (8001438 <HAL_RCC_ClockConfig+0x1bc>)
 80013f0:	689b      	ldr	r3, [r3, #8]
 80013f2:	f423 4260 	bic.w	r2, r3, #57344	; 0xe000
 80013f6:	687b      	ldr	r3, [r7, #4]
 80013f8:	691b      	ldr	r3, [r3, #16]
 80013fa:	00db      	lsls	r3, r3, #3
 80013fc:	490e      	ldr	r1, [pc, #56]	; (8001438 <HAL_RCC_ClockConfig+0x1bc>)
 80013fe:	4313      	orrs	r3, r2
 8001400:	608b      	str	r3, [r1, #8]
 8001402:	f000 f821 	bl	8001448 <HAL_RCC_GetSysClockFreq>
 8001406:	4601      	mov	r1, r0
 8001408:	4b0b      	ldr	r3, [pc, #44]	; (8001438 <HAL_RCC_ClockConfig+0x1bc>)
 800140a:	689b      	ldr	r3, [r3, #8]
 800140c:	091b      	lsrs	r3, r3, #4
 800140e:	f003 030f 	and.w	r3, r3, #15
 8001412:	4a0a      	ldr	r2, [pc, #40]	; (800143c <HAL_RCC_ClockConfig+0x1c0>)
 8001414:	5cd3      	ldrb	r3, [r2, r3]
 8001416:	fa21 f303 	lsr.w	r3, r1, r3
 800141a:	4a09      	ldr	r2, [pc, #36]	; (8001440 <HAL_RCC_ClockConfig+0x1c4>)
 800141c:	6013      	str	r3, [r2, #0]
 800141e:	4b09      	ldr	r3, [pc, #36]	; (8001444 <HAL_RCC_ClockConfig+0x1c8>)
 8001420:	681b      	ldr	r3, [r3, #0]
 8001422:	4618      	mov	r0, r3
 8001424:	f001 fc30 	bl	8002c88 <HAL_InitTick>
 8001428:	2300      	movs	r3, #0
 800142a:	4618      	mov	r0, r3
 800142c:	3710      	adds	r7, #16
 800142e:	46bd      	mov	sp, r7
 8001430:	bd80      	pop	{r7, pc}
 8001432:	bf00      	nop
 8001434:	40023c00 	.word	0x40023c00
 8001438:	40023800 	.word	0x40023800
 800143c:	0800740c 	.word	0x0800740c
 8001440:	20000008 	.word	0x20000008
 8001444:	20000000 	.word	0x20000000

08001448 <HAL_RCC_GetSysClockFreq>:
 8001448:	b5f0      	push	{r4, r5, r6, r7, lr}
 800144a:	b085      	sub	sp, #20
 800144c:	af00      	add	r7, sp, #0
 800144e:	2300      	movs	r3, #0
 8001450:	607b      	str	r3, [r7, #4]
 8001452:	2300      	movs	r3, #0
 8001454:	60fb      	str	r3, [r7, #12]
 8001456:	2300      	movs	r3, #0
 8001458:	603b      	str	r3, [r7, #0]
 800145a:	2300      	movs	r3, #0
 800145c:	60bb      	str	r3, [r7, #8]
 800145e:	4b63      	ldr	r3, [pc, #396]	; (80015ec <HAL_RCC_GetSysClockFreq+0x1a4>)
 8001460:	689b      	ldr	r3, [r3, #8]
 8001462:	f003 030c 	and.w	r3, r3, #12
 8001466:	2b04      	cmp	r3, #4
 8001468:	d007      	beq.n	800147a <HAL_RCC_GetSysClockFreq+0x32>
 800146a:	2b08      	cmp	r3, #8
 800146c:	d008      	beq.n	8001480 <HAL_RCC_GetSysClockFreq+0x38>
 800146e:	2b00      	cmp	r3, #0
 8001470:	f040 80b4 	bne.w	80015dc <HAL_RCC_GetSysClockFreq+0x194>
 8001474:	4b5e      	ldr	r3, [pc, #376]	; (80015f0 <HAL_RCC_GetSysClockFreq+0x1a8>)
 8001476:	60bb      	str	r3, [r7, #8]
 8001478:	e0b3      	b.n	80015e2 <HAL_RCC_GetSysClockFreq+0x19a>
 800147a:	4b5e      	ldr	r3, [pc, #376]	; (80015f4 <HAL_RCC_GetSysClockFreq+0x1ac>)
 800147c:	60bb      	str	r3, [r7, #8]
 800147e:	e0b0      	b.n	80015e2 <HAL_RCC_GetSysClockFreq+0x19a>
 8001480:	4b5a      	ldr	r3, [pc, #360]	; (80015ec <HAL_RCC_GetSysClockFreq+0x1a4>)
 8001482:	685b      	ldr	r3, [r3, #4]
 8001484:	f003 033f 	and.w	r3, r3, #63	; 0x3f
 8001488:	607b      	str	r3, [r7, #4]
 800148a:	4b58      	ldr	r3, [pc, #352]	; (80015ec <HAL_RCC_GetSysClockFreq+0x1a4>)
 800148c:	685b      	ldr	r3, [r3, #4]
 800148e:	f403 0380 	and.w	r3, r3, #4194304	; 0x400000
 8001492:	2b00      	cmp	r3, #0
 8001494:	d04a      	beq.n	800152c <HAL_RCC_GetSysClockFreq+0xe4>
 8001496:	4b55      	ldr	r3, [pc, #340]	; (80015ec <HAL_RCC_GetSysClockFreq+0x1a4>)
 8001498:	685b      	ldr	r3, [r3, #4]
 800149a:	099b      	lsrs	r3, r3, #6
 800149c:	f04f 0400 	mov.w	r4, #0
 80014a0:	f240 11ff 	movw	r1, #511	; 0x1ff
 80014a4:	f04f 0200 	mov.w	r2, #0
 80014a8:	ea03 0501 	and.w	r5, r3, r1
 80014ac:	ea04 0602 	and.w	r6, r4, r2
 80014b0:	4629      	mov	r1, r5
 80014b2:	4632      	mov	r2, r6
 80014b4:	f04f 0300 	mov.w	r3, #0
 80014b8:	f04f 0400 	mov.w	r4, #0
 80014bc:	0154      	lsls	r4, r2, #5
 80014be:	ea44 64d1 	orr.w	r4, r4, r1, lsr #27
 80014c2:	014b      	lsls	r3, r1, #5
 80014c4:	4619      	mov	r1, r3
 80014c6:	4622      	mov	r2, r4
 80014c8:	1b49      	subs	r1, r1, r5
 80014ca:	eb62 0206 	sbc.w	r2, r2, r6
 80014ce:	f04f 0300 	mov.w	r3, #0
 80014d2:	f04f 0400 	mov.w	r4, #0
 80014d6:	0194      	lsls	r4, r2, #6
 80014d8:	ea44 6491 	orr.w	r4, r4, r1, lsr #26
 80014dc:	018b      	lsls	r3, r1, #6
 80014de:	1a5b      	subs	r3, r3, r1
 80014e0:	eb64 0402 	sbc.w	r4, r4, r2
 80014e4:	f04f 0100 	mov.w	r1, #0
 80014e8:	f04f 0200 	mov.w	r2, #0
 80014ec:	00e2      	lsls	r2, r4, #3
 80014ee:	ea42 7253 	orr.w	r2, r2, r3, lsr #29
 80014f2:	00d9      	lsls	r1, r3, #3
 80014f4:	460b      	mov	r3, r1
 80014f6:	4614      	mov	r4, r2
 80014f8:	195b      	adds	r3, r3, r5
 80014fa:	eb44 0406 	adc.w	r4, r4, r6
 80014fe:	f04f 0100 	mov.w	r1, #0
 8001502:	f04f 0200 	mov.w	r2, #0
 8001506:	0262      	lsls	r2, r4, #9
 8001508:	ea42 52d3 	orr.w	r2, r2, r3, lsr #23
 800150c:	0259      	lsls	r1, r3, #9
 800150e:	460b      	mov	r3, r1
 8001510:	4614      	mov	r4, r2
 8001512:	4618      	mov	r0, r3
 8001514:	4621      	mov	r1, r4
 8001516:	687b      	ldr	r3, [r7, #4]
 8001518:	f04f 0400 	mov.w	r4, #0
 800151c:	461a      	mov	r2, r3
 800151e:	4623      	mov	r3, r4
 8001520:	f7fe fea0 	bl	8000264 <__aeabi_uldivmod>
 8001524:	4603      	mov	r3, r0
 8001526:	460c      	mov	r4, r1
 8001528:	60fb      	str	r3, [r7, #12]
 800152a:	e049      	b.n	80015c0 <HAL_RCC_GetSysClockFreq+0x178>
 800152c:	4b2f      	ldr	r3, [pc, #188]	; (80015ec <HAL_RCC_GetSysClockFreq+0x1a4>)
 800152e:	685b      	ldr	r3, [r3, #4]
 8001530:	099b      	lsrs	r3, r3, #6
 8001532:	f04f 0400 	mov.w	r4, #0
 8001536:	f240 11ff 	movw	r1, #511	; 0x1ff
 800153a:	f04f 0200 	mov.w	r2, #0
 800153e:	ea03 0501 	and.w	r5, r3, r1
 8001542:	ea04 0602 	and.w	r6, r4, r2
 8001546:	4629      	mov	r1, r5
 8001548:	4632      	mov	r2, r6
 800154a:	f04f 0300 	mov.w	r3, #0
 800154e:	f04f 0400 	mov.w	r4, #0
 8001552:	0154      	lsls	r4, r2, #5
 8001554:	ea44 64d1 	orr.w	r4, r4, r1, lsr #27
 8001558:	014b      	lsls	r3, r1, #5
 800155a:	4619      	mov	r1, r3
 800155c:	4622      	mov	r2, r4
 800155e:	1b49      	subs	r1, r1, r5
 8001560:	eb62 0206 	sbc.w	r2, r2, r6
 8001564:	f04f 0300 	mov.w	r3, #0
 8001568:	f04f 0400 	mov.w	r4, #0
 800156c:	0194      	lsls	r4, r2, #6
 800156e:	ea44 6491 	orr.w	r4, r4, r1, lsr #26
 8001572:	018b      	lsls	r3, r1, #6
 8001574:	1a5b      	subs	r3, r3, r1
 8001576:	eb64 0402 	sbc.w	r4, r4, r2
 800157a:	f04f 0100 	mov.w	r1, #0
 800157e:	f04f 0200 	mov.w	r2, #0
 8001582:	00e2      	lsls	r2, r4, #3
 8001584:	ea42 7253 	orr.w	r2, r2, r3, lsr #29
 8001588:	00d9      	lsls	r1, r3, #3
 800158a:	460b      	mov	r3, r1
 800158c:	4614      	mov	r4, r2
 800158e:	195b      	adds	r3, r3, r5
 8001590:	eb44 0406 	adc.w	r4, r4, r6
 8001594:	f04f 0100 	mov.w	r1, #0
 8001598:	f04f 0200 	mov.w	r2, #0
 800159c:	02a2      	lsls	r2, r4, #10
 800159e:	ea42 5293 	orr.w	r2, r2, r3, lsr #22
 80015a2:	0299      	lsls	r1, r3, #10
 80015a4:	460b      	mov	r3, r1
 80015a6:	4614      	mov	r4, r2
 80015a8:	4618      	mov	r0, r3
 80015aa:	4621      	mov	r1, r4
 80015ac:	687b      	ldr	r3, [r7, #4]
 80015ae:	f04f 0400 	mov.w	r4, #0
 80015b2:	461a      	mov	r2, r3
 80015b4:	4623      	mov	r3, r4
 80015b6:	f7fe fe55 	bl	8000264 <__aeabi_uldivmod>
 80015ba:	4603      	mov	r3, r0
 80015bc:	460c      	mov	r4, r1
 80015be:	60fb      	str	r3, [r7, #12]
 80015c0:	4b0a      	ldr	r3, [pc, #40]	; (80015ec <HAL_RCC_GetSysClockFreq+0x1a4>)
 80015c2:	685b      	ldr	r3, [r3, #4]
 80015c4:	0c1b      	lsrs	r3, r3, #16
 80015c6:	f003 0303 	and.w	r3, r3, #3
 80015ca:	3301      	adds	r3, #1
 80015cc:	005b      	lsls	r3, r3, #1
 80015ce:	603b      	str	r3, [r7, #0]
 80015d0:	68fa      	ldr	r2, [r7, #12]
 80015d2:	683b      	ldr	r3, [r7, #0]
 80015d4:	fbb2 f3f3 	udiv	r3, r2, r3
 80015d8:	60bb      	str	r3, [r7, #8]
 80015da:	e002      	b.n	80015e2 <HAL_RCC_GetSysClockFreq+0x19a>
 80015dc:	4b04      	ldr	r3, [pc, #16]	; (80015f0 <HAL_RCC_GetSysClockFreq+0x1a8>)
 80015de:	60bb      	str	r3, [r7, #8]
 80015e0:	bf00      	nop
 80015e2:	68bb      	ldr	r3, [r7, #8]
 80015e4:	4618      	mov	r0, r3
 80015e6:	3714      	adds	r7, #20
 80015e8:	46bd      	mov	sp, r7
 80015ea:	bdf0      	pop	{r4, r5, r6, r7, pc}
 80015ec:	40023800 	.word	0x40023800
 80015f0:	00f42400 	.word	0x00f42400
 80015f4:	007a1200 	.word	0x007a1200

080015f8 <HAL_RCC_GetHCLKFreq>:
 80015f8:	b480      	push	{r7}
 80015fa:	af00      	add	r7, sp, #0
 80015fc:	4b03      	ldr	r3, [pc, #12]	; (800160c <HAL_RCC_GetHCLKFreq+0x14>)
 80015fe:	681b      	ldr	r3, [r3, #0]
 8001600:	4618      	mov	r0, r3
 8001602:	46bd      	mov	sp, r7
 8001604:	f85d 7b04 	ldr.w	r7, [sp], #4
 8001608:	4770      	bx	lr
 800160a:	bf00      	nop
 800160c:	20000008 	.word	0x20000008

08001610 <HAL_RCC_GetPCLK1Freq>:
 8001610:	b580      	push	{r7, lr}
 8001612:	af00      	add	r7, sp, #0
 8001614:	f7ff fff0 	bl	80015f8 <HAL_RCC_GetHCLKFreq>
 8001618:	4601      	mov	r1, r0
 800161a:	4b05      	ldr	r3, [pc, #20]	; (8001630 <HAL_RCC_GetPCLK1Freq+0x20>)
 800161c:	689b      	ldr	r3, [r3, #8]
 800161e:	0a9b      	lsrs	r3, r3, #10
 8001620:	f003 0307 	and.w	r3, r3, #7
 8001624:	4a03      	ldr	r2, [pc, #12]	; (8001634 <HAL_RCC_GetPCLK1Freq+0x24>)
 8001626:	5cd3      	ldrb	r3, [r2, r3]
 8001628:	fa21 f303 	lsr.w	r3, r1, r3
 800162c:	4618      	mov	r0, r3
 800162e:	bd80      	pop	{r7, pc}
 8001630:	40023800 	.word	0x40023800
 8001634:	0800741c 	.word	0x0800741c

08001638 <HAL_RCC_GetClockConfig>:
 8001638:	b480      	push	{r7}
 800163a:	b083      	sub	sp, #12
 800163c:	af00      	add	r7, sp, #0
 800163e:	6078      	str	r0, [r7, #4]
 8001640:	6039      	str	r1, [r7, #0]
 8001642:	687b      	ldr	r3, [r7, #4]
 8001644:	220f      	movs	r2, #15
 8001646:	601a      	str	r2, [r3, #0]
 8001648:	4b12      	ldr	r3, [pc, #72]	; (8001694 <HAL_RCC_GetClockConfig+0x5c>)
 800164a:	689b      	ldr	r3, [r3, #8]
 800164c:	f003 0203 	and.w	r2, r3, #3
 8001650:	687b      	ldr	r3, [r7, #4]
 8001652:	605a      	str	r2, [r3, #4]
 8001654:	4b0f      	ldr	r3, [pc, #60]	; (8001694 <HAL_RCC_GetClockConfig+0x5c>)
 8001656:	689b      	ldr	r3, [r3, #8]
 8001658:	f003 02f0 	and.w	r2, r3, #240	; 0xf0
 800165c:	687b      	ldr	r3, [r7, #4]
 800165e:	609a      	str	r2, [r3, #8]
 8001660:	4b0c      	ldr	r3, [pc, #48]	; (8001694 <HAL_RCC_GetClockConfig+0x5c>)
 8001662:	689b      	ldr	r3, [r3, #8]
 8001664:	f403 52e0 	and.w	r2, r3, #7168	; 0x1c00
 8001668:	687b      	ldr	r3, [r7, #4]
 800166a:	60da      	str	r2, [r3, #12]
 800166c:	4b09      	ldr	r3, [pc, #36]	; (8001694 <HAL_RCC_GetClockConfig+0x5c>)
 800166e:	689b      	ldr	r3, [r3, #8]
 8001670:	08db      	lsrs	r3, r3, #3
 8001672:	f403 52e0 	and.w	r2, r3, #7168	; 0x1c00
 8001676:	687b      	ldr	r3, [r7, #4]
 8001678:	611a      	str	r2, [r3, #16]
 800167a:	4b07      	ldr	r3, [pc, #28]	; (8001698 <HAL_RCC_GetClockConfig+0x60>)
 800167c:	681b      	ldr	r3, [r3, #0]
 800167e:	f003 020f 	and.w	r2, r3, #15
 8001682:	683b      	ldr	r3, [r7, #0]
 8001684:	601a      	str	r2, [r3, #0]
 8001686:	bf00      	nop
 8001688:	370c      	adds	r7, #12
 800168a:	46bd      	mov	sp, r7
 800168c:	f85d 7b04 	ldr.w	r7, [sp], #4
 8001690:	4770      	bx	lr
 8001692:	bf00      	nop
 8001694:	40023800 	.word	0x40023800
 8001698:	40023c00 	.word	0x40023c00

0800169c <HAL_TIM_Base_Init>:
 800169c:	b580      	push	{r7, lr}
 800169e:	b082      	sub	sp, #8
 80016a0:	af00      	add	r7, sp, #0
 80016a2:	6078      	str	r0, [r7, #4]
 80016a4:	687b      	ldr	r3, [r7, #4]
 80016a6:	2b00      	cmp	r3, #0
 80016a8:	d101      	bne.n	80016ae <HAL_TIM_Base_Init+0x12>
 80016aa:	2301      	movs	r3, #1
 80016ac:	e01d      	b.n	80016ea <HAL_TIM_Base_Init+0x4e>
 80016ae:	687b      	ldr	r3, [r7, #4]
 80016b0:	f893 303d 	ldrb.w	r3, [r3, #61]	; 0x3d
 80016b4:	b2db      	uxtb	r3, r3
 80016b6:	2b00      	cmp	r3, #0
 80016b8:	d106      	bne.n	80016c8 <HAL_TIM_Base_Init+0x2c>
 80016ba:	687b      	ldr	r3, [r7, #4]
 80016bc:	2200      	movs	r2, #0
 80016be:	f883 203c 	strb.w	r2, [r3, #60]	; 0x3c
 80016c2:	6878      	ldr	r0, [r7, #4]
 80016c4:	f001 fa6e 	bl	8002ba4 <HAL_TIM_Base_MspInit>
 80016c8:	687b      	ldr	r3, [r7, #4]
 80016ca:	2202      	movs	r2, #2
 80016cc:	f883 203d 	strb.w	r2, [r3, #61]	; 0x3d
 80016d0:	687b      	ldr	r3, [r7, #4]
 80016d2:	681a      	ldr	r2, [r3, #0]
 80016d4:	687b      	ldr	r3, [r7, #4]
 80016d6:	3304      	adds	r3, #4
 80016d8:	4619      	mov	r1, r3
 80016da:	4610      	mov	r0, r2
 80016dc:	f000 fb4e 	bl	8001d7c <TIM_Base_SetConfig>
 80016e0:	687b      	ldr	r3, [r7, #4]
 80016e2:	2201      	movs	r2, #1
 80016e4:	f883 203d 	strb.w	r2, [r3, #61]	; 0x3d
 80016e8:	2300      	movs	r3, #0
 80016ea:	4618      	mov	r0, r3
 80016ec:	3708      	adds	r7, #8
 80016ee:	46bd      	mov	sp, r7
 80016f0:	bd80      	pop	{r7, pc}

080016f2 <HAL_TIM_Base_Start_IT>:
 80016f2:	b480      	push	{r7}
 80016f4:	b085      	sub	sp, #20
 80016f6:	af00      	add	r7, sp, #0
 80016f8:	6078      	str	r0, [r7, #4]
 80016fa:	687b      	ldr	r3, [r7, #4]
 80016fc:	681b      	ldr	r3, [r3, #0]
 80016fe:	68da      	ldr	r2, [r3, #12]
 8001700:	687b      	ldr	r3, [r7, #4]
 8001702:	681b      	ldr	r3, [r3, #0]
 8001704:	f042 0201 	orr.w	r2, r2, #1
 8001708:	60da      	str	r2, [r3, #12]
 800170a:	687b      	ldr	r3, [r7, #4]
 800170c:	681b      	ldr	r3, [r3, #0]
 800170e:	689b      	ldr	r3, [r3, #8]
 8001710:	f003 0307 	and.w	r3, r3, #7
 8001714:	60fb      	str	r3, [r7, #12]
 8001716:	68fb      	ldr	r3, [r7, #12]
 8001718:	2b06      	cmp	r3, #6
 800171a:	d007      	beq.n	800172c <HAL_TIM_Base_Start_IT+0x3a>
 800171c:	687b      	ldr	r3, [r7, #4]
 800171e:	681b      	ldr	r3, [r3, #0]
 8001720:	681a      	ldr	r2, [r3, #0]
 8001722:	687b      	ldr	r3, [r7, #4]
 8001724:	681b      	ldr	r3, [r3, #0]
 8001726:	f042 0201 	orr.w	r2, r2, #1
 800172a:	601a      	str	r2, [r3, #0]
 800172c:	2300      	movs	r3, #0
 800172e:	4618      	mov	r0, r3
 8001730:	3714      	adds	r7, #20
 8001732:	46bd      	mov	sp, r7
 8001734:	f85d 7b04 	ldr.w	r7, [sp], #4
 8001738:	4770      	bx	lr

0800173a <HAL_TIM_PWM_Init>:
 800173a:	b580      	push	{r7, lr}
 800173c:	b082      	sub	sp, #8
 800173e:	af00      	add	r7, sp, #0
 8001740:	6078      	str	r0, [r7, #4]
 8001742:	687b      	ldr	r3, [r7, #4]
 8001744:	2b00      	cmp	r3, #0
 8001746:	d101      	bne.n	800174c <HAL_TIM_PWM_Init+0x12>
 8001748:	2301      	movs	r3, #1
 800174a:	e01d      	b.n	8001788 <HAL_TIM_PWM_Init+0x4e>
 800174c:	687b      	ldr	r3, [r7, #4]
 800174e:	f893 303d 	ldrb.w	r3, [r3, #61]	; 0x3d
 8001752:	b2db      	uxtb	r3, r3
 8001754:	2b00      	cmp	r3, #0
 8001756:	d106      	bne.n	8001766 <HAL_TIM_PWM_Init+0x2c>
 8001758:	687b      	ldr	r3, [r7, #4]
 800175a:	2200      	movs	r2, #0
 800175c:	f883 203c 	strb.w	r2, [r3, #60]	; 0x3c
 8001760:	6878      	ldr	r0, [r7, #4]
 8001762:	f000 f815 	bl	8001790 <HAL_TIM_PWM_MspInit>
 8001766:	687b      	ldr	r3, [r7, #4]
 8001768:	2202      	movs	r2, #2
 800176a:	f883 203d 	strb.w	r2, [r3, #61]	; 0x3d
 800176e:	687b      	ldr	r3, [r7, #4]
 8001770:	681a      	ldr	r2, [r3, #0]
 8001772:	687b      	ldr	r3, [r7, #4]
 8001774:	3304      	adds	r3, #4
 8001776:	4619      	mov	r1, r3
 8001778:	4610      	mov	r0, r2
 800177a:	f000 faff 	bl	8001d7c <TIM_Base_SetConfig>
 800177e:	687b      	ldr	r3, [r7, #4]
 8001780:	2201      	movs	r2, #1
 8001782:	f883 203d 	strb.w	r2, [r3, #61]	; 0x3d
 8001786:	2300      	movs	r3, #0
 8001788:	4618      	mov	r0, r3
 800178a:	3708      	adds	r7, #8
 800178c:	46bd      	mov	sp, r7
 800178e:	bd80      	pop	{r7, pc}

08001790 <HAL_TIM_PWM_MspInit>:
 8001790:	b480      	push	{r7}
 8001792:	b083      	sub	sp, #12
 8001794:	af00      	add	r7, sp, #0
 8001796:	6078      	str	r0, [r7, #4]
 8001798:	bf00      	nop
 800179a:	370c      	adds	r7, #12
 800179c:	46bd      	mov	sp, r7
 800179e:	f85d 7b04 	ldr.w	r7, [sp], #4
 80017a2:	4770      	bx	lr

080017a4 <HAL_TIM_PWM_Start>:
 80017a4:	b580      	push	{r7, lr}
 80017a6:	b084      	sub	sp, #16
 80017a8:	af00      	add	r7, sp, #0
 80017aa:	6078      	str	r0, [r7, #4]
 80017ac:	6039      	str	r1, [r7, #0]
 80017ae:	687b      	ldr	r3, [r7, #4]
 80017b0:	681b      	ldr	r3, [r3, #0]
 80017b2:	2201      	movs	r2, #1
 80017b4:	6839      	ldr	r1, [r7, #0]
 80017b6:	4618      	mov	r0, r3
 80017b8:	f000 fdca 	bl	8002350 <TIM_CCxChannelCmd>
 80017bc:	687b      	ldr	r3, [r7, #4]
 80017be:	681b      	ldr	r3, [r3, #0]
 80017c0:	4a15      	ldr	r2, [pc, #84]	; (8001818 <HAL_TIM_PWM_Start+0x74>)
 80017c2:	4293      	cmp	r3, r2
 80017c4:	d004      	beq.n	80017d0 <HAL_TIM_PWM_Start+0x2c>
 80017c6:	687b      	ldr	r3, [r7, #4]
 80017c8:	681b      	ldr	r3, [r3, #0]
 80017ca:	4a14      	ldr	r2, [pc, #80]	; (800181c <HAL_TIM_PWM_Start+0x78>)
 80017cc:	4293      	cmp	r3, r2
 80017ce:	d101      	bne.n	80017d4 <HAL_TIM_PWM_Start+0x30>
 80017d0:	2301      	movs	r3, #1
 80017d2:	e000      	b.n	80017d6 <HAL_TIM_PWM_Start+0x32>
 80017d4:	2300      	movs	r3, #0
 80017d6:	2b00      	cmp	r3, #0
 80017d8:	d007      	beq.n	80017ea <HAL_TIM_PWM_Start+0x46>
 80017da:	687b      	ldr	r3, [r7, #4]
 80017dc:	681b      	ldr	r3, [r3, #0]
 80017de:	6c5a      	ldr	r2, [r3, #68]	; 0x44
 80017e0:	687b      	ldr	r3, [r7, #4]
 80017e2:	681b      	ldr	r3, [r3, #0]
 80017e4:	f442 4200 	orr.w	r2, r2, #32768	; 0x8000
 80017e8:	645a      	str	r2, [r3, #68]	; 0x44
 80017ea:	687b      	ldr	r3, [r7, #4]
 80017ec:	681b      	ldr	r3, [r3, #0]
 80017ee:	689b      	ldr	r3, [r3, #8]
 80017f0:	f003 0307 	and.w	r3, r3, #7
 80017f4:	60fb      	str	r3, [r7, #12]
 80017f6:	68fb      	ldr	r3, [r7, #12]
 80017f8:	2b06      	cmp	r3, #6
 80017fa:	d007      	beq.n	800180c <HAL_TIM_PWM_Start+0x68>
 80017fc:	687b      	ldr	r3, [r7, #4]
 80017fe:	681b      	ldr	r3, [r3, #0]
 8001800:	681a      	ldr	r2, [r3, #0]
 8001802:	687b      	ldr	r3, [r7, #4]
 8001804:	681b      	ldr	r3, [r3, #0]
 8001806:	f042 0201 	orr.w	r2, r2, #1
 800180a:	601a      	str	r2, [r3, #0]
 800180c:	2300      	movs	r3, #0
 800180e:	4618      	mov	r0, r3
 8001810:	3710      	adds	r7, #16
 8001812:	46bd      	mov	sp, r7
 8001814:	bd80      	pop	{r7, pc}
 8001816:	bf00      	nop
 8001818:	40010000 	.word	0x40010000
 800181c:	40010400 	.word	0x40010400

08001820 <HAL_TIM_IRQHandler>:
 8001820:	b580      	push	{r7, lr}
 8001822:	b082      	sub	sp, #8
 8001824:	af00      	add	r7, sp, #0
 8001826:	6078      	str	r0, [r7, #4]
 8001828:	687b      	ldr	r3, [r7, #4]
 800182a:	681b      	ldr	r3, [r3, #0]
 800182c:	691b      	ldr	r3, [r3, #16]
 800182e:	f003 0302 	and.w	r3, r3, #2
 8001832:	2b02      	cmp	r3, #2
 8001834:	d122      	bne.n	800187c <HAL_TIM_IRQHandler+0x5c>
 8001836:	687b      	ldr	r3, [r7, #4]
 8001838:	681b      	ldr	r3, [r3, #0]
 800183a:	68db      	ldr	r3, [r3, #12]
 800183c:	f003 0302 	and.w	r3, r3, #2
 8001840:	2b02      	cmp	r3, #2
 8001842:	d11b      	bne.n	800187c <HAL_TIM_IRQHandler+0x5c>
 8001844:	687b      	ldr	r3, [r7, #4]
 8001846:	681b      	ldr	r3, [r3, #0]
 8001848:	f06f 0202 	mvn.w	r2, #2
 800184c:	611a      	str	r2, [r3, #16]
 800184e:	687b      	ldr	r3, [r7, #4]
 8001850:	2201      	movs	r2, #1
 8001852:	771a      	strb	r2, [r3, #28]
 8001854:	687b      	ldr	r3, [r7, #4]
 8001856:	681b      	ldr	r3, [r3, #0]
 8001858:	699b      	ldr	r3, [r3, #24]
 800185a:	f003 0303 	and.w	r3, r3, #3
 800185e:	2b00      	cmp	r3, #0
 8001860:	d003      	beq.n	800186a <HAL_TIM_IRQHandler+0x4a>
 8001862:	6878      	ldr	r0, [r7, #4]
 8001864:	f000 fa6b 	bl	8001d3e <HAL_TIM_IC_CaptureCallback>
 8001868:	e005      	b.n	8001876 <HAL_TIM_IRQHandler+0x56>
 800186a:	6878      	ldr	r0, [r7, #4]
 800186c:	f000 fa5d 	bl	8001d2a <HAL_TIM_OC_DelayElapsedCallback>
 8001870:	6878      	ldr	r0, [r7, #4]
 8001872:	f000 fa6e 	bl	8001d52 <HAL_TIM_PWM_PulseFinishedCallback>
 8001876:	687b      	ldr	r3, [r7, #4]
 8001878:	2200      	movs	r2, #0
 800187a:	771a      	strb	r2, [r3, #28]
 800187c:	687b      	ldr	r3, [r7, #4]
 800187e:	681b      	ldr	r3, [r3, #0]
 8001880:	691b      	ldr	r3, [r3, #16]
 8001882:	f003 0304 	and.w	r3, r3, #4
 8001886:	2b04      	cmp	r3, #4
 8001888:	d122      	bne.n	80018d0 <HAL_TIM_IRQHandler+0xb0>
 800188a:	687b      	ldr	r3, [r7, #4]
 800188c:	681b      	ldr	r3, [r3, #0]
 800188e:	68db      	ldr	r3, [r3, #12]
 8001890:	f003 0304 	and.w	r3, r3, #4
 8001894:	2b04      	cmp	r3, #4
 8001896:	d11b      	bne.n	80018d0 <HAL_TIM_IRQHandler+0xb0>
 8001898:	687b      	ldr	r3, [r7, #4]
 800189a:	681b      	ldr	r3, [r3, #0]
 800189c:	f06f 0204 	mvn.w	r2, #4
 80018a0:	611a      	str	r2, [r3, #16]
 80018a2:	687b      	ldr	r3, [r7, #4]
 80018a4:	2202      	movs	r2, #2
 80018a6:	771a      	strb	r2, [r3, #28]
 80018a8:	687b      	ldr	r3, [r7, #4]
 80018aa:	681b      	ldr	r3, [r3, #0]
 80018ac:	699b      	ldr	r3, [r3, #24]
 80018ae:	f403 7340 	and.w	r3, r3, #768	; 0x300
 80018b2:	2b00      	cmp	r3, #0
 80018b4:	d003      	beq.n	80018be <HAL_TIM_IRQHandler+0x9e>
 80018b6:	6878      	ldr	r0, [r7, #4]
 80018b8:	f000 fa41 	bl	8001d3e <HAL_TIM_IC_CaptureCallback>
 80018bc:	e005      	b.n	80018ca <HAL_TIM_IRQHandler+0xaa>
 80018be:	6878      	ldr	r0, [r7, #4]
 80018c0:	f000 fa33 	bl	8001d2a <HAL_TIM_OC_DelayElapsedCallback>
 80018c4:	6878      	ldr	r0, [r7, #4]
 80018c6:	f000 fa44 	bl	8001d52 <HAL_TIM_PWM_PulseFinishedCallback>
 80018ca:	687b      	ldr	r3, [r7, #4]
 80018cc:	2200      	movs	r2, #0
 80018ce:	771a      	strb	r2, [r3, #28]
 80018d0:	687b      	ldr	r3, [r7, #4]
 80018d2:	681b      	ldr	r3, [r3, #0]
 80018d4:	691b      	ldr	r3, [r3, #16]
 80018d6:	f003 0308 	and.w	r3, r3, #8
 80018da:	2b08      	cmp	r3, #8
 80018dc:	d122      	bne.n	8001924 <HAL_TIM_IRQHandler+0x104>
 80018de:	687b      	ldr	r3, [r7, #4]
 80018e0:	681b      	ldr	r3, [r3, #0]
 80018e2:	68db      	ldr	r3, [r3, #12]
 80018e4:	f003 0308 	and.w	r3, r3, #8
 80018e8:	2b08      	cmp	r3, #8
 80018ea:	d11b      	bne.n	8001924 <HAL_TIM_IRQHandler+0x104>
 80018ec:	687b      	ldr	r3, [r7, #4]
 80018ee:	681b      	ldr	r3, [r3, #0]
 80018f0:	f06f 0208 	mvn.w	r2, #8
 80018f4:	611a      	str	r2, [r3, #16]
 80018f6:	687b      	ldr	r3, [r7, #4]
 80018f8:	2204      	movs	r2, #4
 80018fa:	771a      	strb	r2, [r3, #28]
 80018fc:	687b      	ldr	r3, [r7, #4]
 80018fe:	681b      	ldr	r3, [r3, #0]
 8001900:	69db      	ldr	r3, [r3, #28]
 8001902:	f003 0303 	and.w	r3, r3, #3
 8001906:	2b00      	cmp	r3, #0
 8001908:	d003      	beq.n	8001912 <HAL_TIM_IRQHandler+0xf2>
 800190a:	6878      	ldr	r0, [r7, #4]
 800190c:	f000 fa17 	bl	8001d3e <HAL_TIM_IC_CaptureCallback>
 8001910:	e005      	b.n	800191e <HAL_TIM_IRQHandler+0xfe>
 8001912:	6878      	ldr	r0, [r7, #4]
 8001914:	f000 fa09 	bl	8001d2a <HAL_TIM_OC_DelayElapsedCallback>
 8001918:	6878      	ldr	r0, [r7, #4]
 800191a:	f000 fa1a 	bl	8001d52 <HAL_TIM_PWM_PulseFinishedCallback>
 800191e:	687b      	ldr	r3, [r7, #4]
 8001920:	2200      	movs	r2, #0
 8001922:	771a      	strb	r2, [r3, #28]
 8001924:	687b      	ldr	r3, [r7, #4]
 8001926:	681b      	ldr	r3, [r3, #0]
 8001928:	691b      	ldr	r3, [r3, #16]
 800192a:	f003 0310 	and.w	r3, r3, #16
 800192e:	2b10      	cmp	r3, #16
 8001930:	d122      	bne.n	8001978 <HAL_TIM_IRQHandler+0x158>
 8001932:	687b      	ldr	r3, [r7, #4]
 8001934:	681b      	ldr	r3, [r3, #0]
 8001936:	68db      	ldr	r3, [r3, #12]
 8001938:	f003 0310 	and.w	r3, r3, #16
 800193c:	2b10      	cmp	r3, #16
 800193e:	d11b      	bne.n	8001978 <HAL_TIM_IRQHandler+0x158>
 8001940:	687b      	ldr	r3, [r7, #4]
 8001942:	681b      	ldr	r3, [r3, #0]
 8001944:	f06f 0210 	mvn.w	r2, #16
 8001948:	611a      	str	r2, [r3, #16]
 800194a:	687b      	ldr	r3, [r7, #4]
 800194c:	2208      	movs	r2, #8
 800194e:	771a      	strb	r2, [r3, #28]
 8001950:	687b      	ldr	r3, [r7, #4]
 8001952:	681b      	ldr	r3, [r3, #0]
 8001954:	69db      	ldr	r3, [r3, #28]
 8001956:	f403 7340 	and.w	r3, r3, #768	; 0x300
 800195a:	2b00      	cmp	r3, #0
 800195c:	d003      	beq.n	8001966 <HAL_TIM_IRQHandler+0x146>
 800195e:	6878      	ldr	r0, [r7, #4]
 8001960:	f000 f9ed 	bl	8001d3e <HAL_TIM_IC_CaptureCallback>
 8001964:	e005      	b.n	8001972 <HAL_TIM_IRQHandler+0x152>
 8001966:	6878      	ldr	r0, [r7, #4]
 8001968:	f000 f9df 	bl	8001d2a <HAL_TIM_OC_DelayElapsedCallback>
 800196c:	6878      	ldr	r0, [r7, #4]
 800196e:	f000 f9f0 	bl	8001d52 <HAL_TIM_PWM_PulseFinishedCallback>
 8001972:	687b      	ldr	r3, [r7, #4]
 8001974:	2200      	movs	r2, #0
 8001976:	771a      	strb	r2, [r3, #28]
 8001978:	687b      	ldr	r3, [r7, #4]
 800197a:	681b      	ldr	r3, [r3, #0]
 800197c:	691b      	ldr	r3, [r3, #16]
 800197e:	f003 0301 	and.w	r3, r3, #1
 8001982:	2b01      	cmp	r3, #1
 8001984:	d10e      	bne.n	80019a4 <HAL_TIM_IRQHandler+0x184>
 8001986:	687b      	ldr	r3, [r7, #4]
 8001988:	681b      	ldr	r3, [r3, #0]
 800198a:	68db      	ldr	r3, [r3, #12]
 800198c:	f003 0301 	and.w	r3, r3, #1
 8001990:	2b01      	cmp	r3, #1
 8001992:	d107      	bne.n	80019a4 <HAL_TIM_IRQHandler+0x184>
 8001994:	687b      	ldr	r3, [r7, #4]
 8001996:	681b      	ldr	r3, [r3, #0]
 8001998:	f06f 0201 	mvn.w	r2, #1
 800199c:	611a      	str	r2, [r3, #16]
 800199e:	6878      	ldr	r0, [r7, #4]
 80019a0:	f001 f8be 	bl	8002b20 <HAL_TIM_PeriodElapsedCallback>
 80019a4:	687b      	ldr	r3, [r7, #4]
 80019a6:	681b      	ldr	r3, [r3, #0]
 80019a8:	691b      	ldr	r3, [r3, #16]
 80019aa:	f003 0380 	and.w	r3, r3, #128	; 0x80
 80019ae:	2b80      	cmp	r3, #128	; 0x80
 80019b0:	d10e      	bne.n	80019d0 <HAL_TIM_IRQHandler+0x1b0>
 80019b2:	687b      	ldr	r3, [r7, #4]
 80019b4:	681b      	ldr	r3, [r3, #0]
 80019b6:	68db      	ldr	r3, [r3, #12]
 80019b8:	f003 0380 	and.w	r3, r3, #128	; 0x80
 80019bc:	2b80      	cmp	r3, #128	; 0x80
 80019be:	d107      	bne.n	80019d0 <HAL_TIM_IRQHandler+0x1b0>
 80019c0:	687b      	ldr	r3, [r7, #4]
 80019c2:	681b      	ldr	r3, [r3, #0]
 80019c4:	f06f 0280 	mvn.w	r2, #128	; 0x80
 80019c8:	611a      	str	r2, [r3, #16]
 80019ca:	6878      	ldr	r0, [r7, #4]
 80019cc:	f000 fd6c 	bl	80024a8 <HAL_TIMEx_BreakCallback>
 80019d0:	687b      	ldr	r3, [r7, #4]
 80019d2:	681b      	ldr	r3, [r3, #0]
 80019d4:	691b      	ldr	r3, [r3, #16]
 80019d6:	f003 0340 	and.w	r3, r3, #64	; 0x40
 80019da:	2b40      	cmp	r3, #64	; 0x40
 80019dc:	d10e      	bne.n	80019fc <HAL_TIM_IRQHandler+0x1dc>
 80019de:	687b      	ldr	r3, [r7, #4]
 80019e0:	681b      	ldr	r3, [r3, #0]
 80019e2:	68db      	ldr	r3, [r3, #12]
 80019e4:	f003 0340 	and.w	r3, r3, #64	; 0x40
 80019e8:	2b40      	cmp	r3, #64	; 0x40
 80019ea:	d107      	bne.n	80019fc <HAL_TIM_IRQHandler+0x1dc>
 80019ec:	687b      	ldr	r3, [r7, #4]
 80019ee:	681b      	ldr	r3, [r3, #0]
 80019f0:	f06f 0240 	mvn.w	r2, #64	; 0x40
 80019f4:	611a      	str	r2, [r3, #16]
 80019f6:	6878      	ldr	r0, [r7, #4]
 80019f8:	f000 f9b5 	bl	8001d66 <HAL_TIM_TriggerCallback>
 80019fc:	687b      	ldr	r3, [r7, #4]
 80019fe:	681b      	ldr	r3, [r3, #0]
 8001a00:	691b      	ldr	r3, [r3, #16]
 8001a02:	f003 0320 	and.w	r3, r3, #32
 8001a06:	2b20      	cmp	r3, #32
 8001a08:	d10e      	bne.n	8001a28 <HAL_TIM_IRQHandler+0x208>
 8001a0a:	687b      	ldr	r3, [r7, #4]
 8001a0c:	681b      	ldr	r3, [r3, #0]
 8001a0e:	68db      	ldr	r3, [r3, #12]
 8001a10:	f003 0320 	and.w	r3, r3, #32
 8001a14:	2b20      	cmp	r3, #32
 8001a16:	d107      	bne.n	8001a28 <HAL_TIM_IRQHandler+0x208>
 8001a18:	687b      	ldr	r3, [r7, #4]
 8001a1a:	681b      	ldr	r3, [r3, #0]
 8001a1c:	f06f 0220 	mvn.w	r2, #32
 8001a20:	611a      	str	r2, [r3, #16]
 8001a22:	6878      	ldr	r0, [r7, #4]
 8001a24:	f000 fd36 	bl	8002494 <HAL_TIMEx_CommutCallback>
 8001a28:	bf00      	nop
 8001a2a:	3708      	adds	r7, #8
 8001a2c:	46bd      	mov	sp, r7
 8001a2e:	bd80      	pop	{r7, pc}

08001a30 <HAL_TIM_PWM_ConfigChannel>:
 8001a30:	b580      	push	{r7, lr}
 8001a32:	b084      	sub	sp, #16
 8001a34:	af00      	add	r7, sp, #0
 8001a36:	60f8      	str	r0, [r7, #12]
 8001a38:	60b9      	str	r1, [r7, #8]
 8001a3a:	607a      	str	r2, [r7, #4]
 8001a3c:	68fb      	ldr	r3, [r7, #12]
 8001a3e:	f893 303c 	ldrb.w	r3, [r3, #60]	; 0x3c
 8001a42:	2b01      	cmp	r3, #1
 8001a44:	d101      	bne.n	8001a4a <HAL_TIM_PWM_ConfigChannel+0x1a>
 8001a46:	2302      	movs	r3, #2
 8001a48:	e0b4      	b.n	8001bb4 <HAL_TIM_PWM_ConfigChannel+0x184>
 8001a4a:	68fb      	ldr	r3, [r7, #12]
 8001a4c:	2201      	movs	r2, #1
 8001a4e:	f883 203c 	strb.w	r2, [r3, #60]	; 0x3c
 8001a52:	68fb      	ldr	r3, [r7, #12]
 8001a54:	2202      	movs	r2, #2
 8001a56:	f883 203d 	strb.w	r2, [r3, #61]	; 0x3d
 8001a5a:	687b      	ldr	r3, [r7, #4]
 8001a5c:	2b0c      	cmp	r3, #12
 8001a5e:	f200 809f 	bhi.w	8001ba0 <HAL_TIM_PWM_ConfigChannel+0x170>
 8001a62:	a201      	add	r2, pc, #4	; (adr r2, 8001a68 <HAL_TIM_PWM_ConfigChannel+0x38>)
 8001a64:	f852 f023 	ldr.w	pc, [r2, r3, lsl #2]
 8001a68:	08001a9d 	.word	0x08001a9d
 8001a6c:	08001ba1 	.word	0x08001ba1
 8001a70:	08001ba1 	.word	0x08001ba1
 8001a74:	08001ba1 	.word	0x08001ba1
 8001a78:	08001add 	.word	0x08001add
 8001a7c:	08001ba1 	.word	0x08001ba1
 8001a80:	08001ba1 	.word	0x08001ba1
 8001a84:	08001ba1 	.word	0x08001ba1
 8001a88:	08001b1f 	.word	0x08001b1f
 8001a8c:	08001ba1 	.word	0x08001ba1
 8001a90:	08001ba1 	.word	0x08001ba1
 8001a94:	08001ba1 	.word	0x08001ba1
 8001a98:	08001b5f 	.word	0x08001b5f
 8001a9c:	68fb      	ldr	r3, [r7, #12]
 8001a9e:	681b      	ldr	r3, [r3, #0]
 8001aa0:	68b9      	ldr	r1, [r7, #8]
 8001aa2:	4618      	mov	r0, r3
 8001aa4:	f000 fa0a 	bl	8001ebc <TIM_OC1_SetConfig>
 8001aa8:	68fb      	ldr	r3, [r7, #12]
 8001aaa:	681b      	ldr	r3, [r3, #0]
 8001aac:	699a      	ldr	r2, [r3, #24]
 8001aae:	68fb      	ldr	r3, [r7, #12]
 8001ab0:	681b      	ldr	r3, [r3, #0]
 8001ab2:	f042 0208 	orr.w	r2, r2, #8
 8001ab6:	619a      	str	r2, [r3, #24]
 8001ab8:	68fb      	ldr	r3, [r7, #12]
 8001aba:	681b      	ldr	r3, [r3, #0]
 8001abc:	699a      	ldr	r2, [r3, #24]
 8001abe:	68fb      	ldr	r3, [r7, #12]
 8001ac0:	681b      	ldr	r3, [r3, #0]
 8001ac2:	f022 0204 	bic.w	r2, r2, #4
 8001ac6:	619a      	str	r2, [r3, #24]
 8001ac8:	68fb      	ldr	r3, [r7, #12]
 8001aca:	681b      	ldr	r3, [r3, #0]
 8001acc:	6999      	ldr	r1, [r3, #24]
 8001ace:	68bb      	ldr	r3, [r7, #8]
 8001ad0:	691a      	ldr	r2, [r3, #16]
 8001ad2:	68fb      	ldr	r3, [r7, #12]
 8001ad4:	681b      	ldr	r3, [r3, #0]
 8001ad6:	430a      	orrs	r2, r1
 8001ad8:	619a      	str	r2, [r3, #24]
 8001ada:	e062      	b.n	8001ba2 <HAL_TIM_PWM_ConfigChannel+0x172>
 8001adc:	68fb      	ldr	r3, [r7, #12]
 8001ade:	681b      	ldr	r3, [r3, #0]
 8001ae0:	68b9      	ldr	r1, [r7, #8]
 8001ae2:	4618      	mov	r0, r3
 8001ae4:	f000 fa5a 	bl	8001f9c <TIM_OC2_SetConfig>
 8001ae8:	68fb      	ldr	r3, [r7, #12]
 8001aea:	681b      	ldr	r3, [r3, #0]
 8001aec:	699a      	ldr	r2, [r3, #24]
 8001aee:	68fb      	ldr	r3, [r7, #12]
 8001af0:	681b      	ldr	r3, [r3, #0]
 8001af2:	f442 6200 	orr.w	r2, r2, #2048	; 0x800
 8001af6:	619a      	str	r2, [r3, #24]
 8001af8:	68fb      	ldr	r3, [r7, #12]
 8001afa:	681b      	ldr	r3, [r3, #0]
 8001afc:	699a      	ldr	r2, [r3, #24]
 8001afe:	68fb      	ldr	r3, [r7, #12]
 8001b00:	681b      	ldr	r3, [r3, #0]
 8001b02:	f422 6280 	bic.w	r2, r2, #1024	; 0x400
 8001b06:	619a      	str	r2, [r3, #24]
 8001b08:	68fb      	ldr	r3, [r7, #12]
 8001b0a:	681b      	ldr	r3, [r3, #0]
 8001b0c:	6999      	ldr	r1, [r3, #24]
 8001b0e:	68bb      	ldr	r3, [r7, #8]
 8001b10:	691b      	ldr	r3, [r3, #16]
 8001b12:	021a      	lsls	r2, r3, #8
 8001b14:	68fb      	ldr	r3, [r7, #12]
 8001b16:	681b      	ldr	r3, [r3, #0]
 8001b18:	430a      	orrs	r2, r1
 8001b1a:	619a      	str	r2, [r3, #24]
 8001b1c:	e041      	b.n	8001ba2 <HAL_TIM_PWM_ConfigChannel+0x172>
 8001b1e:	68fb      	ldr	r3, [r7, #12]
 8001b20:	681b      	ldr	r3, [r3, #0]
 8001b22:	68b9      	ldr	r1, [r7, #8]
 8001b24:	4618      	mov	r0, r3
 8001b26:	f000 faaf 	bl	8002088 <TIM_OC3_SetConfig>
 8001b2a:	68fb      	ldr	r3, [r7, #12]
 8001b2c:	681b      	ldr	r3, [r3, #0]
 8001b2e:	69da      	ldr	r2, [r3, #28]
 8001b30:	68fb      	ldr	r3, [r7, #12]
 8001b32:	681b      	ldr	r3, [r3, #0]
 8001b34:	f042 0208 	orr.w	r2, r2, #8
 8001b38:	61da      	str	r2, [r3, #28]
 8001b3a:	68fb      	ldr	r3, [r7, #12]
 8001b3c:	681b      	ldr	r3, [r3, #0]
 8001b3e:	69da      	ldr	r2, [r3, #28]
 8001b40:	68fb      	ldr	r3, [r7, #12]
 8001b42:	681b      	ldr	r3, [r3, #0]
 8001b44:	f022 0204 	bic.w	r2, r2, #4
 8001b48:	61da      	str	r2, [r3, #28]
 8001b4a:	68fb      	ldr	r3, [r7, #12]
 8001b4c:	681b      	ldr	r3, [r3, #0]
 8001b4e:	69d9      	ldr	r1, [r3, #28]
 8001b50:	68bb      	ldr	r3, [r7, #8]
 8001b52:	691a      	ldr	r2, [r3, #16]
 8001b54:	68fb      	ldr	r3, [r7, #12]
 8001b56:	681b      	ldr	r3, [r3, #0]
 8001b58:	430a      	orrs	r2, r1
 8001b5a:	61da      	str	r2, [r3, #28]
 8001b5c:	e021      	b.n	8001ba2 <HAL_TIM_PWM_ConfigChannel+0x172>
 8001b5e:	68fb      	ldr	r3, [r7, #12]
 8001b60:	681b      	ldr	r3, [r3, #0]
 8001b62:	68b9      	ldr	r1, [r7, #8]
 8001b64:	4618      	mov	r0, r3
 8001b66:	f000 fb03 	bl	8002170 <TIM_OC4_SetConfig>
 8001b6a:	68fb      	ldr	r3, [r7, #12]
 8001b6c:	681b      	ldr	r3, [r3, #0]
 8001b6e:	69da      	ldr	r2, [r3, #28]
 8001b70:	68fb      	ldr	r3, [r7, #12]
 8001b72:	681b      	ldr	r3, [r3, #0]
 8001b74:	f442 6200 	orr.w	r2, r2, #2048	; 0x800
 8001b78:	61da      	str	r2, [r3, #28]
 8001b7a:	68fb      	ldr	r3, [r7, #12]
 8001b7c:	681b      	ldr	r3, [r3, #0]
 8001b7e:	69da      	ldr	r2, [r3, #28]
 8001b80:	68fb      	ldr	r3, [r7, #12]
 8001b82:	681b      	ldr	r3, [r3, #0]
 8001b84:	f422 6280 	bic.w	r2, r2, #1024	; 0x400
 8001b88:	61da      	str	r2, [r3, #28]
 8001b8a:	68fb      	ldr	r3, [r7, #12]
 8001b8c:	681b      	ldr	r3, [r3, #0]
 8001b8e:	69d9      	ldr	r1, [r3, #28]
 8001b90:	68bb      	ldr	r3, [r7, #8]
 8001b92:	691b      	ldr	r3, [r3, #16]
 8001b94:	021a      	lsls	r2, r3, #8
 8001b96:	68fb      	ldr	r3, [r7, #12]
 8001b98:	681b      	ldr	r3, [r3, #0]
 8001b9a:	430a      	orrs	r2, r1
 8001b9c:	61da      	str	r2, [r3, #28]
 8001b9e:	e000      	b.n	8001ba2 <HAL_TIM_PWM_ConfigChannel+0x172>
 8001ba0:	bf00      	nop
 8001ba2:	68fb      	ldr	r3, [r7, #12]
 8001ba4:	2201      	movs	r2, #1
 8001ba6:	f883 203d 	strb.w	r2, [r3, #61]	; 0x3d
 8001baa:	68fb      	ldr	r3, [r7, #12]
 8001bac:	2200      	movs	r2, #0
 8001bae:	f883 203c 	strb.w	r2, [r3, #60]	; 0x3c
 8001bb2:	2300      	movs	r3, #0
 8001bb4:	4618      	mov	r0, r3
 8001bb6:	3710      	adds	r7, #16
 8001bb8:	46bd      	mov	sp, r7
 8001bba:	bd80      	pop	{r7, pc}

08001bbc <HAL_TIM_ConfigClockSource>:
 8001bbc:	b580      	push	{r7, lr}
 8001bbe:	b084      	sub	sp, #16
 8001bc0:	af00      	add	r7, sp, #0
 8001bc2:	6078      	str	r0, [r7, #4]
 8001bc4:	6039      	str	r1, [r7, #0]
 8001bc6:	687b      	ldr	r3, [r7, #4]
 8001bc8:	f893 303c 	ldrb.w	r3, [r3, #60]	; 0x3c
 8001bcc:	2b01      	cmp	r3, #1
 8001bce:	d101      	bne.n	8001bd4 <HAL_TIM_ConfigClockSource+0x18>
 8001bd0:	2302      	movs	r3, #2
 8001bd2:	e0a6      	b.n	8001d22 <HAL_TIM_ConfigClockSource+0x166>
 8001bd4:	687b      	ldr	r3, [r7, #4]
 8001bd6:	2201      	movs	r2, #1
 8001bd8:	f883 203c 	strb.w	r2, [r3, #60]	; 0x3c
 8001bdc:	687b      	ldr	r3, [r7, #4]
 8001bde:	2202      	movs	r2, #2
 8001be0:	f883 203d 	strb.w	r2, [r3, #61]	; 0x3d
 8001be4:	687b      	ldr	r3, [r7, #4]
 8001be6:	681b      	ldr	r3, [r3, #0]
 8001be8:	689b      	ldr	r3, [r3, #8]
 8001bea:	60fb      	str	r3, [r7, #12]
 8001bec:	68fb      	ldr	r3, [r7, #12]
 8001bee:	f023 0377 	bic.w	r3, r3, #119	; 0x77
 8001bf2:	60fb      	str	r3, [r7, #12]
 8001bf4:	68fb      	ldr	r3, [r7, #12]
 8001bf6:	f423 437f 	bic.w	r3, r3, #65280	; 0xff00
 8001bfa:	60fb      	str	r3, [r7, #12]
 8001bfc:	687b      	ldr	r3, [r7, #4]
 8001bfe:	681b      	ldr	r3, [r3, #0]
 8001c00:	68fa      	ldr	r2, [r7, #12]
 8001c02:	609a      	str	r2, [r3, #8]
 8001c04:	683b      	ldr	r3, [r7, #0]
 8001c06:	681b      	ldr	r3, [r3, #0]
 8001c08:	2b40      	cmp	r3, #64	; 0x40
 8001c0a:	d067      	beq.n	8001cdc <HAL_TIM_ConfigClockSource+0x120>
 8001c0c:	2b40      	cmp	r3, #64	; 0x40
 8001c0e:	d80b      	bhi.n	8001c28 <HAL_TIM_ConfigClockSource+0x6c>
 8001c10:	2b10      	cmp	r3, #16
 8001c12:	d073      	beq.n	8001cfc <HAL_TIM_ConfigClockSource+0x140>
 8001c14:	2b10      	cmp	r3, #16
 8001c16:	d802      	bhi.n	8001c1e <HAL_TIM_ConfigClockSource+0x62>
 8001c18:	2b00      	cmp	r3, #0
 8001c1a:	d06f      	beq.n	8001cfc <HAL_TIM_ConfigClockSource+0x140>
 8001c1c:	e078      	b.n	8001d10 <HAL_TIM_ConfigClockSource+0x154>
 8001c1e:	2b20      	cmp	r3, #32
 8001c20:	d06c      	beq.n	8001cfc <HAL_TIM_ConfigClockSource+0x140>
 8001c22:	2b30      	cmp	r3, #48	; 0x30
 8001c24:	d06a      	beq.n	8001cfc <HAL_TIM_ConfigClockSource+0x140>
 8001c26:	e073      	b.n	8001d10 <HAL_TIM_ConfigClockSource+0x154>
 8001c28:	2b70      	cmp	r3, #112	; 0x70
 8001c2a:	d00d      	beq.n	8001c48 <HAL_TIM_ConfigClockSource+0x8c>
 8001c2c:	2b70      	cmp	r3, #112	; 0x70
 8001c2e:	d804      	bhi.n	8001c3a <HAL_TIM_ConfigClockSource+0x7e>
 8001c30:	2b50      	cmp	r3, #80	; 0x50
 8001c32:	d033      	beq.n	8001c9c <HAL_TIM_ConfigClockSource+0xe0>
 8001c34:	2b60      	cmp	r3, #96	; 0x60
 8001c36:	d041      	beq.n	8001cbc <HAL_TIM_ConfigClockSource+0x100>
 8001c38:	e06a      	b.n	8001d10 <HAL_TIM_ConfigClockSource+0x154>
 8001c3a:	f5b3 5f80 	cmp.w	r3, #4096	; 0x1000
 8001c3e:	d066      	beq.n	8001d0e <HAL_TIM_ConfigClockSource+0x152>
 8001c40:	f5b3 5f00 	cmp.w	r3, #8192	; 0x2000
 8001c44:	d017      	beq.n	8001c76 <HAL_TIM_ConfigClockSource+0xba>
 8001c46:	e063      	b.n	8001d10 <HAL_TIM_ConfigClockSource+0x154>
 8001c48:	687b      	ldr	r3, [r7, #4]
 8001c4a:	6818      	ldr	r0, [r3, #0]
 8001c4c:	683b      	ldr	r3, [r7, #0]
 8001c4e:	6899      	ldr	r1, [r3, #8]
 8001c50:	683b      	ldr	r3, [r7, #0]
 8001c52:	685a      	ldr	r2, [r3, #4]
 8001c54:	683b      	ldr	r3, [r7, #0]
 8001c56:	68db      	ldr	r3, [r3, #12]
 8001c58:	f000 fb5a 	bl	8002310 <TIM_ETR_SetConfig>
 8001c5c:	687b      	ldr	r3, [r7, #4]
 8001c5e:	681b      	ldr	r3, [r3, #0]
 8001c60:	689b      	ldr	r3, [r3, #8]
 8001c62:	60fb      	str	r3, [r7, #12]
 8001c64:	68fb      	ldr	r3, [r7, #12]
 8001c66:	f043 0377 	orr.w	r3, r3, #119	; 0x77
 8001c6a:	60fb      	str	r3, [r7, #12]
 8001c6c:	687b      	ldr	r3, [r7, #4]
 8001c6e:	681b      	ldr	r3, [r3, #0]
 8001c70:	68fa      	ldr	r2, [r7, #12]
 8001c72:	609a      	str	r2, [r3, #8]
 8001c74:	e04c      	b.n	8001d10 <HAL_TIM_ConfigClockSource+0x154>
 8001c76:	687b      	ldr	r3, [r7, #4]
 8001c78:	6818      	ldr	r0, [r3, #0]
 8001c7a:	683b      	ldr	r3, [r7, #0]
 8001c7c:	6899      	ldr	r1, [r3, #8]
 8001c7e:	683b      	ldr	r3, [r7, #0]
 8001c80:	685a      	ldr	r2, [r3, #4]
 8001c82:	683b      	ldr	r3, [r7, #0]
 8001c84:	68db      	ldr	r3, [r3, #12]
 8001c86:	f000 fb43 	bl	8002310 <TIM_ETR_SetConfig>
 8001c8a:	687b      	ldr	r3, [r7, #4]
 8001c8c:	681b      	ldr	r3, [r3, #0]
 8001c8e:	689a      	ldr	r2, [r3, #8]
 8001c90:	687b      	ldr	r3, [r7, #4]
 8001c92:	681b      	ldr	r3, [r3, #0]
 8001c94:	f442 4280 	orr.w	r2, r2, #16384	; 0x4000
 8001c98:	609a      	str	r2, [r3, #8]
 8001c9a:	e039      	b.n	8001d10 <HAL_TIM_ConfigClockSource+0x154>
 8001c9c:	687b      	ldr	r3, [r7, #4]
 8001c9e:	6818      	ldr	r0, [r3, #0]
 8001ca0:	683b      	ldr	r3, [r7, #0]
 8001ca2:	6859      	ldr	r1, [r3, #4]
 8001ca4:	683b      	ldr	r3, [r7, #0]
 8001ca6:	68db      	ldr	r3, [r3, #12]
 8001ca8:	461a      	mov	r2, r3
 8001caa:	f000 fab7 	bl	800221c <TIM_TI1_ConfigInputStage>
 8001cae:	687b      	ldr	r3, [r7, #4]
 8001cb0:	681b      	ldr	r3, [r3, #0]
 8001cb2:	2150      	movs	r1, #80	; 0x50
 8001cb4:	4618      	mov	r0, r3
 8001cb6:	f000 fb10 	bl	80022da <TIM_ITRx_SetConfig>
 8001cba:	e029      	b.n	8001d10 <HAL_TIM_ConfigClockSource+0x154>
 8001cbc:	687b      	ldr	r3, [r7, #4]
 8001cbe:	6818      	ldr	r0, [r3, #0]
 8001cc0:	683b      	ldr	r3, [r7, #0]
 8001cc2:	6859      	ldr	r1, [r3, #4]
 8001cc4:	683b      	ldr	r3, [r7, #0]
 8001cc6:	68db      	ldr	r3, [r3, #12]
 8001cc8:	461a      	mov	r2, r3
 8001cca:	f000 fad6 	bl	800227a <TIM_TI2_ConfigInputStage>
 8001cce:	687b      	ldr	r3, [r7, #4]
 8001cd0:	681b      	ldr	r3, [r3, #0]
 8001cd2:	2160      	movs	r1, #96	; 0x60
 8001cd4:	4618      	mov	r0, r3
 8001cd6:	f000 fb00 	bl	80022da <TIM_ITRx_SetConfig>
 8001cda:	e019      	b.n	8001d10 <HAL_TIM_ConfigClockSource+0x154>
 8001cdc:	687b      	ldr	r3, [r7, #4]
 8001cde:	6818      	ldr	r0, [r3, #0]
 8001ce0:	683b      	ldr	r3, [r7, #0]
 8001ce2:	6859      	ldr	r1, [r3, #4]
 8001ce4:	683b      	ldr	r3, [r7, #0]
 8001ce6:	68db      	ldr	r3, [r3, #12]
 8001ce8:	461a      	mov	r2, r3
 8001cea:	f000 fa97 	bl	800221c <TIM_TI1_ConfigInputStage>
 8001cee:	687b      	ldr	r3, [r7, #4]
 8001cf0:	681b      	ldr	r3, [r3, #0]
 8001cf2:	2140      	movs	r1, #64	; 0x40
 8001cf4:	4618      	mov	r0, r3
 8001cf6:	f000 faf0 	bl	80022da <TIM_ITRx_SetConfig>
 8001cfa:	e009      	b.n	8001d10 <HAL_TIM_ConfigClockSource+0x154>
 8001cfc:	687b      	ldr	r3, [r7, #4]
 8001cfe:	681a      	ldr	r2, [r3, #0]
 8001d00:	683b      	ldr	r3, [r7, #0]
 8001d02:	681b      	ldr	r3, [r3, #0]
 8001d04:	4619      	mov	r1, r3
 8001d06:	4610      	mov	r0, r2
 8001d08:	f000 fae7 	bl	80022da <TIM_ITRx_SetConfig>
 8001d0c:	e000      	b.n	8001d10 <HAL_TIM_ConfigClockSource+0x154>
 8001d0e:	bf00      	nop
 8001d10:	687b      	ldr	r3, [r7, #4]
 8001d12:	2201      	movs	r2, #1
 8001d14:	f883 203d 	strb.w	r2, [r3, #61]	; 0x3d
 8001d18:	687b      	ldr	r3, [r7, #4]
 8001d1a:	2200      	movs	r2, #0
 8001d1c:	f883 203c 	strb.w	r2, [r3, #60]	; 0x3c
 8001d20:	2300      	movs	r3, #0
 8001d22:	4618      	mov	r0, r3
 8001d24:	3710      	adds	r7, #16
 8001d26:	46bd      	mov	sp, r7
 8001d28:	bd80      	pop	{r7, pc}

08001d2a <HAL_TIM_OC_DelayElapsedCallback>:
 8001d2a:	b480      	push	{r7}
 8001d2c:	b083      	sub	sp, #12
 8001d2e:	af00      	add	r7, sp, #0
 8001d30:	6078      	str	r0, [r7, #4]
 8001d32:	bf00      	nop
 8001d34:	370c      	adds	r7, #12
 8001d36:	46bd      	mov	sp, r7
 8001d38:	f85d 7b04 	ldr.w	r7, [sp], #4
 8001d3c:	4770      	bx	lr

08001d3e <HAL_TIM_IC_CaptureCallback>:
 8001d3e:	b480      	push	{r7}
 8001d40:	b083      	sub	sp, #12
 8001d42:	af00      	add	r7, sp, #0
 8001d44:	6078      	str	r0, [r7, #4]
 8001d46:	bf00      	nop
 8001d48:	370c      	adds	r7, #12
 8001d4a:	46bd      	mov	sp, r7
 8001d4c:	f85d 7b04 	ldr.w	r7, [sp], #4
 8001d50:	4770      	bx	lr

08001d52 <HAL_TIM_PWM_PulseFinishedCallback>:
 8001d52:	b480      	push	{r7}
 8001d54:	b083      	sub	sp, #12
 8001d56:	af00      	add	r7, sp, #0
 8001d58:	6078      	str	r0, [r7, #4]
 8001d5a:	bf00      	nop
 8001d5c:	370c      	adds	r7, #12
 8001d5e:	46bd      	mov	sp, r7
 8001d60:	f85d 7b04 	ldr.w	r7, [sp], #4
 8001d64:	4770      	bx	lr

08001d66 <HAL_TIM_TriggerCallback>:
 8001d66:	b480      	push	{r7}
 8001d68:	b083      	sub	sp, #12
 8001d6a:	af00      	add	r7, sp, #0
 8001d6c:	6078      	str	r0, [r7, #4]
 8001d6e:	bf00      	nop
 8001d70:	370c      	adds	r7, #12
 8001d72:	46bd      	mov	sp, r7
 8001d74:	f85d 7b04 	ldr.w	r7, [sp], #4
 8001d78:	4770      	bx	lr
	...

08001d7c <TIM_Base_SetConfig>:
 8001d7c:	b480      	push	{r7}
 8001d7e:	b085      	sub	sp, #20
 8001d80:	af00      	add	r7, sp, #0
 8001d82:	6078      	str	r0, [r7, #4]
 8001d84:	6039      	str	r1, [r7, #0]
 8001d86:	687b      	ldr	r3, [r7, #4]
 8001d88:	681b      	ldr	r3, [r3, #0]
 8001d8a:	60fb      	str	r3, [r7, #12]
 8001d8c:	687b      	ldr	r3, [r7, #4]
 8001d8e:	4a40      	ldr	r2, [pc, #256]	; (8001e90 <TIM_Base_SetConfig+0x114>)
 8001d90:	4293      	cmp	r3, r2
 8001d92:	d013      	beq.n	8001dbc <TIM_Base_SetConfig+0x40>
 8001d94:	687b      	ldr	r3, [r7, #4]
 8001d96:	f1b3 4f80 	cmp.w	r3, #1073741824	; 0x40000000
 8001d9a:	d00f      	beq.n	8001dbc <TIM_Base_SetConfig+0x40>
 8001d9c:	687b      	ldr	r3, [r7, #4]
 8001d9e:	4a3d      	ldr	r2, [pc, #244]	; (8001e94 <TIM_Base_SetConfig+0x118>)
 8001da0:	4293      	cmp	r3, r2
 8001da2:	d00b      	beq.n	8001dbc <TIM_Base_SetConfig+0x40>
 8001da4:	687b      	ldr	r3, [r7, #4]
 8001da6:	4a3c      	ldr	r2, [pc, #240]	; (8001e98 <TIM_Base_SetConfig+0x11c>)
 8001da8:	4293      	cmp	r3, r2
 8001daa:	d007      	beq.n	8001dbc <TIM_Base_SetConfig+0x40>
 8001dac:	687b      	ldr	r3, [r7, #4]
 8001dae:	4a3b      	ldr	r2, [pc, #236]	; (8001e9c <TIM_Base_SetConfig+0x120>)
 8001db0:	4293      	cmp	r3, r2
 8001db2:	d003      	beq.n	8001dbc <TIM_Base_SetConfig+0x40>
 8001db4:	687b      	ldr	r3, [r7, #4]
 8001db6:	4a3a      	ldr	r2, [pc, #232]	; (8001ea0 <TIM_Base_SetConfig+0x124>)
 8001db8:	4293      	cmp	r3, r2
 8001dba:	d108      	bne.n	8001dce <TIM_Base_SetConfig+0x52>
 8001dbc:	68fb      	ldr	r3, [r7, #12]
 8001dbe:	f023 0370 	bic.w	r3, r3, #112	; 0x70
 8001dc2:	60fb      	str	r3, [r7, #12]
 8001dc4:	683b      	ldr	r3, [r7, #0]
 8001dc6:	685b      	ldr	r3, [r3, #4]
 8001dc8:	68fa      	ldr	r2, [r7, #12]
 8001dca:	4313      	orrs	r3, r2
 8001dcc:	60fb      	str	r3, [r7, #12]
 8001dce:	687b      	ldr	r3, [r7, #4]
 8001dd0:	4a2f      	ldr	r2, [pc, #188]	; (8001e90 <TIM_Base_SetConfig+0x114>)
 8001dd2:	4293      	cmp	r3, r2
 8001dd4:	d02b      	beq.n	8001e2e <TIM_Base_SetConfig+0xb2>
 8001dd6:	687b      	ldr	r3, [r7, #4]
 8001dd8:	f1b3 4f80 	cmp.w	r3, #1073741824	; 0x40000000
 8001ddc:	d027      	beq.n	8001e2e <TIM_Base_SetConfig+0xb2>
 8001dde:	687b      	ldr	r3, [r7, #4]
 8001de0:	4a2c      	ldr	r2, [pc, #176]	; (8001e94 <TIM_Base_SetConfig+0x118>)
 8001de2:	4293      	cmp	r3, r2
 8001de4:	d023      	beq.n	8001e2e <TIM_Base_SetConfig+0xb2>
 8001de6:	687b      	ldr	r3, [r7, #4]
 8001de8:	4a2b      	ldr	r2, [pc, #172]	; (8001e98 <TIM_Base_SetConfig+0x11c>)
 8001dea:	4293      	cmp	r3, r2
 8001dec:	d01f      	beq.n	8001e2e <TIM_Base_SetConfig+0xb2>
 8001dee:	687b      	ldr	r3, [r7, #4]
 8001df0:	4a2a      	ldr	r2, [pc, #168]	; (8001e9c <TIM_Base_SetConfig+0x120>)
 8001df2:	4293      	cmp	r3, r2
 8001df4:	d01b      	beq.n	8001e2e <TIM_Base_SetConfig+0xb2>
 8001df6:	687b      	ldr	r3, [r7, #4]
 8001df8:	4a29      	ldr	r2, [pc, #164]	; (8001ea0 <TIM_Base_SetConfig+0x124>)
 8001dfa:	4293      	cmp	r3, r2
 8001dfc:	d017      	beq.n	8001e2e <TIM_Base_SetConfig+0xb2>
 8001dfe:	687b      	ldr	r3, [r7, #4]
 8001e00:	4a28      	ldr	r2, [pc, #160]	; (8001ea4 <TIM_Base_SetConfig+0x128>)
 8001e02:	4293      	cmp	r3, r2
 8001e04:	d013      	beq.n	8001e2e <TIM_Base_SetConfig+0xb2>
 8001e06:	687b      	ldr	r3, [r7, #4]
 8001e08:	4a27      	ldr	r2, [pc, #156]	; (8001ea8 <TIM_Base_SetConfig+0x12c>)
 8001e0a:	4293      	cmp	r3, r2
 8001e0c:	d00f      	beq.n	8001e2e <TIM_Base_SetConfig+0xb2>
 8001e0e:	687b      	ldr	r3, [r7, #4]
 8001e10:	4a26      	ldr	r2, [pc, #152]	; (8001eac <TIM_Base_SetConfig+0x130>)
 8001e12:	4293      	cmp	r3, r2
 8001e14:	d00b      	beq.n	8001e2e <TIM_Base_SetConfig+0xb2>
 8001e16:	687b      	ldr	r3, [r7, #4]
 8001e18:	4a25      	ldr	r2, [pc, #148]	; (8001eb0 <TIM_Base_SetConfig+0x134>)
 8001e1a:	4293      	cmp	r3, r2
 8001e1c:	d007      	beq.n	8001e2e <TIM_Base_SetConfig+0xb2>
 8001e1e:	687b      	ldr	r3, [r7, #4]
 8001e20:	4a24      	ldr	r2, [pc, #144]	; (8001eb4 <TIM_Base_SetConfig+0x138>)
 8001e22:	4293      	cmp	r3, r2
 8001e24:	d003      	beq.n	8001e2e <TIM_Base_SetConfig+0xb2>
 8001e26:	687b      	ldr	r3, [r7, #4]
 8001e28:	4a23      	ldr	r2, [pc, #140]	; (8001eb8 <TIM_Base_SetConfig+0x13c>)
 8001e2a:	4293      	cmp	r3, r2
 8001e2c:	d108      	bne.n	8001e40 <TIM_Base_SetConfig+0xc4>
 8001e2e:	68fb      	ldr	r3, [r7, #12]
 8001e30:	f423 7340 	bic.w	r3, r3, #768	; 0x300
 8001e34:	60fb      	str	r3, [r7, #12]
 8001e36:	683b      	ldr	r3, [r7, #0]
 8001e38:	68db      	ldr	r3, [r3, #12]
 8001e3a:	68fa      	ldr	r2, [r7, #12]
 8001e3c:	4313      	orrs	r3, r2
 8001e3e:	60fb      	str	r3, [r7, #12]
 8001e40:	68fb      	ldr	r3, [r7, #12]
 8001e42:	f023 0280 	bic.w	r2, r3, #128	; 0x80
 8001e46:	683b      	ldr	r3, [r7, #0]
 8001e48:	695b      	ldr	r3, [r3, #20]
 8001e4a:	4313      	orrs	r3, r2
 8001e4c:	60fb      	str	r3, [r7, #12]
 8001e4e:	687b      	ldr	r3, [r7, #4]
 8001e50:	68fa      	ldr	r2, [r7, #12]
 8001e52:	601a      	str	r2, [r3, #0]
 8001e54:	683b      	ldr	r3, [r7, #0]
 8001e56:	689a      	ldr	r2, [r3, #8]
 8001e58:	687b      	ldr	r3, [r7, #4]
 8001e5a:	62da      	str	r2, [r3, #44]	; 0x2c
 8001e5c:	683b      	ldr	r3, [r7, #0]
 8001e5e:	681a      	ldr	r2, [r3, #0]
 8001e60:	687b      	ldr	r3, [r7, #4]
 8001e62:	629a      	str	r2, [r3, #40]	; 0x28
 8001e64:	687b      	ldr	r3, [r7, #4]
 8001e66:	4a0a      	ldr	r2, [pc, #40]	; (8001e90 <TIM_Base_SetConfig+0x114>)
 8001e68:	4293      	cmp	r3, r2
 8001e6a:	d003      	beq.n	8001e74 <TIM_Base_SetConfig+0xf8>
 8001e6c:	687b      	ldr	r3, [r7, #4]
 8001e6e:	4a0c      	ldr	r2, [pc, #48]	; (8001ea0 <TIM_Base_SetConfig+0x124>)
 8001e70:	4293      	cmp	r3, r2
 8001e72:	d103      	bne.n	8001e7c <TIM_Base_SetConfig+0x100>
 8001e74:	683b      	ldr	r3, [r7, #0]
 8001e76:	691a      	ldr	r2, [r3, #16]
 8001e78:	687b      	ldr	r3, [r7, #4]
 8001e7a:	631a      	str	r2, [r3, #48]	; 0x30
 8001e7c:	687b      	ldr	r3, [r7, #4]
 8001e7e:	2201      	movs	r2, #1
 8001e80:	615a      	str	r2, [r3, #20]
 8001e82:	bf00      	nop
 8001e84:	3714      	adds	r7, #20
 8001e86:	46bd      	mov	sp, r7
 8001e88:	f85d 7b04 	ldr.w	r7, [sp], #4
 8001e8c:	4770      	bx	lr
 8001e8e:	bf00      	nop
 8001e90:	40010000 	.word	0x40010000
 8001e94:	40000400 	.word	0x40000400
 8001e98:	40000800 	.word	0x40000800
 8001e9c:	40000c00 	.word	0x40000c00
 8001ea0:	40010400 	.word	0x40010400
 8001ea4:	40014000 	.word	0x40014000
 8001ea8:	40014400 	.word	0x40014400
 8001eac:	40014800 	.word	0x40014800
 8001eb0:	40001800 	.word	0x40001800
 8001eb4:	40001c00 	.word	0x40001c00
 8001eb8:	40002000 	.word	0x40002000

08001ebc <TIM_OC1_SetConfig>:
 8001ebc:	b480      	push	{r7}
 8001ebe:	b087      	sub	sp, #28
 8001ec0:	af00      	add	r7, sp, #0
 8001ec2:	6078      	str	r0, [r7, #4]
 8001ec4:	6039      	str	r1, [r7, #0]
 8001ec6:	687b      	ldr	r3, [r7, #4]
 8001ec8:	6a1b      	ldr	r3, [r3, #32]
 8001eca:	f023 0201 	bic.w	r2, r3, #1
 8001ece:	687b      	ldr	r3, [r7, #4]
 8001ed0:	621a      	str	r2, [r3, #32]
 8001ed2:	687b      	ldr	r3, [r7, #4]
 8001ed4:	6a1b      	ldr	r3, [r3, #32]
 8001ed6:	617b      	str	r3, [r7, #20]
 8001ed8:	687b      	ldr	r3, [r7, #4]
 8001eda:	685b      	ldr	r3, [r3, #4]
 8001edc:	613b      	str	r3, [r7, #16]
 8001ede:	687b      	ldr	r3, [r7, #4]
 8001ee0:	699b      	ldr	r3, [r3, #24]
 8001ee2:	60fb      	str	r3, [r7, #12]
 8001ee4:	68fb      	ldr	r3, [r7, #12]
 8001ee6:	f023 0370 	bic.w	r3, r3, #112	; 0x70
 8001eea:	60fb      	str	r3, [r7, #12]
 8001eec:	68fb      	ldr	r3, [r7, #12]
 8001eee:	f023 0303 	bic.w	r3, r3, #3
 8001ef2:	60fb      	str	r3, [r7, #12]
 8001ef4:	683b      	ldr	r3, [r7, #0]
 8001ef6:	681b      	ldr	r3, [r3, #0]
 8001ef8:	68fa      	ldr	r2, [r7, #12]
 8001efa:	4313      	orrs	r3, r2
 8001efc:	60fb      	str	r3, [r7, #12]
 8001efe:	697b      	ldr	r3, [r7, #20]
 8001f00:	f023 0302 	bic.w	r3, r3, #2
 8001f04:	617b      	str	r3, [r7, #20]
 8001f06:	683b      	ldr	r3, [r7, #0]
 8001f08:	689b      	ldr	r3, [r3, #8]
 8001f0a:	697a      	ldr	r2, [r7, #20]
 8001f0c:	4313      	orrs	r3, r2
 8001f0e:	617b      	str	r3, [r7, #20]
 8001f10:	687b      	ldr	r3, [r7, #4]
 8001f12:	4a20      	ldr	r2, [pc, #128]	; (8001f94 <TIM_OC1_SetConfig+0xd8>)
 8001f14:	4293      	cmp	r3, r2
 8001f16:	d003      	beq.n	8001f20 <TIM_OC1_SetConfig+0x64>
 8001f18:	687b      	ldr	r3, [r7, #4]
 8001f1a:	4a1f      	ldr	r2, [pc, #124]	; (8001f98 <TIM_OC1_SetConfig+0xdc>)
 8001f1c:	4293      	cmp	r3, r2
 8001f1e:	d10c      	bne.n	8001f3a <TIM_OC1_SetConfig+0x7e>
 8001f20:	697b      	ldr	r3, [r7, #20]
 8001f22:	f023 0308 	bic.w	r3, r3, #8
 8001f26:	617b      	str	r3, [r7, #20]
 8001f28:	683b      	ldr	r3, [r7, #0]
 8001f2a:	68db      	ldr	r3, [r3, #12]
 8001f2c:	697a      	ldr	r2, [r7, #20]
 8001f2e:	4313      	orrs	r3, r2
 8001f30:	617b      	str	r3, [r7, #20]
 8001f32:	697b      	ldr	r3, [r7, #20]
 8001f34:	f023 0304 	bic.w	r3, r3, #4
 8001f38:	617b      	str	r3, [r7, #20]
 8001f3a:	687b      	ldr	r3, [r7, #4]
 8001f3c:	4a15      	ldr	r2, [pc, #84]	; (8001f94 <TIM_OC1_SetConfig+0xd8>)
 8001f3e:	4293      	cmp	r3, r2
 8001f40:	d003      	beq.n	8001f4a <TIM_OC1_SetConfig+0x8e>
 8001f42:	687b      	ldr	r3, [r7, #4]
 8001f44:	4a14      	ldr	r2, [pc, #80]	; (8001f98 <TIM_OC1_SetConfig+0xdc>)
 8001f46:	4293      	cmp	r3, r2
 8001f48:	d111      	bne.n	8001f6e <TIM_OC1_SetConfig+0xb2>
 8001f4a:	693b      	ldr	r3, [r7, #16]
 8001f4c:	f423 7380 	bic.w	r3, r3, #256	; 0x100
 8001f50:	613b      	str	r3, [r7, #16]
 8001f52:	693b      	ldr	r3, [r7, #16]
 8001f54:	f423 7300 	bic.w	r3, r3, #512	; 0x200
 8001f58:	613b      	str	r3, [r7, #16]
 8001f5a:	683b      	ldr	r3, [r7, #0]
 8001f5c:	695b      	ldr	r3, [r3, #20]
 8001f5e:	693a      	ldr	r2, [r7, #16]
 8001f60:	4313      	orrs	r3, r2
 8001f62:	613b      	str	r3, [r7, #16]
 8001f64:	683b      	ldr	r3, [r7, #0]
 8001f66:	699b      	ldr	r3, [r3, #24]
 8001f68:	693a      	ldr	r2, [r7, #16]
 8001f6a:	4313      	orrs	r3, r2
 8001f6c:	613b      	str	r3, [r7, #16]
 8001f6e:	687b      	ldr	r3, [r7, #4]
 8001f70:	693a      	ldr	r2, [r7, #16]
 8001f72:	605a      	str	r2, [r3, #4]
 8001f74:	687b      	ldr	r3, [r7, #4]
 8001f76:	68fa      	ldr	r2, [r7, #12]
 8001f78:	619a      	str	r2, [r3, #24]
 8001f7a:	683b      	ldr	r3, [r7, #0]
 8001f7c:	685a      	ldr	r2, [r3, #4]
 8001f7e:	687b      	ldr	r3, [r7, #4]
 8001f80:	635a      	str	r2, [r3, #52]	; 0x34
 8001f82:	687b      	ldr	r3, [r7, #4]
 8001f84:	697a      	ldr	r2, [r7, #20]
 8001f86:	621a      	str	r2, [r3, #32]
 8001f88:	bf00      	nop
 8001f8a:	371c      	adds	r7, #28
 8001f8c:	46bd      	mov	sp, r7
 8001f8e:	f85d 7b04 	ldr.w	r7, [sp], #4
 8001f92:	4770      	bx	lr
 8001f94:	40010000 	.word	0x40010000
 8001f98:	40010400 	.word	0x40010400

08001f9c <TIM_OC2_SetConfig>:
 8001f9c:	b480      	push	{r7}
 8001f9e:	b087      	sub	sp, #28
 8001fa0:	af00      	add	r7, sp, #0
 8001fa2:	6078      	str	r0, [r7, #4]
 8001fa4:	6039      	str	r1, [r7, #0]
 8001fa6:	687b      	ldr	r3, [r7, #4]
 8001fa8:	6a1b      	ldr	r3, [r3, #32]
 8001faa:	f023 0210 	bic.w	r2, r3, #16
 8001fae:	687b      	ldr	r3, [r7, #4]
 8001fb0:	621a      	str	r2, [r3, #32]
 8001fb2:	687b      	ldr	r3, [r7, #4]
 8001fb4:	6a1b      	ldr	r3, [r3, #32]
 8001fb6:	617b      	str	r3, [r7, #20]
 8001fb8:	687b      	ldr	r3, [r7, #4]
 8001fba:	685b      	ldr	r3, [r3, #4]
 8001fbc:	613b      	str	r3, [r7, #16]
 8001fbe:	687b      	ldr	r3, [r7, #4]
 8001fc0:	699b      	ldr	r3, [r3, #24]
 8001fc2:	60fb      	str	r3, [r7, #12]
 8001fc4:	68fb      	ldr	r3, [r7, #12]
 8001fc6:	f423 43e0 	bic.w	r3, r3, #28672	; 0x7000
 8001fca:	60fb      	str	r3, [r7, #12]
 8001fcc:	68fb      	ldr	r3, [r7, #12]
 8001fce:	f423 7340 	bic.w	r3, r3, #768	; 0x300
 8001fd2:	60fb      	str	r3, [r7, #12]
 8001fd4:	683b      	ldr	r3, [r7, #0]
 8001fd6:	681b      	ldr	r3, [r3, #0]
 8001fd8:	021b      	lsls	r3, r3, #8
 8001fda:	68fa      	ldr	r2, [r7, #12]
 8001fdc:	4313      	orrs	r3, r2
 8001fde:	60fb      	str	r3, [r7, #12]
 8001fe0:	697b      	ldr	r3, [r7, #20]
 8001fe2:	f023 0320 	bic.w	r3, r3, #32
 8001fe6:	617b      	str	r3, [r7, #20]
 8001fe8:	683b      	ldr	r3, [r7, #0]
 8001fea:	689b      	ldr	r3, [r3, #8]
 8001fec:	011b      	lsls	r3, r3, #4
 8001fee:	697a      	ldr	r2, [r7, #20]
 8001ff0:	4313      	orrs	r3, r2
 8001ff2:	617b      	str	r3, [r7, #20]
 8001ff4:	687b      	ldr	r3, [r7, #4]
 8001ff6:	4a22      	ldr	r2, [pc, #136]	; (8002080 <TIM_OC2_SetConfig+0xe4>)
 8001ff8:	4293      	cmp	r3, r2
 8001ffa:	d003      	beq.n	8002004 <TIM_OC2_SetConfig+0x68>
 8001ffc:	687b      	ldr	r3, [r7, #4]
 8001ffe:	4a21      	ldr	r2, [pc, #132]	; (8002084 <TIM_OC2_SetConfig+0xe8>)
 8002000:	4293      	cmp	r3, r2
 8002002:	d10d      	bne.n	8002020 <TIM_OC2_SetConfig+0x84>
 8002004:	697b      	ldr	r3, [r7, #20]
 8002006:	f023 0380 	bic.w	r3, r3, #128	; 0x80
 800200a:	617b      	str	r3, [r7, #20]
 800200c:	683b      	ldr	r3, [r7, #0]
 800200e:	68db      	ldr	r3, [r3, #12]
 8002010:	011b      	lsls	r3, r3, #4
 8002012:	697a      	ldr	r2, [r7, #20]
 8002014:	4313      	orrs	r3, r2
 8002016:	617b      	str	r3, [r7, #20]
 8002018:	697b      	ldr	r3, [r7, #20]
 800201a:	f023 0340 	bic.w	r3, r3, #64	; 0x40
 800201e:	617b      	str	r3, [r7, #20]
 8002020:	687b      	ldr	r3, [r7, #4]
 8002022:	4a17      	ldr	r2, [pc, #92]	; (8002080 <TIM_OC2_SetConfig+0xe4>)
 8002024:	4293      	cmp	r3, r2
 8002026:	d003      	beq.n	8002030 <TIM_OC2_SetConfig+0x94>
 8002028:	687b      	ldr	r3, [r7, #4]
 800202a:	4a16      	ldr	r2, [pc, #88]	; (8002084 <TIM_OC2_SetConfig+0xe8>)
 800202c:	4293      	cmp	r3, r2
 800202e:	d113      	bne.n	8002058 <TIM_OC2_SetConfig+0xbc>
 8002030:	693b      	ldr	r3, [r7, #16]
 8002032:	f423 6380 	bic.w	r3, r3, #1024	; 0x400
 8002036:	613b      	str	r3, [r7, #16]
 8002038:	693b      	ldr	r3, [r7, #16]
 800203a:	f423 6300 	bic.w	r3, r3, #2048	; 0x800
 800203e:	613b      	str	r3, [r7, #16]
 8002040:	683b      	ldr	r3, [r7, #0]
 8002042:	695b      	ldr	r3, [r3, #20]
 8002044:	009b      	lsls	r3, r3, #2
 8002046:	693a      	ldr	r2, [r7, #16]
 8002048:	4313      	orrs	r3, r2
 800204a:	613b      	str	r3, [r7, #16]
 800204c:	683b      	ldr	r3, [r7, #0]
 800204e:	699b      	ldr	r3, [r3, #24]
 8002050:	009b      	lsls	r3, r3, #2
 8002052:	693a      	ldr	r2, [r7, #16]
 8002054:	4313      	orrs	r3, r2
 8002056:	613b      	str	r3, [r7, #16]
 8002058:	687b      	ldr	r3, [r7, #4]
 800205a:	693a      	ldr	r2, [r7, #16]
 800205c:	605a      	str	r2, [r3, #4]
 800205e:	687b      	ldr	r3, [r7, #4]
 8002060:	68fa      	ldr	r2, [r7, #12]
 8002062:	619a      	str	r2, [r3, #24]
 8002064:	683b      	ldr	r3, [r7, #0]
 8002066:	685a      	ldr	r2, [r3, #4]
 8002068:	687b      	ldr	r3, [r7, #4]
 800206a:	639a      	str	r2, [r3, #56]	; 0x38
 800206c:	687b      	ldr	r3, [r7, #4]
 800206e:	697a      	ldr	r2, [r7, #20]
 8002070:	621a      	str	r2, [r3, #32]
 8002072:	bf00      	nop
 8002074:	371c      	adds	r7, #28
 8002076:	46bd      	mov	sp, r7
 8002078:	f85d 7b04 	ldr.w	r7, [sp], #4
 800207c:	4770      	bx	lr
 800207e:	bf00      	nop
 8002080:	40010000 	.word	0x40010000
 8002084:	40010400 	.word	0x40010400

08002088 <TIM_OC3_SetConfig>:
 8002088:	b480      	push	{r7}
 800208a:	b087      	sub	sp, #28
 800208c:	af00      	add	r7, sp, #0
 800208e:	6078      	str	r0, [r7, #4]
 8002090:	6039      	str	r1, [r7, #0]
 8002092:	687b      	ldr	r3, [r7, #4]
 8002094:	6a1b      	ldr	r3, [r3, #32]
 8002096:	f423 7280 	bic.w	r2, r3, #256	; 0x100
 800209a:	687b      	ldr	r3, [r7, #4]
 800209c:	621a      	str	r2, [r3, #32]
 800209e:	687b      	ldr	r3, [r7, #4]
 80020a0:	6a1b      	ldr	r3, [r3, #32]
 80020a2:	617b      	str	r3, [r7, #20]
 80020a4:	687b      	ldr	r3, [r7, #4]
 80020a6:	685b      	ldr	r3, [r3, #4]
 80020a8:	613b      	str	r3, [r7, #16]
 80020aa:	687b      	ldr	r3, [r7, #4]
 80020ac:	69db      	ldr	r3, [r3, #28]
 80020ae:	60fb      	str	r3, [r7, #12]
 80020b0:	68fb      	ldr	r3, [r7, #12]
 80020b2:	f023 0370 	bic.w	r3, r3, #112	; 0x70
 80020b6:	60fb      	str	r3, [r7, #12]
 80020b8:	68fb      	ldr	r3, [r7, #12]
 80020ba:	f023 0303 	bic.w	r3, r3, #3
 80020be:	60fb      	str	r3, [r7, #12]
 80020c0:	683b      	ldr	r3, [r7, #0]
 80020c2:	681b      	ldr	r3, [r3, #0]
 80020c4:	68fa      	ldr	r2, [r7, #12]
 80020c6:	4313      	orrs	r3, r2
 80020c8:	60fb      	str	r3, [r7, #12]
 80020ca:	697b      	ldr	r3, [r7, #20]
 80020cc:	f423 7300 	bic.w	r3, r3, #512	; 0x200
 80020d0:	617b      	str	r3, [r7, #20]
 80020d2:	683b      	ldr	r3, [r7, #0]
 80020d4:	689b      	ldr	r3, [r3, #8]
 80020d6:	021b      	lsls	r3, r3, #8
 80020d8:	697a      	ldr	r2, [r7, #20]
 80020da:	4313      	orrs	r3, r2
 80020dc:	617b      	str	r3, [r7, #20]
 80020de:	687b      	ldr	r3, [r7, #4]
 80020e0:	4a21      	ldr	r2, [pc, #132]	; (8002168 <TIM_OC3_SetConfig+0xe0>)
 80020e2:	4293      	cmp	r3, r2
 80020e4:	d003      	beq.n	80020ee <TIM_OC3_SetConfig+0x66>
 80020e6:	687b      	ldr	r3, [r7, #4]
 80020e8:	4a20      	ldr	r2, [pc, #128]	; (800216c <TIM_OC3_SetConfig+0xe4>)
 80020ea:	4293      	cmp	r3, r2
 80020ec:	d10d      	bne.n	800210a <TIM_OC3_SetConfig+0x82>
 80020ee:	697b      	ldr	r3, [r7, #20]
 80020f0:	f423 6300 	bic.w	r3, r3, #2048	; 0x800
 80020f4:	617b      	str	r3, [r7, #20]
 80020f6:	683b      	ldr	r3, [r7, #0]
 80020f8:	68db      	ldr	r3, [r3, #12]
 80020fa:	021b      	lsls	r3, r3, #8
 80020fc:	697a      	ldr	r2, [r7, #20]
 80020fe:	4313      	orrs	r3, r2
 8002100:	617b      	str	r3, [r7, #20]
 8002102:	697b      	ldr	r3, [r7, #20]
 8002104:	f423 6380 	bic.w	r3, r3, #1024	; 0x400
 8002108:	617b      	str	r3, [r7, #20]
 800210a:	687b      	ldr	r3, [r7, #4]
 800210c:	4a16      	ldr	r2, [pc, #88]	; (8002168 <TIM_OC3_SetConfig+0xe0>)
 800210e:	4293      	cmp	r3, r2
 8002110:	d003      	beq.n	800211a <TIM_OC3_SetConfig+0x92>
 8002112:	687b      	ldr	r3, [r7, #4]
 8002114:	4a15      	ldr	r2, [pc, #84]	; (800216c <TIM_OC3_SetConfig+0xe4>)
 8002116:	4293      	cmp	r3, r2
 8002118:	d113      	bne.n	8002142 <TIM_OC3_SetConfig+0xba>
 800211a:	693b      	ldr	r3, [r7, #16]
 800211c:	f423 5380 	bic.w	r3, r3, #4096	; 0x1000
 8002120:	613b      	str	r3, [r7, #16]
 8002122:	693b      	ldr	r3, [r7, #16]
 8002124:	f423 5300 	bic.w	r3, r3, #8192	; 0x2000
 8002128:	613b      	str	r3, [r7, #16]
 800212a:	683b      	ldr	r3, [r7, #0]
 800212c:	695b      	ldr	r3, [r3, #20]
 800212e:	011b      	lsls	r3, r3, #4
 8002130:	693a      	ldr	r2, [r7, #16]
 8002132:	4313      	orrs	r3, r2
 8002134:	613b      	str	r3, [r7, #16]
 8002136:	683b      	ldr	r3, [r7, #0]
 8002138:	699b      	ldr	r3, [r3, #24]
 800213a:	011b      	lsls	r3, r3, #4
 800213c:	693a      	ldr	r2, [r7, #16]
 800213e:	4313      	orrs	r3, r2
 8002140:	613b      	str	r3, [r7, #16]
 8002142:	687b      	ldr	r3, [r7, #4]
 8002144:	693a      	ldr	r2, [r7, #16]
 8002146:	605a      	str	r2, [r3, #4]
 8002148:	687b      	ldr	r3, [r7, #4]
 800214a:	68fa      	ldr	r2, [r7, #12]
 800214c:	61da      	str	r2, [r3, #28]
 800214e:	683b      	ldr	r3, [r7, #0]
 8002150:	685a      	ldr	r2, [r3, #4]
 8002152:	687b      	ldr	r3, [r7, #4]
 8002154:	63da      	str	r2, [r3, #60]	; 0x3c
 8002156:	687b      	ldr	r3, [r7, #4]
 8002158:	697a      	ldr	r2, [r7, #20]
 800215a:	621a      	str	r2, [r3, #32]
 800215c:	bf00      	nop
 800215e:	371c      	adds	r7, #28
 8002160:	46bd      	mov	sp, r7
 8002162:	f85d 7b04 	ldr.w	r7, [sp], #4
 8002166:	4770      	bx	lr
 8002168:	40010000 	.word	0x40010000
 800216c:	40010400 	.word	0x40010400

08002170 <TIM_OC4_SetConfig>:
 8002170:	b480      	push	{r7}
 8002172:	b087      	sub	sp, #28
 8002174:	af00      	add	r7, sp, #0
 8002176:	6078      	str	r0, [r7, #4]
 8002178:	6039      	str	r1, [r7, #0]
 800217a:	687b      	ldr	r3, [r7, #4]
 800217c:	6a1b      	ldr	r3, [r3, #32]
 800217e:	f423 5280 	bic.w	r2, r3, #4096	; 0x1000
 8002182:	687b      	ldr	r3, [r7, #4]
 8002184:	621a      	str	r2, [r3, #32]
 8002186:	687b      	ldr	r3, [r7, #4]
 8002188:	6a1b      	ldr	r3, [r3, #32]
 800218a:	613b      	str	r3, [r7, #16]
 800218c:	687b      	ldr	r3, [r7, #4]
 800218e:	685b      	ldr	r3, [r3, #4]
 8002190:	617b      	str	r3, [r7, #20]
 8002192:	687b      	ldr	r3, [r7, #4]
 8002194:	69db      	ldr	r3, [r3, #28]
 8002196:	60fb      	str	r3, [r7, #12]
 8002198:	68fb      	ldr	r3, [r7, #12]
 800219a:	f423 43e0 	bic.w	r3, r3, #28672	; 0x7000
 800219e:	60fb      	str	r3, [r7, #12]
 80021a0:	68fb      	ldr	r3, [r7, #12]
 80021a2:	f423 7340 	bic.w	r3, r3, #768	; 0x300
 80021a6:	60fb      	str	r3, [r7, #12]
 80021a8:	683b      	ldr	r3, [r7, #0]
 80021aa:	681b      	ldr	r3, [r3, #0]
 80021ac:	021b      	lsls	r3, r3, #8
 80021ae:	68fa      	ldr	r2, [r7, #12]
 80021b0:	4313      	orrs	r3, r2
 80021b2:	60fb      	str	r3, [r7, #12]
 80021b4:	693b      	ldr	r3, [r7, #16]
 80021b6:	f423 5300 	bic.w	r3, r3, #8192	; 0x2000
 80021ba:	613b      	str	r3, [r7, #16]
 80021bc:	683b      	ldr	r3, [r7, #0]
 80021be:	689b      	ldr	r3, [r3, #8]
 80021c0:	031b      	lsls	r3, r3, #12
 80021c2:	693a      	ldr	r2, [r7, #16]
 80021c4:	4313      	orrs	r3, r2
 80021c6:	613b      	str	r3, [r7, #16]
 80021c8:	687b      	ldr	r3, [r7, #4]
 80021ca:	4a12      	ldr	r2, [pc, #72]	; (8002214 <TIM_OC4_SetConfig+0xa4>)
 80021cc:	4293      	cmp	r3, r2
 80021ce:	d003      	beq.n	80021d8 <TIM_OC4_SetConfig+0x68>
 80021d0:	687b      	ldr	r3, [r7, #4]
 80021d2:	4a11      	ldr	r2, [pc, #68]	; (8002218 <TIM_OC4_SetConfig+0xa8>)
 80021d4:	4293      	cmp	r3, r2
 80021d6:	d109      	bne.n	80021ec <TIM_OC4_SetConfig+0x7c>
 80021d8:	697b      	ldr	r3, [r7, #20]
 80021da:	f423 4380 	bic.w	r3, r3, #16384	; 0x4000
 80021de:	617b      	str	r3, [r7, #20]
 80021e0:	683b      	ldr	r3, [r7, #0]
 80021e2:	695b      	ldr	r3, [r3, #20]
 80021e4:	019b      	lsls	r3, r3, #6
 80021e6:	697a      	ldr	r2, [r7, #20]
 80021e8:	4313      	orrs	r3, r2
 80021ea:	617b      	str	r3, [r7, #20]
 80021ec:	687b      	ldr	r3, [r7, #4]
 80021ee:	697a      	ldr	r2, [r7, #20]
 80021f0:	605a      	str	r2, [r3, #4]
 80021f2:	687b      	ldr	r3, [r7, #4]
 80021f4:	68fa      	ldr	r2, [r7, #12]
 80021f6:	61da      	str	r2, [r3, #28]
 80021f8:	683b      	ldr	r3, [r7, #0]
 80021fa:	685a      	ldr	r2, [r3, #4]
 80021fc:	687b      	ldr	r3, [r7, #4]
 80021fe:	641a      	str	r2, [r3, #64]	; 0x40
 8002200:	687b      	ldr	r3, [r7, #4]
 8002202:	693a      	ldr	r2, [r7, #16]
 8002204:	621a      	str	r2, [r3, #32]
 8002206:	bf00      	nop
 8002208:	371c      	adds	r7, #28
 800220a:	46bd      	mov	sp, r7
 800220c:	f85d 7b04 	ldr.w	r7, [sp], #4
 8002210:	4770      	bx	lr
 8002212:	bf00      	nop
 8002214:	40010000 	.word	0x40010000
 8002218:	40010400 	.word	0x40010400

0800221c <TIM_TI1_ConfigInputStage>:
 800221c:	b480      	push	{r7}
 800221e:	b087      	sub	sp, #28
 8002220:	af00      	add	r7, sp, #0
 8002222:	60f8      	str	r0, [r7, #12]
 8002224:	60b9      	str	r1, [r7, #8]
 8002226:	607a      	str	r2, [r7, #4]
 8002228:	68fb      	ldr	r3, [r7, #12]
 800222a:	6a1b      	ldr	r3, [r3, #32]
 800222c:	617b      	str	r3, [r7, #20]
 800222e:	68fb      	ldr	r3, [r7, #12]
 8002230:	6a1b      	ldr	r3, [r3, #32]
 8002232:	f023 0201 	bic.w	r2, r3, #1
 8002236:	68fb      	ldr	r3, [r7, #12]
 8002238:	621a      	str	r2, [r3, #32]
 800223a:	68fb      	ldr	r3, [r7, #12]
 800223c:	699b      	ldr	r3, [r3, #24]
 800223e:	613b      	str	r3, [r7, #16]
 8002240:	693b      	ldr	r3, [r7, #16]
 8002242:	f023 03f0 	bic.w	r3, r3, #240	; 0xf0
 8002246:	613b      	str	r3, [r7, #16]
 8002248:	687b      	ldr	r3, [r7, #4]
 800224a:	011b      	lsls	r3, r3, #4
 800224c:	693a      	ldr	r2, [r7, #16]
 800224e:	4313      	orrs	r3, r2
 8002250:	613b      	str	r3, [r7, #16]
 8002252:	697b      	ldr	r3, [r7, #20]
 8002254:	f023 030a 	bic.w	r3, r3, #10
 8002258:	617b      	str	r3, [r7, #20]
 800225a:	697a      	ldr	r2, [r7, #20]
 800225c:	68bb      	ldr	r3, [r7, #8]
 800225e:	4313      	orrs	r3, r2
 8002260:	617b      	str	r3, [r7, #20]
 8002262:	68fb      	ldr	r3, [r7, #12]
 8002264:	693a      	ldr	r2, [r7, #16]
 8002266:	619a      	str	r2, [r3, #24]
 8002268:	68fb      	ldr	r3, [r7, #12]
 800226a:	697a      	ldr	r2, [r7, #20]
 800226c:	621a      	str	r2, [r3, #32]
 800226e:	bf00      	nop
 8002270:	371c      	adds	r7, #28
 8002272:	46bd      	mov	sp, r7
 8002274:	f85d 7b04 	ldr.w	r7, [sp], #4
 8002278:	4770      	bx	lr

0800227a <TIM_TI2_ConfigInputStage>:
 800227a:	b480      	push	{r7}
 800227c:	b087      	sub	sp, #28
 800227e:	af00      	add	r7, sp, #0
 8002280:	60f8      	str	r0, [r7, #12]
 8002282:	60b9      	str	r1, [r7, #8]
 8002284:	607a      	str	r2, [r7, #4]
 8002286:	68fb      	ldr	r3, [r7, #12]
 8002288:	6a1b      	ldr	r3, [r3, #32]
 800228a:	f023 0210 	bic.w	r2, r3, #16
 800228e:	68fb      	ldr	r3, [r7, #12]
 8002290:	621a      	str	r2, [r3, #32]
 8002292:	68fb      	ldr	r3, [r7, #12]
 8002294:	699b      	ldr	r3, [r3, #24]
 8002296:	617b      	str	r3, [r7, #20]
 8002298:	68fb      	ldr	r3, [r7, #12]
 800229a:	6a1b      	ldr	r3, [r3, #32]
 800229c:	613b      	str	r3, [r7, #16]
 800229e:	697b      	ldr	r3, [r7, #20]
 80022a0:	f423 4370 	bic.w	r3, r3, #61440	; 0xf000
 80022a4:	617b      	str	r3, [r7, #20]
 80022a6:	687b      	ldr	r3, [r7, #4]
 80022a8:	031b      	lsls	r3, r3, #12
 80022aa:	697a      	ldr	r2, [r7, #20]
 80022ac:	4313      	orrs	r3, r2
 80022ae:	617b      	str	r3, [r7, #20]
 80022b0:	693b      	ldr	r3, [r7, #16]
 80022b2:	f023 03a0 	bic.w	r3, r3, #160	; 0xa0
 80022b6:	613b      	str	r3, [r7, #16]
 80022b8:	68bb      	ldr	r3, [r7, #8]
 80022ba:	011b      	lsls	r3, r3, #4
 80022bc:	693a      	ldr	r2, [r7, #16]
 80022be:	4313      	orrs	r3, r2
 80022c0:	613b      	str	r3, [r7, #16]
 80022c2:	68fb      	ldr	r3, [r7, #12]
 80022c4:	697a      	ldr	r2, [r7, #20]
 80022c6:	619a      	str	r2, [r3, #24]
 80022c8:	68fb      	ldr	r3, [r7, #12]
 80022ca:	693a      	ldr	r2, [r7, #16]
 80022cc:	621a      	str	r2, [r3, #32]
 80022ce:	bf00      	nop
 80022d0:	371c      	adds	r7, #28
 80022d2:	46bd      	mov	sp, r7
 80022d4:	f85d 7b04 	ldr.w	r7, [sp], #4
 80022d8:	4770      	bx	lr

080022da <TIM_ITRx_SetConfig>:
 80022da:	b480      	push	{r7}
 80022dc:	b085      	sub	sp, #20
 80022de:	af00      	add	r7, sp, #0
 80022e0:	6078      	str	r0, [r7, #4]
 80022e2:	6039      	str	r1, [r7, #0]
 80022e4:	687b      	ldr	r3, [r7, #4]
 80022e6:	689b      	ldr	r3, [r3, #8]
 80022e8:	60fb      	str	r3, [r7, #12]
 80022ea:	68fb      	ldr	r3, [r7, #12]
 80022ec:	f023 0370 	bic.w	r3, r3, #112	; 0x70
 80022f0:	60fb      	str	r3, [r7, #12]
 80022f2:	683a      	ldr	r2, [r7, #0]
 80022f4:	68fb      	ldr	r3, [r7, #12]
 80022f6:	4313      	orrs	r3, r2
 80022f8:	f043 0307 	orr.w	r3, r3, #7
 80022fc:	60fb      	str	r3, [r7, #12]
 80022fe:	687b      	ldr	r3, [r7, #4]
 8002300:	68fa      	ldr	r2, [r7, #12]
 8002302:	609a      	str	r2, [r3, #8]
 8002304:	bf00      	nop
 8002306:	3714      	adds	r7, #20
 8002308:	46bd      	mov	sp, r7
 800230a:	f85d 7b04 	ldr.w	r7, [sp], #4
 800230e:	4770      	bx	lr

08002310 <TIM_ETR_SetConfig>:
 8002310:	b480      	push	{r7}
 8002312:	b087      	sub	sp, #28
 8002314:	af00      	add	r7, sp, #0
 8002316:	60f8      	str	r0, [r7, #12]
 8002318:	60b9      	str	r1, [r7, #8]
 800231a:	607a      	str	r2, [r7, #4]
 800231c:	603b      	str	r3, [r7, #0]
 800231e:	68fb      	ldr	r3, [r7, #12]
 8002320:	689b      	ldr	r3, [r3, #8]
 8002322:	617b      	str	r3, [r7, #20]
 8002324:	697b      	ldr	r3, [r7, #20]
 8002326:	f423 437f 	bic.w	r3, r3, #65280	; 0xff00
 800232a:	617b      	str	r3, [r7, #20]
 800232c:	683b      	ldr	r3, [r7, #0]
 800232e:	021a      	lsls	r2, r3, #8
 8002330:	687b      	ldr	r3, [r7, #4]
 8002332:	431a      	orrs	r2, r3
 8002334:	68bb      	ldr	r3, [r7, #8]
 8002336:	4313      	orrs	r3, r2
 8002338:	697a      	ldr	r2, [r7, #20]
 800233a:	4313      	orrs	r3, r2
 800233c:	617b      	str	r3, [r7, #20]
 800233e:	68fb      	ldr	r3, [r7, #12]
 8002340:	697a      	ldr	r2, [r7, #20]
 8002342:	609a      	str	r2, [r3, #8]
 8002344:	bf00      	nop
 8002346:	371c      	adds	r7, #28
 8002348:	46bd      	mov	sp, r7
 800234a:	f85d 7b04 	ldr.w	r7, [sp], #4
 800234e:	4770      	bx	lr

08002350 <TIM_CCxChannelCmd>:
 8002350:	b480      	push	{r7}
 8002352:	b087      	sub	sp, #28
 8002354:	af00      	add	r7, sp, #0
 8002356:	60f8      	str	r0, [r7, #12]
 8002358:	60b9      	str	r1, [r7, #8]
 800235a:	607a      	str	r2, [r7, #4]
 800235c:	68bb      	ldr	r3, [r7, #8]
 800235e:	f003 031f 	and.w	r3, r3, #31
 8002362:	2201      	movs	r2, #1
 8002364:	fa02 f303 	lsl.w	r3, r2, r3
 8002368:	617b      	str	r3, [r7, #20]
 800236a:	68fb      	ldr	r3, [r7, #12]
 800236c:	6a1a      	ldr	r2, [r3, #32]
 800236e:	697b      	ldr	r3, [r7, #20]
 8002370:	43db      	mvns	r3, r3
 8002372:	401a      	ands	r2, r3
 8002374:	68fb      	ldr	r3, [r7, #12]
 8002376:	621a      	str	r2, [r3, #32]
 8002378:	68fb      	ldr	r3, [r7, #12]
 800237a:	6a1a      	ldr	r2, [r3, #32]
 800237c:	68bb      	ldr	r3, [r7, #8]
 800237e:	f003 031f 	and.w	r3, r3, #31
 8002382:	6879      	ldr	r1, [r7, #4]
 8002384:	fa01 f303 	lsl.w	r3, r1, r3
 8002388:	431a      	orrs	r2, r3
 800238a:	68fb      	ldr	r3, [r7, #12]
 800238c:	621a      	str	r2, [r3, #32]
 800238e:	bf00      	nop
 8002390:	371c      	adds	r7, #28
 8002392:	46bd      	mov	sp, r7
 8002394:	f85d 7b04 	ldr.w	r7, [sp], #4
 8002398:	4770      	bx	lr
	...

0800239c <HAL_TIMEx_MasterConfigSynchronization>:
 800239c:	b480      	push	{r7}
 800239e:	b085      	sub	sp, #20
 80023a0:	af00      	add	r7, sp, #0
 80023a2:	6078      	str	r0, [r7, #4]
 80023a4:	6039      	str	r1, [r7, #0]
 80023a6:	687b      	ldr	r3, [r7, #4]
 80023a8:	f893 303c 	ldrb.w	r3, [r3, #60]	; 0x3c
 80023ac:	2b01      	cmp	r3, #1
 80023ae:	d101      	bne.n	80023b4 <HAL_TIMEx_MasterConfigSynchronization+0x18>
 80023b0:	2302      	movs	r3, #2
 80023b2:	e05a      	b.n	800246a <HAL_TIMEx_MasterConfigSynchronization+0xce>
 80023b4:	687b      	ldr	r3, [r7, #4]
 80023b6:	2201      	movs	r2, #1
 80023b8:	f883 203c 	strb.w	r2, [r3, #60]	; 0x3c
 80023bc:	687b      	ldr	r3, [r7, #4]
 80023be:	2202      	movs	r2, #2
 80023c0:	f883 203d 	strb.w	r2, [r3, #61]	; 0x3d
 80023c4:	687b      	ldr	r3, [r7, #4]
 80023c6:	681b      	ldr	r3, [r3, #0]
 80023c8:	685b      	ldr	r3, [r3, #4]
 80023ca:	60fb      	str	r3, [r7, #12]
 80023cc:	687b      	ldr	r3, [r7, #4]
 80023ce:	681b      	ldr	r3, [r3, #0]
 80023d0:	689b      	ldr	r3, [r3, #8]
 80023d2:	60bb      	str	r3, [r7, #8]
 80023d4:	68fb      	ldr	r3, [r7, #12]
 80023d6:	f023 0370 	bic.w	r3, r3, #112	; 0x70
 80023da:	60fb      	str	r3, [r7, #12]
 80023dc:	683b      	ldr	r3, [r7, #0]
 80023de:	681b      	ldr	r3, [r3, #0]
 80023e0:	68fa      	ldr	r2, [r7, #12]
 80023e2:	4313      	orrs	r3, r2
 80023e4:	60fb      	str	r3, [r7, #12]
 80023e6:	687b      	ldr	r3, [r7, #4]
 80023e8:	681b      	ldr	r3, [r3, #0]
 80023ea:	68fa      	ldr	r2, [r7, #12]
 80023ec:	605a      	str	r2, [r3, #4]
 80023ee:	687b      	ldr	r3, [r7, #4]
 80023f0:	681b      	ldr	r3, [r3, #0]
 80023f2:	4a21      	ldr	r2, [pc, #132]	; (8002478 <HAL_TIMEx_MasterConfigSynchronization+0xdc>)
 80023f4:	4293      	cmp	r3, r2
 80023f6:	d022      	beq.n	800243e <HAL_TIMEx_MasterConfigSynchronization+0xa2>
 80023f8:	687b      	ldr	r3, [r7, #4]
 80023fa:	681b      	ldr	r3, [r3, #0]
 80023fc:	f1b3 4f80 	cmp.w	r3, #1073741824	; 0x40000000
 8002400:	d01d      	beq.n	800243e <HAL_TIMEx_MasterConfigSynchronization+0xa2>
 8002402:	687b      	ldr	r3, [r7, #4]
 8002404:	681b      	ldr	r3, [r3, #0]
 8002406:	4a1d      	ldr	r2, [pc, #116]	; (800247c <HAL_TIMEx_MasterConfigSynchronization+0xe0>)
 8002408:	4293      	cmp	r3, r2
 800240a:	d018      	beq.n	800243e <HAL_TIMEx_MasterConfigSynchronization+0xa2>
 800240c:	687b      	ldr	r3, [r7, #4]
 800240e:	681b      	ldr	r3, [r3, #0]
 8002410:	4a1b      	ldr	r2, [pc, #108]	; (8002480 <HAL_TIMEx_MasterConfigSynchronization+0xe4>)
 8002412:	4293      	cmp	r3, r2
 8002414:	d013      	beq.n	800243e <HAL_TIMEx_MasterConfigSynchronization+0xa2>
 8002416:	687b      	ldr	r3, [r7, #4]
 8002418:	681b      	ldr	r3, [r3, #0]
 800241a:	4a1a      	ldr	r2, [pc, #104]	; (8002484 <HAL_TIMEx_MasterConfigSynchronization+0xe8>)
 800241c:	4293      	cmp	r3, r2
 800241e:	d00e      	beq.n	800243e <HAL_TIMEx_MasterConfigSynchronization+0xa2>
 8002420:	687b      	ldr	r3, [r7, #4]
 8002422:	681b      	ldr	r3, [r3, #0]
 8002424:	4a18      	ldr	r2, [pc, #96]	; (8002488 <HAL_TIMEx_MasterConfigSynchronization+0xec>)
 8002426:	4293      	cmp	r3, r2
 8002428:	d009      	beq.n	800243e <HAL_TIMEx_MasterConfigSynchronization+0xa2>
 800242a:	687b      	ldr	r3, [r7, #4]
 800242c:	681b      	ldr	r3, [r3, #0]
 800242e:	4a17      	ldr	r2, [pc, #92]	; (800248c <HAL_TIMEx_MasterConfigSynchronization+0xf0>)
 8002430:	4293      	cmp	r3, r2
 8002432:	d004      	beq.n	800243e <HAL_TIMEx_MasterConfigSynchronization+0xa2>
 8002434:	687b      	ldr	r3, [r7, #4]
 8002436:	681b      	ldr	r3, [r3, #0]
 8002438:	4a15      	ldr	r2, [pc, #84]	; (8002490 <HAL_TIMEx_MasterConfigSynchronization+0xf4>)
 800243a:	4293      	cmp	r3, r2
 800243c:	d10c      	bne.n	8002458 <HAL_TIMEx_MasterConfigSynchronization+0xbc>
 800243e:	68bb      	ldr	r3, [r7, #8]
 8002440:	f023 0380 	bic.w	r3, r3, #128	; 0x80
 8002444:	60bb      	str	r3, [r7, #8]
 8002446:	683b      	ldr	r3, [r7, #0]
 8002448:	685b      	ldr	r3, [r3, #4]
 800244a:	68ba      	ldr	r2, [r7, #8]
 800244c:	4313      	orrs	r3, r2
 800244e:	60bb      	str	r3, [r7, #8]
 8002450:	687b      	ldr	r3, [r7, #4]
 8002452:	681b      	ldr	r3, [r3, #0]
 8002454:	68ba      	ldr	r2, [r7, #8]
 8002456:	609a      	str	r2, [r3, #8]
 8002458:	687b      	ldr	r3, [r7, #4]
 800245a:	2201      	movs	r2, #1
 800245c:	f883 203d 	strb.w	r2, [r3, #61]	; 0x3d
 8002460:	687b      	ldr	r3, [r7, #4]
 8002462:	2200      	movs	r2, #0
 8002464:	f883 203c 	strb.w	r2, [r3, #60]	; 0x3c
 8002468:	2300      	movs	r3, #0
 800246a:	4618      	mov	r0, r3
 800246c:	3714      	adds	r7, #20
 800246e:	46bd      	mov	sp, r7
 8002470:	f85d 7b04 	ldr.w	r7, [sp], #4
 8002474:	4770      	bx	lr
 8002476:	bf00      	nop
 8002478:	40010000 	.word	0x40010000
 800247c:	40000400 	.word	0x40000400
 8002480:	40000800 	.word	0x40000800
 8002484:	40000c00 	.word	0x40000c00
 8002488:	40010400 	.word	0x40010400
 800248c:	40014000 	.word	0x40014000
 8002490:	40001800 	.word	0x40001800

08002494 <HAL_TIMEx_CommutCallback>:
 8002494:	b480      	push	{r7}
 8002496:	b083      	sub	sp, #12
 8002498:	af00      	add	r7, sp, #0
 800249a:	6078      	str	r0, [r7, #4]
 800249c:	bf00      	nop
 800249e:	370c      	adds	r7, #12
 80024a0:	46bd      	mov	sp, r7
 80024a2:	f85d 7b04 	ldr.w	r7, [sp], #4
 80024a6:	4770      	bx	lr

080024a8 <HAL_TIMEx_BreakCallback>:
 80024a8:	b480      	push	{r7}
 80024aa:	b083      	sub	sp, #12
 80024ac:	af00      	add	r7, sp, #0
 80024ae:	6078      	str	r0, [r7, #4]
 80024b0:	bf00      	nop
 80024b2:	370c      	adds	r7, #12
 80024b4:	46bd      	mov	sp, r7
 80024b6:	f85d 7b04 	ldr.w	r7, [sp], #4
 80024ba:	4770      	bx	lr

080024bc <main>:
 80024bc:	b580      	push	{r7, lr}
 80024be:	b088      	sub	sp, #32
 80024c0:	af02      	add	r7, sp, #8
 80024c2:	f7fe f961 	bl	8000788 <HAL_Init>
 80024c6:	4b3f      	ldr	r3, [pc, #252]	; (80025c4 <main+0x108>)
 80024c8:	681b      	ldr	r3, [r3, #0]
 80024ca:	4a3e      	ldr	r2, [pc, #248]	; (80025c4 <main+0x108>)
 80024cc:	f043 0301 	orr.w	r3, r3, #1
 80024d0:	6013      	str	r3, [r2, #0]
 80024d2:	f003 f9e5 	bl	80058a0 <SEGGER_SYSVIEW_Conf>
 80024d6:	f004 f8e5 	bl	80066a4 <SEGGER_SYSVIEW_Start>
 80024da:	f000 f887 	bl	80025ec <SystemClock_Config>
 80024de:	f000 f9b7 	bl	8002850 <MX_GPIO_Init>
 80024e2:	f000 f8ed 	bl	80026c0 <MX_TIM1_Init>
 80024e6:	f000 f93b 	bl	8002760 <MX_TIM3_Init>
 80024ea:	4b37      	ldr	r3, [pc, #220]	; (80025c8 <main+0x10c>)
 80024ec:	681b      	ldr	r3, [r3, #0]
 80024ee:	f44f 62e1 	mov.w	r2, #1800	; 0x708
 80024f2:	635a      	str	r2, [r3, #52]	; 0x34
 80024f4:	2100      	movs	r1, #0
 80024f6:	4834      	ldr	r0, [pc, #208]	; (80025c8 <main+0x10c>)
 80024f8:	f7ff f954 	bl	80017a4 <HAL_TIM_PWM_Start>
 80024fc:	2300      	movs	r3, #0
 80024fe:	9301      	str	r3, [sp, #4]
 8002500:	2302      	movs	r3, #2
 8002502:	9300      	str	r3, [sp, #0]
 8002504:	2300      	movs	r3, #0
 8002506:	22c8      	movs	r2, #200	; 0xc8
 8002508:	4930      	ldr	r1, [pc, #192]	; (80025cc <main+0x110>)
 800250a:	4831      	ldr	r0, [pc, #196]	; (80025d0 <main+0x114>)
 800250c:	f001 fa80 	bl	8003a10 <xTaskCreate>
 8002510:	6178      	str	r0, [r7, #20]
 8002512:	697b      	ldr	r3, [r7, #20]
 8002514:	2b01      	cmp	r3, #1
 8002516:	d009      	beq.n	800252c <main+0x70>
 8002518:	f04f 0350 	mov.w	r3, #80	; 0x50
 800251c:	f383 8811 	msr	BASEPRI, r3
 8002520:	f3bf 8f6f 	isb	sy
 8002524:	f3bf 8f4f 	dsb	sy
 8002528:	613b      	str	r3, [r7, #16]
 800252a:	e7fe      	b.n	800252a <main+0x6e>
 800252c:	2300      	movs	r3, #0
 800252e:	9301      	str	r3, [sp, #4]
 8002530:	2302      	movs	r3, #2
 8002532:	9300      	str	r3, [sp, #0]
 8002534:	2300      	movs	r3, #0
 8002536:	22c8      	movs	r2, #200	; 0xc8
 8002538:	4926      	ldr	r1, [pc, #152]	; (80025d4 <main+0x118>)
 800253a:	4827      	ldr	r0, [pc, #156]	; (80025d8 <main+0x11c>)
 800253c:	f001 fa68 	bl	8003a10 <xTaskCreate>
 8002540:	6178      	str	r0, [r7, #20]
 8002542:	697b      	ldr	r3, [r7, #20]
 8002544:	2b01      	cmp	r3, #1
 8002546:	d009      	beq.n	800255c <main+0xa0>
 8002548:	f04f 0350 	mov.w	r3, #80	; 0x50
 800254c:	f383 8811 	msr	BASEPRI, r3
 8002550:	f3bf 8f6f 	isb	sy
 8002554:	f3bf 8f4f 	dsb	sy
 8002558:	60fb      	str	r3, [r7, #12]
 800255a:	e7fe      	b.n	800255a <main+0x9e>
 800255c:	2300      	movs	r3, #0
 800255e:	9301      	str	r3, [sp, #4]
 8002560:	2302      	movs	r3, #2
 8002562:	9300      	str	r3, [sp, #0]
 8002564:	2300      	movs	r3, #0
 8002566:	22c8      	movs	r2, #200	; 0xc8
 8002568:	491c      	ldr	r1, [pc, #112]	; (80025dc <main+0x120>)
 800256a:	481d      	ldr	r0, [pc, #116]	; (80025e0 <main+0x124>)
 800256c:	f001 fa50 	bl	8003a10 <xTaskCreate>
 8002570:	6178      	str	r0, [r7, #20]
 8002572:	697b      	ldr	r3, [r7, #20]
 8002574:	2b01      	cmp	r3, #1
 8002576:	d009      	beq.n	800258c <main+0xd0>
 8002578:	f04f 0350 	mov.w	r3, #80	; 0x50
 800257c:	f383 8811 	msr	BASEPRI, r3
 8002580:	f3bf 8f6f 	isb	sy
 8002584:	f3bf 8f4f 	dsb	sy
 8002588:	60bb      	str	r3, [r7, #8]
 800258a:	e7fe      	b.n	800258a <main+0xce>
 800258c:	2300      	movs	r3, #0
 800258e:	9301      	str	r3, [sp, #4]
 8002590:	2302      	movs	r3, #2
 8002592:	9300      	str	r3, [sp, #0]
 8002594:	2300      	movs	r3, #0
 8002596:	22c8      	movs	r2, #200	; 0xc8
 8002598:	4912      	ldr	r1, [pc, #72]	; (80025e4 <main+0x128>)
 800259a:	4813      	ldr	r0, [pc, #76]	; (80025e8 <main+0x12c>)
 800259c:	f001 fa38 	bl	8003a10 <xTaskCreate>
 80025a0:	6178      	str	r0, [r7, #20]
 80025a2:	697b      	ldr	r3, [r7, #20]
 80025a4:	2b01      	cmp	r3, #1
 80025a6:	d009      	beq.n	80025bc <main+0x100>
 80025a8:	f04f 0350 	mov.w	r3, #80	; 0x50
 80025ac:	f383 8811 	msr	BASEPRI, r3
 80025b0:	f3bf 8f6f 	isb	sy
 80025b4:	f3bf 8f4f 	dsb	sy
 80025b8:	607b      	str	r3, [r7, #4]
 80025ba:	e7fe      	b.n	80025ba <main+0xfe>
 80025bc:	f001 fc40 	bl	8003e40 <vTaskStartScheduler>
 80025c0:	e7fe      	b.n	80025c0 <main+0x104>
 80025c2:	bf00      	nop
 80025c4:	e0001000 	.word	0xe0001000
 80025c8:	2001a770 	.word	0x2001a770
 80025cc:	080072dc 	.word	0x080072dc
 80025d0:	08000645 	.word	0x08000645
 80025d4:	080072f4 	.word	0x080072f4
 80025d8:	08000565 	.word	0x08000565
 80025dc:	08007304 	.word	0x08007304
 80025e0:	080006b9 	.word	0x080006b9
 80025e4:	08007314 	.word	0x08007314
 80025e8:	08000725 	.word	0x08000725

080025ec <SystemClock_Config>:
 80025ec:	b580      	push	{r7, lr}
 80025ee:	b094      	sub	sp, #80	; 0x50
 80025f0:	af00      	add	r7, sp, #0
 80025f2:	f107 0320 	add.w	r3, r7, #32
 80025f6:	2230      	movs	r2, #48	; 0x30
 80025f8:	2100      	movs	r1, #0
 80025fa:	4618      	mov	r0, r3
 80025fc:	f004 fe5a 	bl	80072b4 <memset>
 8002600:	f107 030c 	add.w	r3, r7, #12
 8002604:	2200      	movs	r2, #0
 8002606:	601a      	str	r2, [r3, #0]
 8002608:	605a      	str	r2, [r3, #4]
 800260a:	609a      	str	r2, [r3, #8]
 800260c:	60da      	str	r2, [r3, #12]
 800260e:	611a      	str	r2, [r3, #16]
 8002610:	2300      	movs	r3, #0
 8002612:	60bb      	str	r3, [r7, #8]
 8002614:	4b28      	ldr	r3, [pc, #160]	; (80026b8 <SystemClock_Config+0xcc>)
 8002616:	6c1b      	ldr	r3, [r3, #64]	; 0x40
 8002618:	4a27      	ldr	r2, [pc, #156]	; (80026b8 <SystemClock_Config+0xcc>)
 800261a:	f043 5380 	orr.w	r3, r3, #268435456	; 0x10000000
 800261e:	6413      	str	r3, [r2, #64]	; 0x40
 8002620:	4b25      	ldr	r3, [pc, #148]	; (80026b8 <SystemClock_Config+0xcc>)
 8002622:	6c1b      	ldr	r3, [r3, #64]	; 0x40
 8002624:	f003 5380 	and.w	r3, r3, #268435456	; 0x10000000
 8002628:	60bb      	str	r3, [r7, #8]
 800262a:	68bb      	ldr	r3, [r7, #8]
 800262c:	2300      	movs	r3, #0
 800262e:	607b      	str	r3, [r7, #4]
 8002630:	4b22      	ldr	r3, [pc, #136]	; (80026bc <SystemClock_Config+0xd0>)
 8002632:	681b      	ldr	r3, [r3, #0]
 8002634:	4a21      	ldr	r2, [pc, #132]	; (80026bc <SystemClock_Config+0xd0>)
 8002636:	f443 4380 	orr.w	r3, r3, #16384	; 0x4000
 800263a:	6013      	str	r3, [r2, #0]
 800263c:	4b1f      	ldr	r3, [pc, #124]	; (80026bc <SystemClock_Config+0xd0>)
 800263e:	681b      	ldr	r3, [r3, #0]
 8002640:	f403 4380 	and.w	r3, r3, #16384	; 0x4000
 8002644:	607b      	str	r3, [r7, #4]
 8002646:	687b      	ldr	r3, [r7, #4]
 8002648:	2302      	movs	r3, #2
 800264a:	623b      	str	r3, [r7, #32]
 800264c:	2301      	movs	r3, #1
 800264e:	62fb      	str	r3, [r7, #44]	; 0x2c
 8002650:	2310      	movs	r3, #16
 8002652:	633b      	str	r3, [r7, #48]	; 0x30
 8002654:	2302      	movs	r3, #2
 8002656:	63bb      	str	r3, [r7, #56]	; 0x38
 8002658:	2300      	movs	r3, #0
 800265a:	63fb      	str	r3, [r7, #60]	; 0x3c
 800265c:	2308      	movs	r3, #8
 800265e:	643b      	str	r3, [r7, #64]	; 0x40
 8002660:	2332      	movs	r3, #50	; 0x32
 8002662:	647b      	str	r3, [r7, #68]	; 0x44
 8002664:	2304      	movs	r3, #4
 8002666:	64bb      	str	r3, [r7, #72]	; 0x48
 8002668:	2307      	movs	r3, #7
 800266a:	64fb      	str	r3, [r7, #76]	; 0x4c
 800266c:	f107 0320 	add.w	r3, r7, #32
 8002670:	4618      	mov	r0, r3
 8002672:	f7fe fb93 	bl	8000d9c <HAL_RCC_OscConfig>
 8002676:	4603      	mov	r3, r0
 8002678:	2b00      	cmp	r3, #0
 800267a:	d001      	beq.n	8002680 <SystemClock_Config+0x94>
 800267c:	f000 fa62 	bl	8002b44 <Error_Handler>
 8002680:	230f      	movs	r3, #15
 8002682:	60fb      	str	r3, [r7, #12]
 8002684:	2302      	movs	r3, #2
 8002686:	613b      	str	r3, [r7, #16]
 8002688:	2300      	movs	r3, #0
 800268a:	617b      	str	r3, [r7, #20]
 800268c:	f44f 53c0 	mov.w	r3, #6144	; 0x1800
 8002690:	61bb      	str	r3, [r7, #24]
 8002692:	f44f 53a0 	mov.w	r3, #5120	; 0x1400
 8002696:	61fb      	str	r3, [r7, #28]
 8002698:	f107 030c 	add.w	r3, r7, #12
 800269c:	2100      	movs	r1, #0
 800269e:	4618      	mov	r0, r3
 80026a0:	f7fe fdec 	bl	800127c <HAL_RCC_ClockConfig>
 80026a4:	4603      	mov	r3, r0
 80026a6:	2b00      	cmp	r3, #0
 80026a8:	d001      	beq.n	80026ae <SystemClock_Config+0xc2>
 80026aa:	f000 fa4b 	bl	8002b44 <Error_Handler>
 80026ae:	bf00      	nop
 80026b0:	3750      	adds	r7, #80	; 0x50
 80026b2:	46bd      	mov	sp, r7
 80026b4:	bd80      	pop	{r7, pc}
 80026b6:	bf00      	nop
 80026b8:	40023800 	.word	0x40023800
 80026bc:	40007000 	.word	0x40007000

080026c0 <MX_TIM1_Init>:
 80026c0:	b580      	push	{r7, lr}
 80026c2:	b086      	sub	sp, #24
 80026c4:	af00      	add	r7, sp, #0
 80026c6:	f107 0308 	add.w	r3, r7, #8
 80026ca:	2200      	movs	r2, #0
 80026cc:	601a      	str	r2, [r3, #0]
 80026ce:	605a      	str	r2, [r3, #4]
 80026d0:	609a      	str	r2, [r3, #8]
 80026d2:	60da      	str	r2, [r3, #12]
 80026d4:	463b      	mov	r3, r7
 80026d6:	2200      	movs	r2, #0
 80026d8:	601a      	str	r2, [r3, #0]
 80026da:	605a      	str	r2, [r3, #4]
 80026dc:	4b1e      	ldr	r3, [pc, #120]	; (8002758 <MX_TIM1_Init+0x98>)
 80026de:	4a1f      	ldr	r2, [pc, #124]	; (800275c <MX_TIM1_Init+0x9c>)
 80026e0:	601a      	str	r2, [r3, #0]
 80026e2:	4b1d      	ldr	r3, [pc, #116]	; (8002758 <MX_TIM1_Init+0x98>)
 80026e4:	f24f 4223 	movw	r2, #62499	; 0xf423
 80026e8:	605a      	str	r2, [r3, #4]
 80026ea:	4b1b      	ldr	r3, [pc, #108]	; (8002758 <MX_TIM1_Init+0x98>)
 80026ec:	2200      	movs	r2, #0
 80026ee:	609a      	str	r2, [r3, #8]
 80026f0:	4b19      	ldr	r3, [pc, #100]	; (8002758 <MX_TIM1_Init+0x98>)
 80026f2:	2231      	movs	r2, #49	; 0x31
 80026f4:	60da      	str	r2, [r3, #12]
 80026f6:	4b18      	ldr	r3, [pc, #96]	; (8002758 <MX_TIM1_Init+0x98>)
 80026f8:	2200      	movs	r2, #0
 80026fa:	611a      	str	r2, [r3, #16]
 80026fc:	4b16      	ldr	r3, [pc, #88]	; (8002758 <MX_TIM1_Init+0x98>)
 80026fe:	2200      	movs	r2, #0
 8002700:	615a      	str	r2, [r3, #20]
 8002702:	4b15      	ldr	r3, [pc, #84]	; (8002758 <MX_TIM1_Init+0x98>)
 8002704:	2200      	movs	r2, #0
 8002706:	619a      	str	r2, [r3, #24]
 8002708:	4813      	ldr	r0, [pc, #76]	; (8002758 <MX_TIM1_Init+0x98>)
 800270a:	f7fe ffc7 	bl	800169c <HAL_TIM_Base_Init>
 800270e:	4603      	mov	r3, r0
 8002710:	2b00      	cmp	r3, #0
 8002712:	d001      	beq.n	8002718 <MX_TIM1_Init+0x58>
 8002714:	f000 fa16 	bl	8002b44 <Error_Handler>
 8002718:	f44f 5380 	mov.w	r3, #4096	; 0x1000
 800271c:	60bb      	str	r3, [r7, #8]
 800271e:	f107 0308 	add.w	r3, r7, #8
 8002722:	4619      	mov	r1, r3
 8002724:	480c      	ldr	r0, [pc, #48]	; (8002758 <MX_TIM1_Init+0x98>)
 8002726:	f7ff fa49 	bl	8001bbc <HAL_TIM_ConfigClockSource>
 800272a:	4603      	mov	r3, r0
 800272c:	2b00      	cmp	r3, #0
 800272e:	d001      	beq.n	8002734 <MX_TIM1_Init+0x74>
 8002730:	f000 fa08 	bl	8002b44 <Error_Handler>
 8002734:	2300      	movs	r3, #0
 8002736:	603b      	str	r3, [r7, #0]
 8002738:	2300      	movs	r3, #0
 800273a:	607b      	str	r3, [r7, #4]
 800273c:	463b      	mov	r3, r7
 800273e:	4619      	mov	r1, r3
 8002740:	4805      	ldr	r0, [pc, #20]	; (8002758 <MX_TIM1_Init+0x98>)
 8002742:	f7ff fe2b 	bl	800239c <HAL_TIMEx_MasterConfigSynchronization>
 8002746:	4603      	mov	r3, r0
 8002748:	2b00      	cmp	r3, #0
 800274a:	d001      	beq.n	8002750 <MX_TIM1_Init+0x90>
 800274c:	f000 f9fa 	bl	8002b44 <Error_Handler>
 8002750:	bf00      	nop
 8002752:	3718      	adds	r7, #24
 8002754:	46bd      	mov	sp, r7
 8002756:	bd80      	pop	{r7, pc}
 8002758:	2001a7b0 	.word	0x2001a7b0
 800275c:	40010000 	.word	0x40010000

08002760 <MX_TIM3_Init>:
 8002760:	b580      	push	{r7, lr}
 8002762:	b08e      	sub	sp, #56	; 0x38
 8002764:	af00      	add	r7, sp, #0
 8002766:	f107 0328 	add.w	r3, r7, #40	; 0x28
 800276a:	2200      	movs	r2, #0
 800276c:	601a      	str	r2, [r3, #0]
 800276e:	605a      	str	r2, [r3, #4]
 8002770:	609a      	str	r2, [r3, #8]
 8002772:	60da      	str	r2, [r3, #12]
 8002774:	f107 0320 	add.w	r3, r7, #32
 8002778:	2200      	movs	r2, #0
 800277a:	601a      	str	r2, [r3, #0]
 800277c:	605a      	str	r2, [r3, #4]
 800277e:	1d3b      	adds	r3, r7, #4
 8002780:	2200      	movs	r2, #0
 8002782:	601a      	str	r2, [r3, #0]
 8002784:	605a      	str	r2, [r3, #4]
 8002786:	609a      	str	r2, [r3, #8]
 8002788:	60da      	str	r2, [r3, #12]
 800278a:	611a      	str	r2, [r3, #16]
 800278c:	615a      	str	r2, [r3, #20]
 800278e:	619a      	str	r2, [r3, #24]
 8002790:	4b2d      	ldr	r3, [pc, #180]	; (8002848 <MX_TIM3_Init+0xe8>)
 8002792:	4a2e      	ldr	r2, [pc, #184]	; (800284c <MX_TIM3_Init+0xec>)
 8002794:	601a      	str	r2, [r3, #0]
 8002796:	4b2c      	ldr	r3, [pc, #176]	; (8002848 <MX_TIM3_Init+0xe8>)
 8002798:	2205      	movs	r2, #5
 800279a:	605a      	str	r2, [r3, #4]
 800279c:	4b2a      	ldr	r3, [pc, #168]	; (8002848 <MX_TIM3_Init+0xe8>)
 800279e:	2200      	movs	r2, #0
 80027a0:	609a      	str	r2, [r3, #8]
 80027a2:	4b29      	ldr	r3, [pc, #164]	; (8002848 <MX_TIM3_Init+0xe8>)
 80027a4:	f644 621f 	movw	r2, #19999	; 0x4e1f
 80027a8:	60da      	str	r2, [r3, #12]
 80027aa:	4b27      	ldr	r3, [pc, #156]	; (8002848 <MX_TIM3_Init+0xe8>)
 80027ac:	2200      	movs	r2, #0
 80027ae:	611a      	str	r2, [r3, #16]
 80027b0:	4b25      	ldr	r3, [pc, #148]	; (8002848 <MX_TIM3_Init+0xe8>)
 80027b2:	2280      	movs	r2, #128	; 0x80
 80027b4:	619a      	str	r2, [r3, #24]
 80027b6:	4824      	ldr	r0, [pc, #144]	; (8002848 <MX_TIM3_Init+0xe8>)
 80027b8:	f7fe ff70 	bl	800169c <HAL_TIM_Base_Init>
 80027bc:	4603      	mov	r3, r0
 80027be:	2b00      	cmp	r3, #0
 80027c0:	d001      	beq.n	80027c6 <MX_TIM3_Init+0x66>
 80027c2:	f000 f9bf 	bl	8002b44 <Error_Handler>
 80027c6:	f44f 5380 	mov.w	r3, #4096	; 0x1000
 80027ca:	62bb      	str	r3, [r7, #40]	; 0x28
 80027cc:	f107 0328 	add.w	r3, r7, #40	; 0x28
 80027d0:	4619      	mov	r1, r3
 80027d2:	481d      	ldr	r0, [pc, #116]	; (8002848 <MX_TIM3_Init+0xe8>)
 80027d4:	f7ff f9f2 	bl	8001bbc <HAL_TIM_ConfigClockSource>
 80027d8:	4603      	mov	r3, r0
 80027da:	2b00      	cmp	r3, #0
 80027dc:	d001      	beq.n	80027e2 <MX_TIM3_Init+0x82>
 80027de:	f000 f9b1 	bl	8002b44 <Error_Handler>
 80027e2:	4819      	ldr	r0, [pc, #100]	; (8002848 <MX_TIM3_Init+0xe8>)
 80027e4:	f7fe ffa9 	bl	800173a <HAL_TIM_PWM_Init>
 80027e8:	4603      	mov	r3, r0
 80027ea:	2b00      	cmp	r3, #0
 80027ec:	d001      	beq.n	80027f2 <MX_TIM3_Init+0x92>
 80027ee:	f000 f9a9 	bl	8002b44 <Error_Handler>
 80027f2:	2300      	movs	r3, #0
 80027f4:	623b      	str	r3, [r7, #32]
 80027f6:	2300      	movs	r3, #0
 80027f8:	627b      	str	r3, [r7, #36]	; 0x24
 80027fa:	f107 0320 	add.w	r3, r7, #32
 80027fe:	4619      	mov	r1, r3
 8002800:	4811      	ldr	r0, [pc, #68]	; (8002848 <MX_TIM3_Init+0xe8>)
 8002802:	f7ff fdcb 	bl	800239c <HAL_TIMEx_MasterConfigSynchronization>
 8002806:	4603      	mov	r3, r0
 8002808:	2b00      	cmp	r3, #0
 800280a:	d001      	beq.n	8002810 <MX_TIM3_Init+0xb0>
 800280c:	f000 f99a 	bl	8002b44 <Error_Handler>
 8002810:	2360      	movs	r3, #96	; 0x60
 8002812:	607b      	str	r3, [r7, #4]
 8002814:	f240 5314 	movw	r3, #1300	; 0x514
 8002818:	60bb      	str	r3, [r7, #8]
 800281a:	2300      	movs	r3, #0
 800281c:	60fb      	str	r3, [r7, #12]
 800281e:	2300      	movs	r3, #0
 8002820:	617b      	str	r3, [r7, #20]
 8002822:	1d3b      	adds	r3, r7, #4
 8002824:	2200      	movs	r2, #0
 8002826:	4619      	mov	r1, r3
 8002828:	4807      	ldr	r0, [pc, #28]	; (8002848 <MX_TIM3_Init+0xe8>)
 800282a:	f7ff f901 	bl	8001a30 <HAL_TIM_PWM_ConfigChannel>
 800282e:	4603      	mov	r3, r0
 8002830:	2b00      	cmp	r3, #0
 8002832:	d001      	beq.n	8002838 <MX_TIM3_Init+0xd8>
 8002834:	f000 f986 	bl	8002b44 <Error_Handler>
 8002838:	4803      	ldr	r0, [pc, #12]	; (8002848 <MX_TIM3_Init+0xe8>)
 800283a:	f000 f9eb 	bl	8002c14 <HAL_TIM_MspPostInit>
 800283e:	bf00      	nop
 8002840:	3738      	adds	r7, #56	; 0x38
 8002842:	46bd      	mov	sp, r7
 8002844:	bd80      	pop	{r7, pc}
 8002846:	bf00      	nop
 8002848:	2001a770 	.word	0x2001a770
 800284c:	40000400 	.word	0x40000400

08002850 <MX_GPIO_Init>:
 8002850:	b580      	push	{r7, lr}
 8002852:	b08c      	sub	sp, #48	; 0x30
 8002854:	af00      	add	r7, sp, #0
 8002856:	f107 031c 	add.w	r3, r7, #28
 800285a:	2200      	movs	r2, #0
 800285c:	601a      	str	r2, [r3, #0]
 800285e:	605a      	str	r2, [r3, #4]
 8002860:	609a      	str	r2, [r3, #8]
 8002862:	60da      	str	r2, [r3, #12]
 8002864:	611a      	str	r2, [r3, #16]
 8002866:	2300      	movs	r3, #0
 8002868:	61bb      	str	r3, [r7, #24]
 800286a:	4ba6      	ldr	r3, [pc, #664]	; (8002b04 <MX_GPIO_Init+0x2b4>)
 800286c:	6b1b      	ldr	r3, [r3, #48]	; 0x30
 800286e:	4aa5      	ldr	r2, [pc, #660]	; (8002b04 <MX_GPIO_Init+0x2b4>)
 8002870:	f043 0310 	orr.w	r3, r3, #16
 8002874:	6313      	str	r3, [r2, #48]	; 0x30
 8002876:	4ba3      	ldr	r3, [pc, #652]	; (8002b04 <MX_GPIO_Init+0x2b4>)
 8002878:	6b1b      	ldr	r3, [r3, #48]	; 0x30
 800287a:	f003 0310 	and.w	r3, r3, #16
 800287e:	61bb      	str	r3, [r7, #24]
 8002880:	69bb      	ldr	r3, [r7, #24]
 8002882:	2300      	movs	r3, #0
 8002884:	617b      	str	r3, [r7, #20]
 8002886:	4b9f      	ldr	r3, [pc, #636]	; (8002b04 <MX_GPIO_Init+0x2b4>)
 8002888:	6b1b      	ldr	r3, [r3, #48]	; 0x30
 800288a:	4a9e      	ldr	r2, [pc, #632]	; (8002b04 <MX_GPIO_Init+0x2b4>)
 800288c:	f043 0304 	orr.w	r3, r3, #4
 8002890:	6313      	str	r3, [r2, #48]	; 0x30
 8002892:	4b9c      	ldr	r3, [pc, #624]	; (8002b04 <MX_GPIO_Init+0x2b4>)
 8002894:	6b1b      	ldr	r3, [r3, #48]	; 0x30
 8002896:	f003 0304 	and.w	r3, r3, #4
 800289a:	617b      	str	r3, [r7, #20]
 800289c:	697b      	ldr	r3, [r7, #20]
 800289e:	2300      	movs	r3, #0
 80028a0:	613b      	str	r3, [r7, #16]
 80028a2:	4b98      	ldr	r3, [pc, #608]	; (8002b04 <MX_GPIO_Init+0x2b4>)
 80028a4:	6b1b      	ldr	r3, [r3, #48]	; 0x30
 80028a6:	4a97      	ldr	r2, [pc, #604]	; (8002b04 <MX_GPIO_Init+0x2b4>)
 80028a8:	f043 0380 	orr.w	r3, r3, #128	; 0x80
 80028ac:	6313      	str	r3, [r2, #48]	; 0x30
 80028ae:	4b95      	ldr	r3, [pc, #596]	; (8002b04 <MX_GPIO_Init+0x2b4>)
 80028b0:	6b1b      	ldr	r3, [r3, #48]	; 0x30
 80028b2:	f003 0380 	and.w	r3, r3, #128	; 0x80
 80028b6:	613b      	str	r3, [r7, #16]
 80028b8:	693b      	ldr	r3, [r7, #16]
 80028ba:	2300      	movs	r3, #0
 80028bc:	60fb      	str	r3, [r7, #12]
 80028be:	4b91      	ldr	r3, [pc, #580]	; (8002b04 <MX_GPIO_Init+0x2b4>)
 80028c0:	6b1b      	ldr	r3, [r3, #48]	; 0x30
 80028c2:	4a90      	ldr	r2, [pc, #576]	; (8002b04 <MX_GPIO_Init+0x2b4>)
 80028c4:	f043 0301 	orr.w	r3, r3, #1
 80028c8:	6313      	str	r3, [r2, #48]	; 0x30
 80028ca:	4b8e      	ldr	r3, [pc, #568]	; (8002b04 <MX_GPIO_Init+0x2b4>)
 80028cc:	6b1b      	ldr	r3, [r3, #48]	; 0x30
 80028ce:	f003 0301 	and.w	r3, r3, #1
 80028d2:	60fb      	str	r3, [r7, #12]
 80028d4:	68fb      	ldr	r3, [r7, #12]
 80028d6:	2300      	movs	r3, #0
 80028d8:	60bb      	str	r3, [r7, #8]
 80028da:	4b8a      	ldr	r3, [pc, #552]	; (8002b04 <MX_GPIO_Init+0x2b4>)
 80028dc:	6b1b      	ldr	r3, [r3, #48]	; 0x30
 80028de:	4a89      	ldr	r2, [pc, #548]	; (8002b04 <MX_GPIO_Init+0x2b4>)
 80028e0:	f043 0302 	orr.w	r3, r3, #2
 80028e4:	6313      	str	r3, [r2, #48]	; 0x30
 80028e6:	4b87      	ldr	r3, [pc, #540]	; (8002b04 <MX_GPIO_Init+0x2b4>)
 80028e8:	6b1b      	ldr	r3, [r3, #48]	; 0x30
 80028ea:	f003 0302 	and.w	r3, r3, #2
 80028ee:	60bb      	str	r3, [r7, #8]
 80028f0:	68bb      	ldr	r3, [r7, #8]
 80028f2:	2300      	movs	r3, #0
 80028f4:	607b      	str	r3, [r7, #4]
 80028f6:	4b83      	ldr	r3, [pc, #524]	; (8002b04 <MX_GPIO_Init+0x2b4>)
 80028f8:	6b1b      	ldr	r3, [r3, #48]	; 0x30
 80028fa:	4a82      	ldr	r2, [pc, #520]	; (8002b04 <MX_GPIO_Init+0x2b4>)
 80028fc:	f043 0308 	orr.w	r3, r3, #8
 8002900:	6313      	str	r3, [r2, #48]	; 0x30
 8002902:	4b80      	ldr	r3, [pc, #512]	; (8002b04 <MX_GPIO_Init+0x2b4>)
 8002904:	6b1b      	ldr	r3, [r3, #48]	; 0x30
 8002906:	f003 0308 	and.w	r3, r3, #8
 800290a:	607b      	str	r3, [r7, #4]
 800290c:	687b      	ldr	r3, [r7, #4]
 800290e:	2200      	movs	r2, #0
 8002910:	2108      	movs	r1, #8
 8002912:	487d      	ldr	r0, [pc, #500]	; (8002b08 <MX_GPIO_Init+0x2b8>)
 8002914:	f7fe fa0e 	bl	8000d34 <HAL_GPIO_WritePin>
 8002918:	2201      	movs	r2, #1
 800291a:	2101      	movs	r1, #1
 800291c:	487b      	ldr	r0, [pc, #492]	; (8002b0c <MX_GPIO_Init+0x2bc>)
 800291e:	f7fe fa09 	bl	8000d34 <HAL_GPIO_WritePin>
 8002922:	2200      	movs	r2, #0
 8002924:	f24f 0110 	movw	r1, #61456	; 0xf010
 8002928:	4879      	ldr	r0, [pc, #484]	; (8002b10 <MX_GPIO_Init+0x2c0>)
 800292a:	f7fe fa03 	bl	8000d34 <HAL_GPIO_WritePin>
 800292e:	2308      	movs	r3, #8
 8002930:	61fb      	str	r3, [r7, #28]
 8002932:	2301      	movs	r3, #1
 8002934:	623b      	str	r3, [r7, #32]
 8002936:	2300      	movs	r3, #0
 8002938:	627b      	str	r3, [r7, #36]	; 0x24
 800293a:	2300      	movs	r3, #0
 800293c:	62bb      	str	r3, [r7, #40]	; 0x28
 800293e:	f107 031c 	add.w	r3, r7, #28
 8002942:	4619      	mov	r1, r3
 8002944:	4870      	ldr	r0, [pc, #448]	; (8002b08 <MX_GPIO_Init+0x2b8>)
 8002946:	f7fe f843 	bl	80009d0 <HAL_GPIO_Init>
 800294a:	2301      	movs	r3, #1
 800294c:	61fb      	str	r3, [r7, #28]
 800294e:	2301      	movs	r3, #1
 8002950:	623b      	str	r3, [r7, #32]
 8002952:	2300      	movs	r3, #0
 8002954:	627b      	str	r3, [r7, #36]	; 0x24
 8002956:	2300      	movs	r3, #0
 8002958:	62bb      	str	r3, [r7, #40]	; 0x28
 800295a:	f107 031c 	add.w	r3, r7, #28
 800295e:	4619      	mov	r1, r3
 8002960:	486a      	ldr	r0, [pc, #424]	; (8002b0c <MX_GPIO_Init+0x2bc>)
 8002962:	f7fe f835 	bl	80009d0 <HAL_GPIO_Init>
 8002966:	2308      	movs	r3, #8
 8002968:	61fb      	str	r3, [r7, #28]
 800296a:	2302      	movs	r3, #2
 800296c:	623b      	str	r3, [r7, #32]
 800296e:	2300      	movs	r3, #0
 8002970:	627b      	str	r3, [r7, #36]	; 0x24
 8002972:	2300      	movs	r3, #0
 8002974:	62bb      	str	r3, [r7, #40]	; 0x28
 8002976:	2305      	movs	r3, #5
 8002978:	62fb      	str	r3, [r7, #44]	; 0x2c
 800297a:	f107 031c 	add.w	r3, r7, #28
 800297e:	4619      	mov	r1, r3
 8002980:	4862      	ldr	r0, [pc, #392]	; (8002b0c <MX_GPIO_Init+0x2bc>)
 8002982:	f7fe f825 	bl	80009d0 <HAL_GPIO_Init>
 8002986:	2301      	movs	r3, #1
 8002988:	61fb      	str	r3, [r7, #28]
 800298a:	4b62      	ldr	r3, [pc, #392]	; (8002b14 <MX_GPIO_Init+0x2c4>)
 800298c:	623b      	str	r3, [r7, #32]
 800298e:	2300      	movs	r3, #0
 8002990:	627b      	str	r3, [r7, #36]	; 0x24
 8002992:	f107 031c 	add.w	r3, r7, #28
 8002996:	4619      	mov	r1, r3
 8002998:	485f      	ldr	r0, [pc, #380]	; (8002b18 <MX_GPIO_Init+0x2c8>)
 800299a:	f7fe f819 	bl	80009d0 <HAL_GPIO_Init>
 800299e:	2310      	movs	r3, #16
 80029a0:	61fb      	str	r3, [r7, #28]
 80029a2:	2302      	movs	r3, #2
 80029a4:	623b      	str	r3, [r7, #32]
 80029a6:	2300      	movs	r3, #0
 80029a8:	627b      	str	r3, [r7, #36]	; 0x24
 80029aa:	2300      	movs	r3, #0
 80029ac:	62bb      	str	r3, [r7, #40]	; 0x28
 80029ae:	2306      	movs	r3, #6
 80029b0:	62fb      	str	r3, [r7, #44]	; 0x2c
 80029b2:	f107 031c 	add.w	r3, r7, #28
 80029b6:	4619      	mov	r1, r3
 80029b8:	4857      	ldr	r0, [pc, #348]	; (8002b18 <MX_GPIO_Init+0x2c8>)
 80029ba:	f7fe f809 	bl	80009d0 <HAL_GPIO_Init>
 80029be:	23e0      	movs	r3, #224	; 0xe0
 80029c0:	61fb      	str	r3, [r7, #28]
 80029c2:	2302      	movs	r3, #2
 80029c4:	623b      	str	r3, [r7, #32]
 80029c6:	2300      	movs	r3, #0
 80029c8:	627b      	str	r3, [r7, #36]	; 0x24
 80029ca:	2300      	movs	r3, #0
 80029cc:	62bb      	str	r3, [r7, #40]	; 0x28
 80029ce:	2305      	movs	r3, #5
 80029d0:	62fb      	str	r3, [r7, #44]	; 0x2c
 80029d2:	f107 031c 	add.w	r3, r7, #28
 80029d6:	4619      	mov	r1, r3
 80029d8:	484f      	ldr	r0, [pc, #316]	; (8002b18 <MX_GPIO_Init+0x2c8>)
 80029da:	f7fd fff9 	bl	80009d0 <HAL_GPIO_Init>
 80029de:	2304      	movs	r3, #4
 80029e0:	61fb      	str	r3, [r7, #28]
 80029e2:	2300      	movs	r3, #0
 80029e4:	623b      	str	r3, [r7, #32]
 80029e6:	2300      	movs	r3, #0
 80029e8:	627b      	str	r3, [r7, #36]	; 0x24
 80029ea:	f107 031c 	add.w	r3, r7, #28
 80029ee:	4619      	mov	r1, r3
 80029f0:	484a      	ldr	r0, [pc, #296]	; (8002b1c <MX_GPIO_Init+0x2cc>)
 80029f2:	f7fd ffed 	bl	80009d0 <HAL_GPIO_Init>
 80029f6:	2380      	movs	r3, #128	; 0x80
 80029f8:	61fb      	str	r3, [r7, #28]
 80029fa:	2300      	movs	r3, #0
 80029fc:	623b      	str	r3, [r7, #32]
 80029fe:	2301      	movs	r3, #1
 8002a00:	627b      	str	r3, [r7, #36]	; 0x24
 8002a02:	f107 031c 	add.w	r3, r7, #28
 8002a06:	4619      	mov	r1, r3
 8002a08:	483f      	ldr	r0, [pc, #252]	; (8002b08 <MX_GPIO_Init+0x2b8>)
 8002a0a:	f7fd ffe1 	bl	80009d0 <HAL_GPIO_Init>
 8002a0e:	f44f 6380 	mov.w	r3, #1024	; 0x400
 8002a12:	61fb      	str	r3, [r7, #28]
 8002a14:	2302      	movs	r3, #2
 8002a16:	623b      	str	r3, [r7, #32]
 8002a18:	2300      	movs	r3, #0
 8002a1a:	627b      	str	r3, [r7, #36]	; 0x24
 8002a1c:	2300      	movs	r3, #0
 8002a1e:	62bb      	str	r3, [r7, #40]	; 0x28
 8002a20:	2305      	movs	r3, #5
 8002a22:	62fb      	str	r3, [r7, #44]	; 0x2c
 8002a24:	f107 031c 	add.w	r3, r7, #28
 8002a28:	4619      	mov	r1, r3
 8002a2a:	483c      	ldr	r0, [pc, #240]	; (8002b1c <MX_GPIO_Init+0x2cc>)
 8002a2c:	f7fd ffd0 	bl	80009d0 <HAL_GPIO_Init>
 8002a30:	f24f 0310 	movw	r3, #61456	; 0xf010
 8002a34:	61fb      	str	r3, [r7, #28]
 8002a36:	2301      	movs	r3, #1
 8002a38:	623b      	str	r3, [r7, #32]
 8002a3a:	2300      	movs	r3, #0
 8002a3c:	627b      	str	r3, [r7, #36]	; 0x24
 8002a3e:	2300      	movs	r3, #0
 8002a40:	62bb      	str	r3, [r7, #40]	; 0x28
 8002a42:	f107 031c 	add.w	r3, r7, #28
 8002a46:	4619      	mov	r1, r3
 8002a48:	4831      	ldr	r0, [pc, #196]	; (8002b10 <MX_GPIO_Init+0x2c0>)
 8002a4a:	f7fd ffc1 	bl	80009d0 <HAL_GPIO_Init>
 8002a4e:	f44f 53a4 	mov.w	r3, #5248	; 0x1480
 8002a52:	61fb      	str	r3, [r7, #28]
 8002a54:	2302      	movs	r3, #2
 8002a56:	623b      	str	r3, [r7, #32]
 8002a58:	2300      	movs	r3, #0
 8002a5a:	627b      	str	r3, [r7, #36]	; 0x24
 8002a5c:	2300      	movs	r3, #0
 8002a5e:	62bb      	str	r3, [r7, #40]	; 0x28
 8002a60:	2306      	movs	r3, #6
 8002a62:	62fb      	str	r3, [r7, #44]	; 0x2c
 8002a64:	f107 031c 	add.w	r3, r7, #28
 8002a68:	4619      	mov	r1, r3
 8002a6a:	4828      	ldr	r0, [pc, #160]	; (8002b0c <MX_GPIO_Init+0x2bc>)
 8002a6c:	f7fd ffb0 	bl	80009d0 <HAL_GPIO_Init>
 8002a70:	f44f 53e0 	mov.w	r3, #7168	; 0x1c00
 8002a74:	61fb      	str	r3, [r7, #28]
 8002a76:	2302      	movs	r3, #2
 8002a78:	623b      	str	r3, [r7, #32]
 8002a7a:	2300      	movs	r3, #0
 8002a7c:	627b      	str	r3, [r7, #36]	; 0x24
 8002a7e:	2300      	movs	r3, #0
 8002a80:	62bb      	str	r3, [r7, #40]	; 0x28
 8002a82:	230a      	movs	r3, #10
 8002a84:	62fb      	str	r3, [r7, #44]	; 0x2c
 8002a86:	f107 031c 	add.w	r3, r7, #28
 8002a8a:	4619      	mov	r1, r3
 8002a8c:	4822      	ldr	r0, [pc, #136]	; (8002b18 <MX_GPIO_Init+0x2c8>)
 8002a8e:	f7fd ff9f 	bl	80009d0 <HAL_GPIO_Init>
 8002a92:	2301      	movs	r3, #1
 8002a94:	61fb      	str	r3, [r7, #28]
 8002a96:	2300      	movs	r3, #0
 8002a98:	623b      	str	r3, [r7, #32]
 8002a9a:	2301      	movs	r3, #1
 8002a9c:	627b      	str	r3, [r7, #36]	; 0x24
 8002a9e:	f107 031c 	add.w	r3, r7, #28
 8002aa2:	4619      	mov	r1, r3
 8002aa4:	481a      	ldr	r0, [pc, #104]	; (8002b10 <MX_GPIO_Init+0x2c0>)
 8002aa6:	f7fd ff93 	bl	80009d0 <HAL_GPIO_Init>
 8002aaa:	2320      	movs	r3, #32
 8002aac:	61fb      	str	r3, [r7, #28]
 8002aae:	2300      	movs	r3, #0
 8002ab0:	623b      	str	r3, [r7, #32]
 8002ab2:	2300      	movs	r3, #0
 8002ab4:	627b      	str	r3, [r7, #36]	; 0x24
 8002ab6:	f107 031c 	add.w	r3, r7, #28
 8002aba:	4619      	mov	r1, r3
 8002abc:	4814      	ldr	r0, [pc, #80]	; (8002b10 <MX_GPIO_Init+0x2c0>)
 8002abe:	f7fd ff87 	bl	80009d0 <HAL_GPIO_Init>
 8002ac2:	f44f 7310 	mov.w	r3, #576	; 0x240
 8002ac6:	61fb      	str	r3, [r7, #28]
 8002ac8:	2312      	movs	r3, #18
 8002aca:	623b      	str	r3, [r7, #32]
 8002acc:	2301      	movs	r3, #1
 8002ace:	627b      	str	r3, [r7, #36]	; 0x24
 8002ad0:	2300      	movs	r3, #0
 8002ad2:	62bb      	str	r3, [r7, #40]	; 0x28
 8002ad4:	2304      	movs	r3, #4
 8002ad6:	62fb      	str	r3, [r7, #44]	; 0x2c
 8002ad8:	f107 031c 	add.w	r3, r7, #28
 8002adc:	4619      	mov	r1, r3
 8002ade:	480f      	ldr	r0, [pc, #60]	; (8002b1c <MX_GPIO_Init+0x2cc>)
 8002ae0:	f7fd ff76 	bl	80009d0 <HAL_GPIO_Init>
 8002ae4:	2302      	movs	r3, #2
 8002ae6:	61fb      	str	r3, [r7, #28]
 8002ae8:	4b0a      	ldr	r3, [pc, #40]	; (8002b14 <MX_GPIO_Init+0x2c4>)
 8002aea:	623b      	str	r3, [r7, #32]
 8002aec:	2300      	movs	r3, #0
 8002aee:	627b      	str	r3, [r7, #36]	; 0x24
 8002af0:	f107 031c 	add.w	r3, r7, #28
 8002af4:	4619      	mov	r1, r3
 8002af6:	4804      	ldr	r0, [pc, #16]	; (8002b08 <MX_GPIO_Init+0x2b8>)
 8002af8:	f7fd ff6a 	bl	80009d0 <HAL_GPIO_Init>
 8002afc:	bf00      	nop
 8002afe:	3730      	adds	r7, #48	; 0x30
 8002b00:	46bd      	mov	sp, r7
 8002b02:	bd80      	pop	{r7, pc}
 8002b04:	40023800 	.word	0x40023800
 8002b08:	40021000 	.word	0x40021000
 8002b0c:	40020800 	.word	0x40020800
 8002b10:	40020c00 	.word	0x40020c00
 8002b14:	10120000 	.word	0x10120000
 8002b18:	40020000 	.word	0x40020000
 8002b1c:	40020400 	.word	0x40020400

08002b20 <HAL_TIM_PeriodElapsedCallback>:
 8002b20:	b580      	push	{r7, lr}
 8002b22:	b082      	sub	sp, #8
 8002b24:	af00      	add	r7, sp, #0
 8002b26:	6078      	str	r0, [r7, #4]
 8002b28:	687b      	ldr	r3, [r7, #4]
 8002b2a:	681b      	ldr	r3, [r3, #0]
 8002b2c:	4a04      	ldr	r2, [pc, #16]	; (8002b40 <HAL_TIM_PeriodElapsedCallback+0x20>)
 8002b2e:	4293      	cmp	r3, r2
 8002b30:	d101      	bne.n	8002b36 <HAL_TIM_PeriodElapsedCallback+0x16>
 8002b32:	f7fd fe4b 	bl	80007cc <HAL_IncTick>
 8002b36:	bf00      	nop
 8002b38:	3708      	adds	r7, #8
 8002b3a:	46bd      	mov	sp, r7
 8002b3c:	bd80      	pop	{r7, pc}
 8002b3e:	bf00      	nop
 8002b40:	40000c00 	.word	0x40000c00

08002b44 <Error_Handler>:
 8002b44:	b480      	push	{r7}
 8002b46:	af00      	add	r7, sp, #0
 8002b48:	bf00      	nop
 8002b4a:	46bd      	mov	sp, r7
 8002b4c:	f85d 7b04 	ldr.w	r7, [sp], #4
 8002b50:	4770      	bx	lr
	...

08002b54 <HAL_MspInit>:
 8002b54:	b580      	push	{r7, lr}
 8002b56:	b082      	sub	sp, #8
 8002b58:	af00      	add	r7, sp, #0
 8002b5a:	2300      	movs	r3, #0
 8002b5c:	607b      	str	r3, [r7, #4]
 8002b5e:	4b10      	ldr	r3, [pc, #64]	; (8002ba0 <HAL_MspInit+0x4c>)
 8002b60:	6c5b      	ldr	r3, [r3, #68]	; 0x44
 8002b62:	4a0f      	ldr	r2, [pc, #60]	; (8002ba0 <HAL_MspInit+0x4c>)
 8002b64:	f443 4380 	orr.w	r3, r3, #16384	; 0x4000
 8002b68:	6453      	str	r3, [r2, #68]	; 0x44
 8002b6a:	4b0d      	ldr	r3, [pc, #52]	; (8002ba0 <HAL_MspInit+0x4c>)
 8002b6c:	6c5b      	ldr	r3, [r3, #68]	; 0x44
 8002b6e:	f403 4380 	and.w	r3, r3, #16384	; 0x4000
 8002b72:	607b      	str	r3, [r7, #4]
 8002b74:	687b      	ldr	r3, [r7, #4]
 8002b76:	2300      	movs	r3, #0
 8002b78:	603b      	str	r3, [r7, #0]
 8002b7a:	4b09      	ldr	r3, [pc, #36]	; (8002ba0 <HAL_MspInit+0x4c>)
 8002b7c:	6c1b      	ldr	r3, [r3, #64]	; 0x40
 8002b7e:	4a08      	ldr	r2, [pc, #32]	; (8002ba0 <HAL_MspInit+0x4c>)
 8002b80:	f043 5380 	orr.w	r3, r3, #268435456	; 0x10000000
 8002b84:	6413      	str	r3, [r2, #64]	; 0x40
 8002b86:	4b06      	ldr	r3, [pc, #24]	; (8002ba0 <HAL_MspInit+0x4c>)
 8002b88:	6c1b      	ldr	r3, [r3, #64]	; 0x40
 8002b8a:	f003 5380 	and.w	r3, r3, #268435456	; 0x10000000
 8002b8e:	603b      	str	r3, [r7, #0]
 8002b90:	683b      	ldr	r3, [r7, #0]
 8002b92:	f002 fae5 	bl	8005160 <vInitPrioGroupValue>
 8002b96:	bf00      	nop
 8002b98:	3708      	adds	r7, #8
 8002b9a:	46bd      	mov	sp, r7
 8002b9c:	bd80      	pop	{r7, pc}
 8002b9e:	bf00      	nop
 8002ba0:	40023800 	.word	0x40023800

08002ba4 <HAL_TIM_Base_MspInit>:
 8002ba4:	b480      	push	{r7}
 8002ba6:	b085      	sub	sp, #20
 8002ba8:	af00      	add	r7, sp, #0
 8002baa:	6078      	str	r0, [r7, #4]
 8002bac:	687b      	ldr	r3, [r7, #4]
 8002bae:	681b      	ldr	r3, [r3, #0]
 8002bb0:	4a15      	ldr	r2, [pc, #84]	; (8002c08 <HAL_TIM_Base_MspInit+0x64>)
 8002bb2:	4293      	cmp	r3, r2
 8002bb4:	d10e      	bne.n	8002bd4 <HAL_TIM_Base_MspInit+0x30>
 8002bb6:	2300      	movs	r3, #0
 8002bb8:	60fb      	str	r3, [r7, #12]
 8002bba:	4b14      	ldr	r3, [pc, #80]	; (8002c0c <HAL_TIM_Base_MspInit+0x68>)
 8002bbc:	6c5b      	ldr	r3, [r3, #68]	; 0x44
 8002bbe:	4a13      	ldr	r2, [pc, #76]	; (8002c0c <HAL_TIM_Base_MspInit+0x68>)
 8002bc0:	f043 0301 	orr.w	r3, r3, #1
 8002bc4:	6453      	str	r3, [r2, #68]	; 0x44
 8002bc6:	4b11      	ldr	r3, [pc, #68]	; (8002c0c <HAL_TIM_Base_MspInit+0x68>)
 8002bc8:	6c5b      	ldr	r3, [r3, #68]	; 0x44
 8002bca:	f003 0301 	and.w	r3, r3, #1
 8002bce:	60fb      	str	r3, [r7, #12]
 8002bd0:	68fb      	ldr	r3, [r7, #12]
 8002bd2:	e012      	b.n	8002bfa <HAL_TIM_Base_MspInit+0x56>
 8002bd4:	687b      	ldr	r3, [r7, #4]
 8002bd6:	681b      	ldr	r3, [r3, #0]
 8002bd8:	4a0d      	ldr	r2, [pc, #52]	; (8002c10 <HAL_TIM_Base_MspInit+0x6c>)
 8002bda:	4293      	cmp	r3, r2
 8002bdc:	d10d      	bne.n	8002bfa <HAL_TIM_Base_MspInit+0x56>
 8002bde:	2300      	movs	r3, #0
 8002be0:	60bb      	str	r3, [r7, #8]
 8002be2:	4b0a      	ldr	r3, [pc, #40]	; (8002c0c <HAL_TIM_Base_MspInit+0x68>)
 8002be4:	6c1b      	ldr	r3, [r3, #64]	; 0x40
 8002be6:	4a09      	ldr	r2, [pc, #36]	; (8002c0c <HAL_TIM_Base_MspInit+0x68>)
 8002be8:	f043 0302 	orr.w	r3, r3, #2
 8002bec:	6413      	str	r3, [r2, #64]	; 0x40
 8002bee:	4b07      	ldr	r3, [pc, #28]	; (8002c0c <HAL_TIM_Base_MspInit+0x68>)
 8002bf0:	6c1b      	ldr	r3, [r3, #64]	; 0x40
 8002bf2:	f003 0302 	and.w	r3, r3, #2
 8002bf6:	60bb      	str	r3, [r7, #8]
 8002bf8:	68bb      	ldr	r3, [r7, #8]
 8002bfa:	bf00      	nop
 8002bfc:	3714      	adds	r7, #20
 8002bfe:	46bd      	mov	sp, r7
 8002c00:	f85d 7b04 	ldr.w	r7, [sp], #4
 8002c04:	4770      	bx	lr
 8002c06:	bf00      	nop
 8002c08:	40010000 	.word	0x40010000
 8002c0c:	40023800 	.word	0x40023800
 8002c10:	40000400 	.word	0x40000400

08002c14 <HAL_TIM_MspPostInit>:
 8002c14:	b580      	push	{r7, lr}
 8002c16:	b088      	sub	sp, #32
 8002c18:	af00      	add	r7, sp, #0
 8002c1a:	6078      	str	r0, [r7, #4]
 8002c1c:	f107 030c 	add.w	r3, r7, #12
 8002c20:	2200      	movs	r2, #0
 8002c22:	601a      	str	r2, [r3, #0]
 8002c24:	605a      	str	r2, [r3, #4]
 8002c26:	609a      	str	r2, [r3, #8]
 8002c28:	60da      	str	r2, [r3, #12]
 8002c2a:	611a      	str	r2, [r3, #16]
 8002c2c:	687b      	ldr	r3, [r7, #4]
 8002c2e:	681b      	ldr	r3, [r3, #0]
 8002c30:	4a12      	ldr	r2, [pc, #72]	; (8002c7c <HAL_TIM_MspPostInit+0x68>)
 8002c32:	4293      	cmp	r3, r2
 8002c34:	d11d      	bne.n	8002c72 <HAL_TIM_MspPostInit+0x5e>
 8002c36:	2300      	movs	r3, #0
 8002c38:	60bb      	str	r3, [r7, #8]
 8002c3a:	4b11      	ldr	r3, [pc, #68]	; (8002c80 <HAL_TIM_MspPostInit+0x6c>)
 8002c3c:	6b1b      	ldr	r3, [r3, #48]	; 0x30
 8002c3e:	4a10      	ldr	r2, [pc, #64]	; (8002c80 <HAL_TIM_MspPostInit+0x6c>)
 8002c40:	f043 0304 	orr.w	r3, r3, #4
 8002c44:	6313      	str	r3, [r2, #48]	; 0x30
 8002c46:	4b0e      	ldr	r3, [pc, #56]	; (8002c80 <HAL_TIM_MspPostInit+0x6c>)
 8002c48:	6b1b      	ldr	r3, [r3, #48]	; 0x30
 8002c4a:	f003 0304 	and.w	r3, r3, #4
 8002c4e:	60bb      	str	r3, [r7, #8]
 8002c50:	68bb      	ldr	r3, [r7, #8]
 8002c52:	2340      	movs	r3, #64	; 0x40
 8002c54:	60fb      	str	r3, [r7, #12]
 8002c56:	2302      	movs	r3, #2
 8002c58:	613b      	str	r3, [r7, #16]
 8002c5a:	2300      	movs	r3, #0
 8002c5c:	617b      	str	r3, [r7, #20]
 8002c5e:	2300      	movs	r3, #0
 8002c60:	61bb      	str	r3, [r7, #24]
 8002c62:	2302      	movs	r3, #2
 8002c64:	61fb      	str	r3, [r7, #28]
 8002c66:	f107 030c 	add.w	r3, r7, #12
 8002c6a:	4619      	mov	r1, r3
 8002c6c:	4805      	ldr	r0, [pc, #20]	; (8002c84 <HAL_TIM_MspPostInit+0x70>)
 8002c6e:	f7fd feaf 	bl	80009d0 <HAL_GPIO_Init>
 8002c72:	bf00      	nop
 8002c74:	3720      	adds	r7, #32
 8002c76:	46bd      	mov	sp, r7
 8002c78:	bd80      	pop	{r7, pc}
 8002c7a:	bf00      	nop
 8002c7c:	40000400 	.word	0x40000400
 8002c80:	40023800 	.word	0x40023800
 8002c84:	40020800 	.word	0x40020800

08002c88 <HAL_InitTick>:
 8002c88:	b580      	push	{r7, lr}
 8002c8a:	b08c      	sub	sp, #48	; 0x30
 8002c8c:	af00      	add	r7, sp, #0
 8002c8e:	6078      	str	r0, [r7, #4]
 8002c90:	2300      	movs	r3, #0
 8002c92:	62fb      	str	r3, [r7, #44]	; 0x2c
 8002c94:	2300      	movs	r3, #0
 8002c96:	62bb      	str	r3, [r7, #40]	; 0x28
 8002c98:	2200      	movs	r2, #0
 8002c9a:	6879      	ldr	r1, [r7, #4]
 8002c9c:	2032      	movs	r0, #50	; 0x32
 8002c9e:	f7fd fe6d 	bl	800097c <HAL_NVIC_SetPriority>
 8002ca2:	2032      	movs	r0, #50	; 0x32
 8002ca4:	f7fd fe86 	bl	80009b4 <HAL_NVIC_EnableIRQ>
 8002ca8:	2300      	movs	r3, #0
 8002caa:	60fb      	str	r3, [r7, #12]
 8002cac:	4b1f      	ldr	r3, [pc, #124]	; (8002d2c <HAL_InitTick+0xa4>)
 8002cae:	6c1b      	ldr	r3, [r3, #64]	; 0x40
 8002cb0:	4a1e      	ldr	r2, [pc, #120]	; (8002d2c <HAL_InitTick+0xa4>)
 8002cb2:	f043 0308 	orr.w	r3, r3, #8
 8002cb6:	6413      	str	r3, [r2, #64]	; 0x40
 8002cb8:	4b1c      	ldr	r3, [pc, #112]	; (8002d2c <HAL_InitTick+0xa4>)
 8002cba:	6c1b      	ldr	r3, [r3, #64]	; 0x40
 8002cbc:	f003 0308 	and.w	r3, r3, #8
 8002cc0:	60fb      	str	r3, [r7, #12]
 8002cc2:	68fb      	ldr	r3, [r7, #12]
 8002cc4:	f107 0210 	add.w	r2, r7, #16
 8002cc8:	f107 0314 	add.w	r3, r7, #20
 8002ccc:	4611      	mov	r1, r2
 8002cce:	4618      	mov	r0, r3
 8002cd0:	f7fe fcb2 	bl	8001638 <HAL_RCC_GetClockConfig>
 8002cd4:	f7fe fc9c 	bl	8001610 <HAL_RCC_GetPCLK1Freq>
 8002cd8:	4603      	mov	r3, r0
 8002cda:	005b      	lsls	r3, r3, #1
 8002cdc:	62fb      	str	r3, [r7, #44]	; 0x2c
 8002cde:	6afb      	ldr	r3, [r7, #44]	; 0x2c
 8002ce0:	4a13      	ldr	r2, [pc, #76]	; (8002d30 <HAL_InitTick+0xa8>)
 8002ce2:	fba2 2303 	umull	r2, r3, r2, r3
 8002ce6:	0c9b      	lsrs	r3, r3, #18
 8002ce8:	3b01      	subs	r3, #1
 8002cea:	62bb      	str	r3, [r7, #40]	; 0x28
 8002cec:	4b11      	ldr	r3, [pc, #68]	; (8002d34 <HAL_InitTick+0xac>)
 8002cee:	4a12      	ldr	r2, [pc, #72]	; (8002d38 <HAL_InitTick+0xb0>)
 8002cf0:	601a      	str	r2, [r3, #0]
 8002cf2:	4b10      	ldr	r3, [pc, #64]	; (8002d34 <HAL_InitTick+0xac>)
 8002cf4:	f240 32e7 	movw	r2, #999	; 0x3e7
 8002cf8:	60da      	str	r2, [r3, #12]
 8002cfa:	4a0e      	ldr	r2, [pc, #56]	; (8002d34 <HAL_InitTick+0xac>)
 8002cfc:	6abb      	ldr	r3, [r7, #40]	; 0x28
 8002cfe:	6053      	str	r3, [r2, #4]
 8002d00:	4b0c      	ldr	r3, [pc, #48]	; (8002d34 <HAL_InitTick+0xac>)
 8002d02:	2200      	movs	r2, #0
 8002d04:	611a      	str	r2, [r3, #16]
 8002d06:	4b0b      	ldr	r3, [pc, #44]	; (8002d34 <HAL_InitTick+0xac>)
 8002d08:	2200      	movs	r2, #0
 8002d0a:	609a      	str	r2, [r3, #8]
 8002d0c:	4809      	ldr	r0, [pc, #36]	; (8002d34 <HAL_InitTick+0xac>)
 8002d0e:	f7fe fcc5 	bl	800169c <HAL_TIM_Base_Init>
 8002d12:	4603      	mov	r3, r0
 8002d14:	2b00      	cmp	r3, #0
 8002d16:	d104      	bne.n	8002d22 <HAL_InitTick+0x9a>
 8002d18:	4806      	ldr	r0, [pc, #24]	; (8002d34 <HAL_InitTick+0xac>)
 8002d1a:	f7fe fcea 	bl	80016f2 <HAL_TIM_Base_Start_IT>
 8002d1e:	4603      	mov	r3, r0
 8002d20:	e000      	b.n	8002d24 <HAL_InitTick+0x9c>
 8002d22:	2301      	movs	r3, #1
 8002d24:	4618      	mov	r0, r3
 8002d26:	3730      	adds	r7, #48	; 0x30
 8002d28:	46bd      	mov	sp, r7
 8002d2a:	bd80      	pop	{r7, pc}
 8002d2c:	40023800 	.word	0x40023800
 8002d30:	431bde83 	.word	0x431bde83
 8002d34:	2001a7f0 	.word	0x2001a7f0
 8002d38:	40000c00 	.word	0x40000c00

08002d3c <NMI_Handler>:
 8002d3c:	b480      	push	{r7}
 8002d3e:	af00      	add	r7, sp, #0
 8002d40:	bf00      	nop
 8002d42:	46bd      	mov	sp, r7
 8002d44:	f85d 7b04 	ldr.w	r7, [sp], #4
 8002d48:	4770      	bx	lr

08002d4a <HardFault_Handler>:
 8002d4a:	b480      	push	{r7}
 8002d4c:	af00      	add	r7, sp, #0
 8002d4e:	e7fe      	b.n	8002d4e <HardFault_Handler+0x4>

08002d50 <MemManage_Handler>:
 8002d50:	b480      	push	{r7}
 8002d52:	af00      	add	r7, sp, #0
 8002d54:	e7fe      	b.n	8002d54 <MemManage_Handler+0x4>

08002d56 <BusFault_Handler>:
 8002d56:	b480      	push	{r7}
 8002d58:	af00      	add	r7, sp, #0
 8002d5a:	e7fe      	b.n	8002d5a <BusFault_Handler+0x4>

08002d5c <UsageFault_Handler>:
 8002d5c:	b480      	push	{r7}
 8002d5e:	af00      	add	r7, sp, #0
 8002d60:	e7fe      	b.n	8002d60 <UsageFault_Handler+0x4>

08002d62 <DebugMon_Handler>:
 8002d62:	b480      	push	{r7}
 8002d64:	af00      	add	r7, sp, #0
 8002d66:	bf00      	nop
 8002d68:	46bd      	mov	sp, r7
 8002d6a:	f85d 7b04 	ldr.w	r7, [sp], #4
 8002d6e:	4770      	bx	lr

08002d70 <TIM5_IRQHandler>:
 8002d70:	b580      	push	{r7, lr}
 8002d72:	af00      	add	r7, sp, #0
 8002d74:	4802      	ldr	r0, [pc, #8]	; (8002d80 <TIM5_IRQHandler+0x10>)
 8002d76:	f7fe fd53 	bl	8001820 <HAL_TIM_IRQHandler>
 8002d7a:	bf00      	nop
 8002d7c:	bd80      	pop	{r7, pc}
 8002d7e:	bf00      	nop
 8002d80:	2001a7f0 	.word	0x2001a7f0

08002d84 <SystemInit>:
 8002d84:	b480      	push	{r7}
 8002d86:	af00      	add	r7, sp, #0
 8002d88:	4b08      	ldr	r3, [pc, #32]	; (8002dac <SystemInit+0x28>)
 8002d8a:	f8d3 3088 	ldr.w	r3, [r3, #136]	; 0x88
 8002d8e:	4a07      	ldr	r2, [pc, #28]	; (8002dac <SystemInit+0x28>)
 8002d90:	f443 0370 	orr.w	r3, r3, #15728640	; 0xf00000
 8002d94:	f8c2 3088 	str.w	r3, [r2, #136]	; 0x88
 8002d98:	4b04      	ldr	r3, [pc, #16]	; (8002dac <SystemInit+0x28>)
 8002d9a:	f04f 6200 	mov.w	r2, #134217728	; 0x8000000
 8002d9e:	609a      	str	r2, [r3, #8]
 8002da0:	bf00      	nop
 8002da2:	46bd      	mov	sp, r7
 8002da4:	f85d 7b04 	ldr.w	r7, [sp], #4
 8002da8:	4770      	bx	lr
 8002daa:	bf00      	nop
 8002dac:	e000ed00 	.word	0xe000ed00

08002db0 <Reset_Handler>:
 8002db0:	f8df d034 	ldr.w	sp, [pc, #52]	; 8002de8 <LoopFillZerobss+0x14>
 8002db4:	2100      	movs	r1, #0
 8002db6:	e003      	b.n	8002dc0 <LoopCopyDataInit>

08002db8 <CopyDataInit>:
 8002db8:	4b0c      	ldr	r3, [pc, #48]	; (8002dec <LoopFillZerobss+0x18>)
 8002dba:	585b      	ldr	r3, [r3, r1]
 8002dbc:	5043      	str	r3, [r0, r1]
 8002dbe:	3104      	adds	r1, #4

08002dc0 <LoopCopyDataInit>:
 8002dc0:	480b      	ldr	r0, [pc, #44]	; (8002df0 <LoopFillZerobss+0x1c>)
 8002dc2:	4b0c      	ldr	r3, [pc, #48]	; (8002df4 <LoopFillZerobss+0x20>)
 8002dc4:	1842      	adds	r2, r0, r1
 8002dc6:	429a      	cmp	r2, r3
 8002dc8:	d3f6      	bcc.n	8002db8 <CopyDataInit>
 8002dca:	4a0b      	ldr	r2, [pc, #44]	; (8002df8 <LoopFillZerobss+0x24>)
 8002dcc:	e002      	b.n	8002dd4 <LoopFillZerobss>

08002dce <FillZerobss>:
 8002dce:	2300      	movs	r3, #0
 8002dd0:	f842 3b04 	str.w	r3, [r2], #4

08002dd4 <LoopFillZerobss>:
 8002dd4:	4b09      	ldr	r3, [pc, #36]	; (8002dfc <LoopFillZerobss+0x28>)
 8002dd6:	429a      	cmp	r2, r3
 8002dd8:	d3f9      	bcc.n	8002dce <FillZerobss>
 8002dda:	f7ff ffd3 	bl	8002d84 <SystemInit>
 8002dde:	f004 fa2b 	bl	8007238 <__libc_init_array>
 8002de2:	f7ff fb6b 	bl	80024bc <main>
 8002de6:	4770      	bx	lr
 8002de8:	20020000 	.word	0x20020000
 8002dec:	08007448 	.word	0x08007448
 8002df0:	20000000 	.word	0x20000000
 8002df4:	20000014 	.word	0x20000014
 8002df8:	20000014 	.word	0x20000014
 8002dfc:	2001a918 	.word	0x2001a918

08002e00 <ADC_IRQHandler>:
 8002e00:	e7fe      	b.n	8002e00 <ADC_IRQHandler>

08002e02 <vListInitialise>:
 8002e02:	b480      	push	{r7}
 8002e04:	b083      	sub	sp, #12
 8002e06:	af00      	add	r7, sp, #0
 8002e08:	6078      	str	r0, [r7, #4]
 8002e0a:	687b      	ldr	r3, [r7, #4]
 8002e0c:	f103 0208 	add.w	r2, r3, #8
 8002e10:	687b      	ldr	r3, [r7, #4]
 8002e12:	605a      	str	r2, [r3, #4]
 8002e14:	687b      	ldr	r3, [r7, #4]
 8002e16:	f04f 32ff 	mov.w	r2, #4294967295
 8002e1a:	609a      	str	r2, [r3, #8]
 8002e1c:	687b      	ldr	r3, [r7, #4]
 8002e1e:	f103 0208 	add.w	r2, r3, #8
 8002e22:	687b      	ldr	r3, [r7, #4]
 8002e24:	60da      	str	r2, [r3, #12]
 8002e26:	687b      	ldr	r3, [r7, #4]
 8002e28:	f103 0208 	add.w	r2, r3, #8
 8002e2c:	687b      	ldr	r3, [r7, #4]
 8002e2e:	611a      	str	r2, [r3, #16]
 8002e30:	687b      	ldr	r3, [r7, #4]
 8002e32:	2200      	movs	r2, #0
 8002e34:	601a      	str	r2, [r3, #0]
 8002e36:	bf00      	nop
 8002e38:	370c      	adds	r7, #12
 8002e3a:	46bd      	mov	sp, r7
 8002e3c:	f85d 7b04 	ldr.w	r7, [sp], #4
 8002e40:	4770      	bx	lr

08002e42 <vListInitialiseItem>:
 8002e42:	b480      	push	{r7}
 8002e44:	b083      	sub	sp, #12
 8002e46:	af00      	add	r7, sp, #0
 8002e48:	6078      	str	r0, [r7, #4]
 8002e4a:	687b      	ldr	r3, [r7, #4]
 8002e4c:	2200      	movs	r2, #0
 8002e4e:	611a      	str	r2, [r3, #16]
 8002e50:	bf00      	nop
 8002e52:	370c      	adds	r7, #12
 8002e54:	46bd      	mov	sp, r7
 8002e56:	f85d 7b04 	ldr.w	r7, [sp], #4
 8002e5a:	4770      	bx	lr

08002e5c <vListInsertEnd>:
 8002e5c:	b480      	push	{r7}
 8002e5e:	b085      	sub	sp, #20
 8002e60:	af00      	add	r7, sp, #0
 8002e62:	6078      	str	r0, [r7, #4]
 8002e64:	6039      	str	r1, [r7, #0]
 8002e66:	687b      	ldr	r3, [r7, #4]
 8002e68:	685b      	ldr	r3, [r3, #4]
 8002e6a:	60fb      	str	r3, [r7, #12]
 8002e6c:	683b      	ldr	r3, [r7, #0]
 8002e6e:	68fa      	ldr	r2, [r7, #12]
 8002e70:	605a      	str	r2, [r3, #4]
 8002e72:	68fb      	ldr	r3, [r7, #12]
 8002e74:	689a      	ldr	r2, [r3, #8]
 8002e76:	683b      	ldr	r3, [r7, #0]
 8002e78:	609a      	str	r2, [r3, #8]
 8002e7a:	68fb      	ldr	r3, [r7, #12]
 8002e7c:	689b      	ldr	r3, [r3, #8]
 8002e7e:	683a      	ldr	r2, [r7, #0]
 8002e80:	605a      	str	r2, [r3, #4]
 8002e82:	68fb      	ldr	r3, [r7, #12]
 8002e84:	683a      	ldr	r2, [r7, #0]
 8002e86:	609a      	str	r2, [r3, #8]
 8002e88:	683b      	ldr	r3, [r7, #0]
 8002e8a:	687a      	ldr	r2, [r7, #4]
 8002e8c:	611a      	str	r2, [r3, #16]
 8002e8e:	687b      	ldr	r3, [r7, #4]
 8002e90:	681b      	ldr	r3, [r3, #0]
 8002e92:	1c5a      	adds	r2, r3, #1
 8002e94:	687b      	ldr	r3, [r7, #4]
 8002e96:	601a      	str	r2, [r3, #0]
 8002e98:	bf00      	nop
 8002e9a:	3714      	adds	r7, #20
 8002e9c:	46bd      	mov	sp, r7
 8002e9e:	f85d 7b04 	ldr.w	r7, [sp], #4
 8002ea2:	4770      	bx	lr

08002ea4 <vListInsert>:
 8002ea4:	b480      	push	{r7}
 8002ea6:	b085      	sub	sp, #20
 8002ea8:	af00      	add	r7, sp, #0
 8002eaa:	6078      	str	r0, [r7, #4]
 8002eac:	6039      	str	r1, [r7, #0]
 8002eae:	683b      	ldr	r3, [r7, #0]
 8002eb0:	681b      	ldr	r3, [r3, #0]
 8002eb2:	60bb      	str	r3, [r7, #8]
 8002eb4:	68bb      	ldr	r3, [r7, #8]
 8002eb6:	f1b3 3fff 	cmp.w	r3, #4294967295
 8002eba:	d103      	bne.n	8002ec4 <vListInsert+0x20>
 8002ebc:	687b      	ldr	r3, [r7, #4]
 8002ebe:	691b      	ldr	r3, [r3, #16]
 8002ec0:	60fb      	str	r3, [r7, #12]
 8002ec2:	e00c      	b.n	8002ede <vListInsert+0x3a>
 8002ec4:	687b      	ldr	r3, [r7, #4]
 8002ec6:	3308      	adds	r3, #8
 8002ec8:	60fb      	str	r3, [r7, #12]
 8002eca:	e002      	b.n	8002ed2 <vListInsert+0x2e>
 8002ecc:	68fb      	ldr	r3, [r7, #12]
 8002ece:	685b      	ldr	r3, [r3, #4]
 8002ed0:	60fb      	str	r3, [r7, #12]
 8002ed2:	68fb      	ldr	r3, [r7, #12]
 8002ed4:	685b      	ldr	r3, [r3, #4]
 8002ed6:	681b      	ldr	r3, [r3, #0]
 8002ed8:	68ba      	ldr	r2, [r7, #8]
 8002eda:	429a      	cmp	r2, r3
 8002edc:	d2f6      	bcs.n	8002ecc <vListInsert+0x28>
 8002ede:	68fb      	ldr	r3, [r7, #12]
 8002ee0:	685a      	ldr	r2, [r3, #4]
 8002ee2:	683b      	ldr	r3, [r7, #0]
 8002ee4:	605a      	str	r2, [r3, #4]
 8002ee6:	683b      	ldr	r3, [r7, #0]
 8002ee8:	685b      	ldr	r3, [r3, #4]
 8002eea:	683a      	ldr	r2, [r7, #0]
 8002eec:	609a      	str	r2, [r3, #8]
 8002eee:	683b      	ldr	r3, [r7, #0]
 8002ef0:	68fa      	ldr	r2, [r7, #12]
 8002ef2:	609a      	str	r2, [r3, #8]
 8002ef4:	68fb      	ldr	r3, [r7, #12]
 8002ef6:	683a      	ldr	r2, [r7, #0]
 8002ef8:	605a      	str	r2, [r3, #4]
 8002efa:	683b      	ldr	r3, [r7, #0]
 8002efc:	687a      	ldr	r2, [r7, #4]
 8002efe:	611a      	str	r2, [r3, #16]
 8002f00:	687b      	ldr	r3, [r7, #4]
 8002f02:	681b      	ldr	r3, [r3, #0]
 8002f04:	1c5a      	adds	r2, r3, #1
 8002f06:	687b      	ldr	r3, [r7, #4]
 8002f08:	601a      	str	r2, [r3, #0]
 8002f0a:	bf00      	nop
 8002f0c:	3714      	adds	r7, #20
 8002f0e:	46bd      	mov	sp, r7
 8002f10:	f85d 7b04 	ldr.w	r7, [sp], #4
 8002f14:	4770      	bx	lr

08002f16 <uxListRemove>:
 8002f16:	b480      	push	{r7}
 8002f18:	b085      	sub	sp, #20
 8002f1a:	af00      	add	r7, sp, #0
 8002f1c:	6078      	str	r0, [r7, #4]
 8002f1e:	687b      	ldr	r3, [r7, #4]
 8002f20:	691b      	ldr	r3, [r3, #16]
 8002f22:	60fb      	str	r3, [r7, #12]
 8002f24:	687b      	ldr	r3, [r7, #4]
 8002f26:	685b      	ldr	r3, [r3, #4]
 8002f28:	687a      	ldr	r2, [r7, #4]
 8002f2a:	6892      	ldr	r2, [r2, #8]
 8002f2c:	609a      	str	r2, [r3, #8]
 8002f2e:	687b      	ldr	r3, [r7, #4]
 8002f30:	689b      	ldr	r3, [r3, #8]
 8002f32:	687a      	ldr	r2, [r7, #4]
 8002f34:	6852      	ldr	r2, [r2, #4]
 8002f36:	605a      	str	r2, [r3, #4]
 8002f38:	68fb      	ldr	r3, [r7, #12]
 8002f3a:	685b      	ldr	r3, [r3, #4]
 8002f3c:	687a      	ldr	r2, [r7, #4]
 8002f3e:	429a      	cmp	r2, r3
 8002f40:	d103      	bne.n	8002f4a <uxListRemove+0x34>
 8002f42:	687b      	ldr	r3, [r7, #4]
 8002f44:	689a      	ldr	r2, [r3, #8]
 8002f46:	68fb      	ldr	r3, [r7, #12]
 8002f48:	605a      	str	r2, [r3, #4]
 8002f4a:	687b      	ldr	r3, [r7, #4]
 8002f4c:	2200      	movs	r2, #0
 8002f4e:	611a      	str	r2, [r3, #16]
 8002f50:	68fb      	ldr	r3, [r7, #12]
 8002f52:	681b      	ldr	r3, [r3, #0]
 8002f54:	1e5a      	subs	r2, r3, #1
 8002f56:	68fb      	ldr	r3, [r7, #12]
 8002f58:	601a      	str	r2, [r3, #0]
 8002f5a:	68fb      	ldr	r3, [r7, #12]
 8002f5c:	681b      	ldr	r3, [r3, #0]
 8002f5e:	4618      	mov	r0, r3
 8002f60:	3714      	adds	r7, #20
 8002f62:	46bd      	mov	sp, r7
 8002f64:	f85d 7b04 	ldr.w	r7, [sp], #4
 8002f68:	4770      	bx	lr
	...

08002f6c <xQueueGenericReset>:
 8002f6c:	b580      	push	{r7, lr}
 8002f6e:	b084      	sub	sp, #16
 8002f70:	af00      	add	r7, sp, #0
 8002f72:	6078      	str	r0, [r7, #4]
 8002f74:	6039      	str	r1, [r7, #0]
 8002f76:	687b      	ldr	r3, [r7, #4]
 8002f78:	60fb      	str	r3, [r7, #12]
 8002f7a:	68fb      	ldr	r3, [r7, #12]
 8002f7c:	2b00      	cmp	r3, #0
 8002f7e:	d109      	bne.n	8002f94 <xQueueGenericReset+0x28>
 8002f80:	f04f 0350 	mov.w	r3, #80	; 0x50
 8002f84:	f383 8811 	msr	BASEPRI, r3
 8002f88:	f3bf 8f6f 	isb	sy
 8002f8c:	f3bf 8f4f 	dsb	sy
 8002f90:	60bb      	str	r3, [r7, #8]
 8002f92:	e7fe      	b.n	8002f92 <xQueueGenericReset+0x26>
 8002f94:	f002 f95e 	bl	8005254 <vPortEnterCritical>
 8002f98:	68fb      	ldr	r3, [r7, #12]
 8002f9a:	681a      	ldr	r2, [r3, #0]
 8002f9c:	68fb      	ldr	r3, [r7, #12]
 8002f9e:	6bdb      	ldr	r3, [r3, #60]	; 0x3c
 8002fa0:	68f9      	ldr	r1, [r7, #12]
 8002fa2:	6c09      	ldr	r1, [r1, #64]	; 0x40
 8002fa4:	fb01 f303 	mul.w	r3, r1, r3
 8002fa8:	441a      	add	r2, r3
 8002faa:	68fb      	ldr	r3, [r7, #12]
 8002fac:	609a      	str	r2, [r3, #8]
 8002fae:	68fb      	ldr	r3, [r7, #12]
 8002fb0:	2200      	movs	r2, #0
 8002fb2:	639a      	str	r2, [r3, #56]	; 0x38
 8002fb4:	68fb      	ldr	r3, [r7, #12]
 8002fb6:	681a      	ldr	r2, [r3, #0]
 8002fb8:	68fb      	ldr	r3, [r7, #12]
 8002fba:	605a      	str	r2, [r3, #4]
 8002fbc:	68fb      	ldr	r3, [r7, #12]
 8002fbe:	681a      	ldr	r2, [r3, #0]
 8002fc0:	68fb      	ldr	r3, [r7, #12]
 8002fc2:	6bdb      	ldr	r3, [r3, #60]	; 0x3c
 8002fc4:	3b01      	subs	r3, #1
 8002fc6:	68f9      	ldr	r1, [r7, #12]
 8002fc8:	6c09      	ldr	r1, [r1, #64]	; 0x40
 8002fca:	fb01 f303 	mul.w	r3, r1, r3
 8002fce:	441a      	add	r2, r3
 8002fd0:	68fb      	ldr	r3, [r7, #12]
 8002fd2:	60da      	str	r2, [r3, #12]
 8002fd4:	68fb      	ldr	r3, [r7, #12]
 8002fd6:	22ff      	movs	r2, #255	; 0xff
 8002fd8:	f883 2044 	strb.w	r2, [r3, #68]	; 0x44
 8002fdc:	68fb      	ldr	r3, [r7, #12]
 8002fde:	22ff      	movs	r2, #255	; 0xff
 8002fe0:	f883 2045 	strb.w	r2, [r3, #69]	; 0x45
 8002fe4:	683b      	ldr	r3, [r7, #0]
 8002fe6:	2b00      	cmp	r3, #0
 8002fe8:	d114      	bne.n	8003014 <xQueueGenericReset+0xa8>
 8002fea:	68fb      	ldr	r3, [r7, #12]
 8002fec:	691b      	ldr	r3, [r3, #16]
 8002fee:	2b00      	cmp	r3, #0
 8002ff0:	d01a      	beq.n	8003028 <xQueueGenericReset+0xbc>
 8002ff2:	68fb      	ldr	r3, [r7, #12]
 8002ff4:	3310      	adds	r3, #16
 8002ff6:	4618      	mov	r0, r3
 8002ff8:	f001 f9c8 	bl	800438c <xTaskRemoveFromEventList>
 8002ffc:	4603      	mov	r3, r0
 8002ffe:	2b00      	cmp	r3, #0
 8003000:	d012      	beq.n	8003028 <xQueueGenericReset+0xbc>
 8003002:	4b0d      	ldr	r3, [pc, #52]	; (8003038 <xQueueGenericReset+0xcc>)
 8003004:	f04f 5280 	mov.w	r2, #268435456	; 0x10000000
 8003008:	601a      	str	r2, [r3, #0]
 800300a:	f3bf 8f4f 	dsb	sy
 800300e:	f3bf 8f6f 	isb	sy
 8003012:	e009      	b.n	8003028 <xQueueGenericReset+0xbc>
 8003014:	68fb      	ldr	r3, [r7, #12]
 8003016:	3310      	adds	r3, #16
 8003018:	4618      	mov	r0, r3
 800301a:	f7ff fef2 	bl	8002e02 <vListInitialise>
 800301e:	68fb      	ldr	r3, [r7, #12]
 8003020:	3324      	adds	r3, #36	; 0x24
 8003022:	4618      	mov	r0, r3
 8003024:	f7ff feed 	bl	8002e02 <vListInitialise>
 8003028:	f002 f942 	bl	80052b0 <vPortExitCritical>
 800302c:	2301      	movs	r3, #1
 800302e:	4618      	mov	r0, r3
 8003030:	3710      	adds	r7, #16
 8003032:	46bd      	mov	sp, r7
 8003034:	bd80      	pop	{r7, pc}
 8003036:	bf00      	nop
 8003038:	e000ed04 	.word	0xe000ed04

0800303c <xQueueGenericCreate>:
 800303c:	b580      	push	{r7, lr}
 800303e:	b08c      	sub	sp, #48	; 0x30
 8003040:	af02      	add	r7, sp, #8
 8003042:	60f8      	str	r0, [r7, #12]
 8003044:	60b9      	str	r1, [r7, #8]
 8003046:	4613      	mov	r3, r2
 8003048:	71fb      	strb	r3, [r7, #7]
 800304a:	68fb      	ldr	r3, [r7, #12]
 800304c:	2b00      	cmp	r3, #0
 800304e:	d109      	bne.n	8003064 <xQueueGenericCreate+0x28>
 8003050:	f04f 0350 	mov.w	r3, #80	; 0x50
 8003054:	f383 8811 	msr	BASEPRI, r3
 8003058:	f3bf 8f6f 	isb	sy
 800305c:	f3bf 8f4f 	dsb	sy
 8003060:	61bb      	str	r3, [r7, #24]
 8003062:	e7fe      	b.n	8003062 <xQueueGenericCreate+0x26>
 8003064:	68fb      	ldr	r3, [r7, #12]
 8003066:	68ba      	ldr	r2, [r7, #8]
 8003068:	fb02 f303 	mul.w	r3, r2, r3
 800306c:	627b      	str	r3, [r7, #36]	; 0x24
 800306e:	68bb      	ldr	r3, [r7, #8]
 8003070:	2b00      	cmp	r3, #0
 8003072:	d006      	beq.n	8003082 <xQueueGenericCreate+0x46>
 8003074:	6a7a      	ldr	r2, [r7, #36]	; 0x24
 8003076:	68bb      	ldr	r3, [r7, #8]
 8003078:	fbb2 f3f3 	udiv	r3, r2, r3
 800307c:	68fa      	ldr	r2, [r7, #12]
 800307e:	429a      	cmp	r2, r3
 8003080:	d101      	bne.n	8003086 <xQueueGenericCreate+0x4a>
 8003082:	2301      	movs	r3, #1
 8003084:	e000      	b.n	8003088 <xQueueGenericCreate+0x4c>
 8003086:	2300      	movs	r3, #0
 8003088:	2b00      	cmp	r3, #0
 800308a:	d109      	bne.n	80030a0 <xQueueGenericCreate+0x64>
 800308c:	f04f 0350 	mov.w	r3, #80	; 0x50
 8003090:	f383 8811 	msr	BASEPRI, r3
 8003094:	f3bf 8f6f 	isb	sy
 8003098:	f3bf 8f4f 	dsb	sy
 800309c:	617b      	str	r3, [r7, #20]
 800309e:	e7fe      	b.n	800309e <xQueueGenericCreate+0x62>
 80030a0:	6a7b      	ldr	r3, [r7, #36]	; 0x24
 80030a2:	f113 0f51 	cmn.w	r3, #81	; 0x51
 80030a6:	d909      	bls.n	80030bc <xQueueGenericCreate+0x80>
 80030a8:	f04f 0350 	mov.w	r3, #80	; 0x50
 80030ac:	f383 8811 	msr	BASEPRI, r3
 80030b0:	f3bf 8f6f 	isb	sy
 80030b4:	f3bf 8f4f 	dsb	sy
 80030b8:	613b      	str	r3, [r7, #16]
 80030ba:	e7fe      	b.n	80030ba <xQueueGenericCreate+0x7e>
 80030bc:	6a7b      	ldr	r3, [r7, #36]	; 0x24
 80030be:	3350      	adds	r3, #80	; 0x50
 80030c0:	4618      	mov	r0, r3
 80030c2:	f002 f9e7 	bl	8005494 <pvPortMalloc>
 80030c6:	6238      	str	r0, [r7, #32]
 80030c8:	6a3b      	ldr	r3, [r7, #32]
 80030ca:	2b00      	cmp	r3, #0
 80030cc:	d00d      	beq.n	80030ea <xQueueGenericCreate+0xae>
 80030ce:	6a3b      	ldr	r3, [r7, #32]
 80030d0:	61fb      	str	r3, [r7, #28]
 80030d2:	69fb      	ldr	r3, [r7, #28]
 80030d4:	3350      	adds	r3, #80	; 0x50
 80030d6:	61fb      	str	r3, [r7, #28]
 80030d8:	79fa      	ldrb	r2, [r7, #7]
 80030da:	6a3b      	ldr	r3, [r7, #32]
 80030dc:	9300      	str	r3, [sp, #0]
 80030de:	4613      	mov	r3, r2
 80030e0:	69fa      	ldr	r2, [r7, #28]
 80030e2:	68b9      	ldr	r1, [r7, #8]
 80030e4:	68f8      	ldr	r0, [r7, #12]
 80030e6:	f000 f805 	bl	80030f4 <prvInitialiseNewQueue>
 80030ea:	6a3b      	ldr	r3, [r7, #32]
 80030ec:	4618      	mov	r0, r3
 80030ee:	3728      	adds	r7, #40	; 0x28
 80030f0:	46bd      	mov	sp, r7
 80030f2:	bd80      	pop	{r7, pc}

080030f4 <prvInitialiseNewQueue>:
 80030f4:	b580      	push	{r7, lr}
 80030f6:	b084      	sub	sp, #16
 80030f8:	af00      	add	r7, sp, #0
 80030fa:	60f8      	str	r0, [r7, #12]
 80030fc:	60b9      	str	r1, [r7, #8]
 80030fe:	607a      	str	r2, [r7, #4]
 8003100:	70fb      	strb	r3, [r7, #3]
 8003102:	68bb      	ldr	r3, [r7, #8]
 8003104:	2b00      	cmp	r3, #0
 8003106:	d103      	bne.n	8003110 <prvInitialiseNewQueue+0x1c>
 8003108:	69bb      	ldr	r3, [r7, #24]
 800310a:	69ba      	ldr	r2, [r7, #24]
 800310c:	601a      	str	r2, [r3, #0]
 800310e:	e002      	b.n	8003116 <prvInitialiseNewQueue+0x22>
 8003110:	69bb      	ldr	r3, [r7, #24]
 8003112:	687a      	ldr	r2, [r7, #4]
 8003114:	601a      	str	r2, [r3, #0]
 8003116:	69bb      	ldr	r3, [r7, #24]
 8003118:	68fa      	ldr	r2, [r7, #12]
 800311a:	63da      	str	r2, [r3, #60]	; 0x3c
 800311c:	69bb      	ldr	r3, [r7, #24]
 800311e:	68ba      	ldr	r2, [r7, #8]
 8003120:	641a      	str	r2, [r3, #64]	; 0x40
 8003122:	2101      	movs	r1, #1
 8003124:	69b8      	ldr	r0, [r7, #24]
 8003126:	f7ff ff21 	bl	8002f6c <xQueueGenericReset>
 800312a:	69bb      	ldr	r3, [r7, #24]
 800312c:	78fa      	ldrb	r2, [r7, #3]
 800312e:	f883 204c 	strb.w	r2, [r3, #76]	; 0x4c
 8003132:	78fb      	ldrb	r3, [r7, #3]
 8003134:	68ba      	ldr	r2, [r7, #8]
 8003136:	68f9      	ldr	r1, [r7, #12]
 8003138:	2073      	movs	r0, #115	; 0x73
 800313a:	f003 f9ab 	bl	8006494 <SEGGER_SYSVIEW_RecordU32x3>
 800313e:	bf00      	nop
 8003140:	3710      	adds	r7, #16
 8003142:	46bd      	mov	sp, r7
 8003144:	bd80      	pop	{r7, pc}
	...

08003148 <xQueueGenericSend>:
 8003148:	b580      	push	{r7, lr}
 800314a:	b090      	sub	sp, #64	; 0x40
 800314c:	af02      	add	r7, sp, #8
 800314e:	60f8      	str	r0, [r7, #12]
 8003150:	60b9      	str	r1, [r7, #8]
 8003152:	607a      	str	r2, [r7, #4]
 8003154:	603b      	str	r3, [r7, #0]
 8003156:	2300      	movs	r3, #0
 8003158:	637b      	str	r3, [r7, #52]	; 0x34
 800315a:	68fb      	ldr	r3, [r7, #12]
 800315c:	633b      	str	r3, [r7, #48]	; 0x30
 800315e:	6b3b      	ldr	r3, [r7, #48]	; 0x30
 8003160:	2b00      	cmp	r3, #0
 8003162:	d109      	bne.n	8003178 <xQueueGenericSend+0x30>
 8003164:	f04f 0350 	mov.w	r3, #80	; 0x50
 8003168:	f383 8811 	msr	BASEPRI, r3
 800316c:	f3bf 8f6f 	isb	sy
 8003170:	f3bf 8f4f 	dsb	sy
 8003174:	62bb      	str	r3, [r7, #40]	; 0x28
 8003176:	e7fe      	b.n	8003176 <xQueueGenericSend+0x2e>
 8003178:	68bb      	ldr	r3, [r7, #8]
 800317a:	2b00      	cmp	r3, #0
 800317c:	d103      	bne.n	8003186 <xQueueGenericSend+0x3e>
 800317e:	6b3b      	ldr	r3, [r7, #48]	; 0x30
 8003180:	6c1b      	ldr	r3, [r3, #64]	; 0x40
 8003182:	2b00      	cmp	r3, #0
 8003184:	d101      	bne.n	800318a <xQueueGenericSend+0x42>
 8003186:	2301      	movs	r3, #1
 8003188:	e000      	b.n	800318c <xQueueGenericSend+0x44>
 800318a:	2300      	movs	r3, #0
 800318c:	2b00      	cmp	r3, #0
 800318e:	d109      	bne.n	80031a4 <xQueueGenericSend+0x5c>
 8003190:	f04f 0350 	mov.w	r3, #80	; 0x50
 8003194:	f383 8811 	msr	BASEPRI, r3
 8003198:	f3bf 8f6f 	isb	sy
 800319c:	f3bf 8f4f 	dsb	sy
 80031a0:	627b      	str	r3, [r7, #36]	; 0x24
 80031a2:	e7fe      	b.n	80031a2 <xQueueGenericSend+0x5a>
 80031a4:	683b      	ldr	r3, [r7, #0]
 80031a6:	2b02      	cmp	r3, #2
 80031a8:	d103      	bne.n	80031b2 <xQueueGenericSend+0x6a>
 80031aa:	6b3b      	ldr	r3, [r7, #48]	; 0x30
 80031ac:	6bdb      	ldr	r3, [r3, #60]	; 0x3c
 80031ae:	2b01      	cmp	r3, #1
 80031b0:	d101      	bne.n	80031b6 <xQueueGenericSend+0x6e>
 80031b2:	2301      	movs	r3, #1
 80031b4:	e000      	b.n	80031b8 <xQueueGenericSend+0x70>
 80031b6:	2300      	movs	r3, #0
 80031b8:	2b00      	cmp	r3, #0
 80031ba:	d109      	bne.n	80031d0 <xQueueGenericSend+0x88>
 80031bc:	f04f 0350 	mov.w	r3, #80	; 0x50
 80031c0:	f383 8811 	msr	BASEPRI, r3
 80031c4:	f3bf 8f6f 	isb	sy
 80031c8:	f3bf 8f4f 	dsb	sy
 80031cc:	623b      	str	r3, [r7, #32]
 80031ce:	e7fe      	b.n	80031ce <xQueueGenericSend+0x86>
 80031d0:	f001 fa78 	bl	80046c4 <xTaskGetSchedulerState>
 80031d4:	4603      	mov	r3, r0
 80031d6:	2b00      	cmp	r3, #0
 80031d8:	d102      	bne.n	80031e0 <xQueueGenericSend+0x98>
 80031da:	687b      	ldr	r3, [r7, #4]
 80031dc:	2b00      	cmp	r3, #0
 80031de:	d101      	bne.n	80031e4 <xQueueGenericSend+0x9c>
 80031e0:	2301      	movs	r3, #1
 80031e2:	e000      	b.n	80031e6 <xQueueGenericSend+0x9e>
 80031e4:	2300      	movs	r3, #0
 80031e6:	2b00      	cmp	r3, #0
 80031e8:	d109      	bne.n	80031fe <xQueueGenericSend+0xb6>
 80031ea:	f04f 0350 	mov.w	r3, #80	; 0x50
 80031ee:	f383 8811 	msr	BASEPRI, r3
 80031f2:	f3bf 8f6f 	isb	sy
 80031f6:	f3bf 8f4f 	dsb	sy
 80031fa:	61fb      	str	r3, [r7, #28]
 80031fc:	e7fe      	b.n	80031fc <xQueueGenericSend+0xb4>
 80031fe:	f002 f829 	bl	8005254 <vPortEnterCritical>
 8003202:	6b3b      	ldr	r3, [r7, #48]	; 0x30
 8003204:	6b9a      	ldr	r2, [r3, #56]	; 0x38
 8003206:	6b3b      	ldr	r3, [r7, #48]	; 0x30
 8003208:	6bdb      	ldr	r3, [r3, #60]	; 0x3c
 800320a:	429a      	cmp	r2, r3
 800320c:	d302      	bcc.n	8003214 <xQueueGenericSend+0xcc>
 800320e:	683b      	ldr	r3, [r7, #0]
 8003210:	2b02      	cmp	r3, #2
 8003212:	d136      	bne.n	8003282 <xQueueGenericSend+0x13a>
 8003214:	6b3b      	ldr	r3, [r7, #48]	; 0x30
 8003216:	4618      	mov	r0, r3
 8003218:	f003 fec6 	bl	8006fa8 <SEGGER_SYSVIEW_ShrinkId>
 800321c:	68ba      	ldr	r2, [r7, #8]
 800321e:	6879      	ldr	r1, [r7, #4]
 8003220:	683b      	ldr	r3, [r7, #0]
 8003222:	9300      	str	r3, [sp, #0]
 8003224:	460b      	mov	r3, r1
 8003226:	4601      	mov	r1, r0
 8003228:	205a      	movs	r0, #90	; 0x5a
 800322a:	f003 f9a9 	bl	8006580 <SEGGER_SYSVIEW_RecordU32x4>
 800322e:	683a      	ldr	r2, [r7, #0]
 8003230:	68b9      	ldr	r1, [r7, #8]
 8003232:	6b38      	ldr	r0, [r7, #48]	; 0x30
 8003234:	f000 fa78 	bl	8003728 <prvCopyDataToQueue>
 8003238:	62f8      	str	r0, [r7, #44]	; 0x2c
 800323a:	6b3b      	ldr	r3, [r7, #48]	; 0x30
 800323c:	6a5b      	ldr	r3, [r3, #36]	; 0x24
 800323e:	2b00      	cmp	r3, #0
 8003240:	d010      	beq.n	8003264 <xQueueGenericSend+0x11c>
 8003242:	6b3b      	ldr	r3, [r7, #48]	; 0x30
 8003244:	3324      	adds	r3, #36	; 0x24
 8003246:	4618      	mov	r0, r3
 8003248:	f001 f8a0 	bl	800438c <xTaskRemoveFromEventList>
 800324c:	4603      	mov	r3, r0
 800324e:	2b00      	cmp	r3, #0
 8003250:	d013      	beq.n	800327a <xQueueGenericSend+0x132>
 8003252:	4b4d      	ldr	r3, [pc, #308]	; (8003388 <xQueueGenericSend+0x240>)
 8003254:	f04f 5280 	mov.w	r2, #268435456	; 0x10000000
 8003258:	601a      	str	r2, [r3, #0]
 800325a:	f3bf 8f4f 	dsb	sy
 800325e:	f3bf 8f6f 	isb	sy
 8003262:	e00a      	b.n	800327a <xQueueGenericSend+0x132>
 8003264:	6afb      	ldr	r3, [r7, #44]	; 0x2c
 8003266:	2b00      	cmp	r3, #0
 8003268:	d007      	beq.n	800327a <xQueueGenericSend+0x132>
 800326a:	4b47      	ldr	r3, [pc, #284]	; (8003388 <xQueueGenericSend+0x240>)
 800326c:	f04f 5280 	mov.w	r2, #268435456	; 0x10000000
 8003270:	601a      	str	r2, [r3, #0]
 8003272:	f3bf 8f4f 	dsb	sy
 8003276:	f3bf 8f6f 	isb	sy
 800327a:	f002 f819 	bl	80052b0 <vPortExitCritical>
 800327e:	2301      	movs	r3, #1
 8003280:	e07d      	b.n	800337e <xQueueGenericSend+0x236>
 8003282:	687b      	ldr	r3, [r7, #4]
 8003284:	2b00      	cmp	r3, #0
 8003286:	d110      	bne.n	80032aa <xQueueGenericSend+0x162>
 8003288:	f002 f812 	bl	80052b0 <vPortExitCritical>
 800328c:	6b3b      	ldr	r3, [r7, #48]	; 0x30
 800328e:	4618      	mov	r0, r3
 8003290:	f003 fe8a 	bl	8006fa8 <SEGGER_SYSVIEW_ShrinkId>
 8003294:	68ba      	ldr	r2, [r7, #8]
 8003296:	6879      	ldr	r1, [r7, #4]
 8003298:	683b      	ldr	r3, [r7, #0]
 800329a:	9300      	str	r3, [sp, #0]
 800329c:	460b      	mov	r3, r1
 800329e:	4601      	mov	r1, r0
 80032a0:	205a      	movs	r0, #90	; 0x5a
 80032a2:	f003 f96d 	bl	8006580 <SEGGER_SYSVIEW_RecordU32x4>
 80032a6:	2300      	movs	r3, #0
 80032a8:	e069      	b.n	800337e <xQueueGenericSend+0x236>
 80032aa:	6b7b      	ldr	r3, [r7, #52]	; 0x34
 80032ac:	2b00      	cmp	r3, #0
 80032ae:	d106      	bne.n	80032be <xQueueGenericSend+0x176>
 80032b0:	f107 0314 	add.w	r3, r7, #20
 80032b4:	4618      	mov	r0, r3
 80032b6:	f001 f8cf 	bl	8004458 <vTaskInternalSetTimeOutState>
 80032ba:	2301      	movs	r3, #1
 80032bc:	637b      	str	r3, [r7, #52]	; 0x34
 80032be:	f001 fff7 	bl	80052b0 <vPortExitCritical>
 80032c2:	f000 fe1d 	bl	8003f00 <vTaskSuspendAll>
 80032c6:	f001 ffc5 	bl	8005254 <vPortEnterCritical>
 80032ca:	6b3b      	ldr	r3, [r7, #48]	; 0x30
 80032cc:	f893 3044 	ldrb.w	r3, [r3, #68]	; 0x44
 80032d0:	b25b      	sxtb	r3, r3
 80032d2:	f1b3 3fff 	cmp.w	r3, #4294967295
 80032d6:	d103      	bne.n	80032e0 <xQueueGenericSend+0x198>
 80032d8:	6b3b      	ldr	r3, [r7, #48]	; 0x30
 80032da:	2200      	movs	r2, #0
 80032dc:	f883 2044 	strb.w	r2, [r3, #68]	; 0x44
 80032e0:	6b3b      	ldr	r3, [r7, #48]	; 0x30
 80032e2:	f893 3045 	ldrb.w	r3, [r3, #69]	; 0x45
 80032e6:	b25b      	sxtb	r3, r3
 80032e8:	f1b3 3fff 	cmp.w	r3, #4294967295
 80032ec:	d103      	bne.n	80032f6 <xQueueGenericSend+0x1ae>
 80032ee:	6b3b      	ldr	r3, [r7, #48]	; 0x30
 80032f0:	2200      	movs	r2, #0
 80032f2:	f883 2045 	strb.w	r2, [r3, #69]	; 0x45
 80032f6:	f001 ffdb 	bl	80052b0 <vPortExitCritical>
 80032fa:	1d3a      	adds	r2, r7, #4
 80032fc:	f107 0314 	add.w	r3, r7, #20
 8003300:	4611      	mov	r1, r2
 8003302:	4618      	mov	r0, r3
 8003304:	f001 f8be 	bl	8004484 <xTaskCheckForTimeOut>
 8003308:	4603      	mov	r3, r0
 800330a:	2b00      	cmp	r3, #0
 800330c:	d124      	bne.n	8003358 <xQueueGenericSend+0x210>
 800330e:	6b38      	ldr	r0, [r7, #48]	; 0x30
 8003310:	f000 fb02 	bl	8003918 <prvIsQueueFull>
 8003314:	4603      	mov	r3, r0
 8003316:	2b00      	cmp	r3, #0
 8003318:	d018      	beq.n	800334c <xQueueGenericSend+0x204>
 800331a:	6b3b      	ldr	r3, [r7, #48]	; 0x30
 800331c:	3310      	adds	r3, #16
 800331e:	687a      	ldr	r2, [r7, #4]
 8003320:	4611      	mov	r1, r2
 8003322:	4618      	mov	r0, r3
 8003324:	f000 ffe0 	bl	80042e8 <vTaskPlaceOnEventList>
 8003328:	6b38      	ldr	r0, [r7, #48]	; 0x30
 800332a:	f000 fa8d 	bl	8003848 <prvUnlockQueue>
 800332e:	f000 fdf5 	bl	8003f1c <xTaskResumeAll>
 8003332:	4603      	mov	r3, r0
 8003334:	2b00      	cmp	r3, #0
 8003336:	f47f af62 	bne.w	80031fe <xQueueGenericSend+0xb6>
 800333a:	4b13      	ldr	r3, [pc, #76]	; (8003388 <xQueueGenericSend+0x240>)
 800333c:	f04f 5280 	mov.w	r2, #268435456	; 0x10000000
 8003340:	601a      	str	r2, [r3, #0]
 8003342:	f3bf 8f4f 	dsb	sy
 8003346:	f3bf 8f6f 	isb	sy
 800334a:	e758      	b.n	80031fe <xQueueGenericSend+0xb6>
 800334c:	6b38      	ldr	r0, [r7, #48]	; 0x30
 800334e:	f000 fa7b 	bl	8003848 <prvUnlockQueue>
 8003352:	f000 fde3 	bl	8003f1c <xTaskResumeAll>
 8003356:	e752      	b.n	80031fe <xQueueGenericSend+0xb6>
 8003358:	6b38      	ldr	r0, [r7, #48]	; 0x30
 800335a:	f000 fa75 	bl	8003848 <prvUnlockQueue>
 800335e:	f000 fddd 	bl	8003f1c <xTaskResumeAll>
 8003362:	6b3b      	ldr	r3, [r7, #48]	; 0x30
 8003364:	4618      	mov	r0, r3
 8003366:	f003 fe1f 	bl	8006fa8 <SEGGER_SYSVIEW_ShrinkId>
 800336a:	68ba      	ldr	r2, [r7, #8]
 800336c:	6879      	ldr	r1, [r7, #4]
 800336e:	683b      	ldr	r3, [r7, #0]
 8003370:	9300      	str	r3, [sp, #0]
 8003372:	460b      	mov	r3, r1
 8003374:	4601      	mov	r1, r0
 8003376:	205a      	movs	r0, #90	; 0x5a
 8003378:	f003 f902 	bl	8006580 <SEGGER_SYSVIEW_RecordU32x4>
 800337c:	2300      	movs	r3, #0
 800337e:	4618      	mov	r0, r3
 8003380:	3738      	adds	r7, #56	; 0x38
 8003382:	46bd      	mov	sp, r7
 8003384:	bd80      	pop	{r7, pc}
 8003386:	bf00      	nop
 8003388:	e000ed04 	.word	0xe000ed04

0800338c <xQueueGenericSendFromISR>:
 800338c:	b580      	push	{r7, lr}
 800338e:	b090      	sub	sp, #64	; 0x40
 8003390:	af00      	add	r7, sp, #0
 8003392:	60f8      	str	r0, [r7, #12]
 8003394:	60b9      	str	r1, [r7, #8]
 8003396:	607a      	str	r2, [r7, #4]
 8003398:	603b      	str	r3, [r7, #0]
 800339a:	68fb      	ldr	r3, [r7, #12]
 800339c:	63bb      	str	r3, [r7, #56]	; 0x38
 800339e:	6bbb      	ldr	r3, [r7, #56]	; 0x38
 80033a0:	2b00      	cmp	r3, #0
 80033a2:	d109      	bne.n	80033b8 <xQueueGenericSendFromISR+0x2c>
 80033a4:	f04f 0350 	mov.w	r3, #80	; 0x50
 80033a8:	f383 8811 	msr	BASEPRI, r3
 80033ac:	f3bf 8f6f 	isb	sy
 80033b0:	f3bf 8f4f 	dsb	sy
 80033b4:	62bb      	str	r3, [r7, #40]	; 0x28
 80033b6:	e7fe      	b.n	80033b6 <xQueueGenericSendFromISR+0x2a>
 80033b8:	68bb      	ldr	r3, [r7, #8]
 80033ba:	2b00      	cmp	r3, #0
 80033bc:	d103      	bne.n	80033c6 <xQueueGenericSendFromISR+0x3a>
 80033be:	6bbb      	ldr	r3, [r7, #56]	; 0x38
 80033c0:	6c1b      	ldr	r3, [r3, #64]	; 0x40
 80033c2:	2b00      	cmp	r3, #0
 80033c4:	d101      	bne.n	80033ca <xQueueGenericSendFromISR+0x3e>
 80033c6:	2301      	movs	r3, #1
 80033c8:	e000      	b.n	80033cc <xQueueGenericSendFromISR+0x40>
 80033ca:	2300      	movs	r3, #0
 80033cc:	2b00      	cmp	r3, #0
 80033ce:	d109      	bne.n	80033e4 <xQueueGenericSendFromISR+0x58>
 80033d0:	f04f 0350 	mov.w	r3, #80	; 0x50
 80033d4:	f383 8811 	msr	BASEPRI, r3
 80033d8:	f3bf 8f6f 	isb	sy
 80033dc:	f3bf 8f4f 	dsb	sy
 80033e0:	627b      	str	r3, [r7, #36]	; 0x24
 80033e2:	e7fe      	b.n	80033e2 <xQueueGenericSendFromISR+0x56>
 80033e4:	683b      	ldr	r3, [r7, #0]
 80033e6:	2b02      	cmp	r3, #2
 80033e8:	d103      	bne.n	80033f2 <xQueueGenericSendFromISR+0x66>
 80033ea:	6bbb      	ldr	r3, [r7, #56]	; 0x38
 80033ec:	6bdb      	ldr	r3, [r3, #60]	; 0x3c
 80033ee:	2b01      	cmp	r3, #1
 80033f0:	d101      	bne.n	80033f6 <xQueueGenericSendFromISR+0x6a>
 80033f2:	2301      	movs	r3, #1
 80033f4:	e000      	b.n	80033f8 <xQueueGenericSendFromISR+0x6c>
 80033f6:	2300      	movs	r3, #0
 80033f8:	2b00      	cmp	r3, #0
 80033fa:	d109      	bne.n	8003410 <xQueueGenericSendFromISR+0x84>
 80033fc:	f04f 0350 	mov.w	r3, #80	; 0x50
 8003400:	f383 8811 	msr	BASEPRI, r3
 8003404:	f3bf 8f6f 	isb	sy
 8003408:	f3bf 8f4f 	dsb	sy
 800340c:	623b      	str	r3, [r7, #32]
 800340e:	e7fe      	b.n	800340e <xQueueGenericSendFromISR+0x82>
 8003410:	f002 f802 	bl	8005418 <vPortValidateInterruptPriority>
 8003414:	f3ef 8211 	mrs	r2, BASEPRI
 8003418:	f04f 0350 	mov.w	r3, #80	; 0x50
 800341c:	f383 8811 	msr	BASEPRI, r3
 8003420:	f3bf 8f6f 	isb	sy
 8003424:	f3bf 8f4f 	dsb	sy
 8003428:	61fa      	str	r2, [r7, #28]
 800342a:	61bb      	str	r3, [r7, #24]
 800342c:	69fb      	ldr	r3, [r7, #28]
 800342e:	637b      	str	r3, [r7, #52]	; 0x34
 8003430:	6bbb      	ldr	r3, [r7, #56]	; 0x38
 8003432:	6b9a      	ldr	r2, [r3, #56]	; 0x38
 8003434:	6bbb      	ldr	r3, [r7, #56]	; 0x38
 8003436:	6bdb      	ldr	r3, [r3, #60]	; 0x3c
 8003438:	429a      	cmp	r2, r3
 800343a:	d302      	bcc.n	8003442 <xQueueGenericSendFromISR+0xb6>
 800343c:	683b      	ldr	r3, [r7, #0]
 800343e:	2b02      	cmp	r3, #2
 8003440:	d147      	bne.n	80034d2 <xQueueGenericSendFromISR+0x146>
 8003442:	6bbb      	ldr	r3, [r7, #56]	; 0x38
 8003444:	f893 3045 	ldrb.w	r3, [r3, #69]	; 0x45
 8003448:	f887 3033 	strb.w	r3, [r7, #51]	; 0x33
 800344c:	6bbb      	ldr	r3, [r7, #56]	; 0x38
 800344e:	6b9b      	ldr	r3, [r3, #56]	; 0x38
 8003450:	62fb      	str	r3, [r7, #44]	; 0x2c
 8003452:	6bbb      	ldr	r3, [r7, #56]	; 0x38
 8003454:	4618      	mov	r0, r3
 8003456:	f003 fda7 	bl	8006fa8 <SEGGER_SYSVIEW_ShrinkId>
 800345a:	4601      	mov	r1, r0
 800345c:	687b      	ldr	r3, [r7, #4]
 800345e:	461a      	mov	r2, r3
 8003460:	2060      	movs	r0, #96	; 0x60
 8003462:	f002 ffbd 	bl	80063e0 <SEGGER_SYSVIEW_RecordU32x2>
 8003466:	683a      	ldr	r2, [r7, #0]
 8003468:	68b9      	ldr	r1, [r7, #8]
 800346a:	6bb8      	ldr	r0, [r7, #56]	; 0x38
 800346c:	f000 f95c 	bl	8003728 <prvCopyDataToQueue>
 8003470:	f997 3033 	ldrsb.w	r3, [r7, #51]	; 0x33
 8003474:	f1b3 3fff 	cmp.w	r3, #4294967295
 8003478:	d112      	bne.n	80034a0 <xQueueGenericSendFromISR+0x114>
 800347a:	6bbb      	ldr	r3, [r7, #56]	; 0x38
 800347c:	6a5b      	ldr	r3, [r3, #36]	; 0x24
 800347e:	2b00      	cmp	r3, #0
 8003480:	d024      	beq.n	80034cc <xQueueGenericSendFromISR+0x140>
 8003482:	6bbb      	ldr	r3, [r7, #56]	; 0x38
 8003484:	3324      	adds	r3, #36	; 0x24
 8003486:	4618      	mov	r0, r3
 8003488:	f000 ff80 	bl	800438c <xTaskRemoveFromEventList>
 800348c:	4603      	mov	r3, r0
 800348e:	2b00      	cmp	r3, #0
 8003490:	d01c      	beq.n	80034cc <xQueueGenericSendFromISR+0x140>
 8003492:	687b      	ldr	r3, [r7, #4]
 8003494:	2b00      	cmp	r3, #0
 8003496:	d019      	beq.n	80034cc <xQueueGenericSendFromISR+0x140>
 8003498:	687b      	ldr	r3, [r7, #4]
 800349a:	2201      	movs	r2, #1
 800349c:	601a      	str	r2, [r3, #0]
 800349e:	e015      	b.n	80034cc <xQueueGenericSendFromISR+0x140>
 80034a0:	f997 3033 	ldrsb.w	r3, [r7, #51]	; 0x33
 80034a4:	2b7f      	cmp	r3, #127	; 0x7f
 80034a6:	d109      	bne.n	80034bc <xQueueGenericSendFromISR+0x130>
 80034a8:	f04f 0350 	mov.w	r3, #80	; 0x50
 80034ac:	f383 8811 	msr	BASEPRI, r3
 80034b0:	f3bf 8f6f 	isb	sy
 80034b4:	f3bf 8f4f 	dsb	sy
 80034b8:	617b      	str	r3, [r7, #20]
 80034ba:	e7fe      	b.n	80034ba <xQueueGenericSendFromISR+0x12e>
 80034bc:	f897 3033 	ldrb.w	r3, [r7, #51]	; 0x33
 80034c0:	3301      	adds	r3, #1
 80034c2:	b2db      	uxtb	r3, r3
 80034c4:	b25a      	sxtb	r2, r3
 80034c6:	6bbb      	ldr	r3, [r7, #56]	; 0x38
 80034c8:	f883 2045 	strb.w	r2, [r3, #69]	; 0x45
 80034cc:	2301      	movs	r3, #1
 80034ce:	63fb      	str	r3, [r7, #60]	; 0x3c
 80034d0:	e00b      	b.n	80034ea <xQueueGenericSendFromISR+0x15e>
 80034d2:	6bbb      	ldr	r3, [r7, #56]	; 0x38
 80034d4:	4618      	mov	r0, r3
 80034d6:	f003 fd67 	bl	8006fa8 <SEGGER_SYSVIEW_ShrinkId>
 80034da:	4601      	mov	r1, r0
 80034dc:	687b      	ldr	r3, [r7, #4]
 80034de:	461a      	mov	r2, r3
 80034e0:	2060      	movs	r0, #96	; 0x60
 80034e2:	f002 ff7d 	bl	80063e0 <SEGGER_SYSVIEW_RecordU32x2>
 80034e6:	2300      	movs	r3, #0
 80034e8:	63fb      	str	r3, [r7, #60]	; 0x3c
 80034ea:	6b7b      	ldr	r3, [r7, #52]	; 0x34
 80034ec:	613b      	str	r3, [r7, #16]
 80034ee:	693b      	ldr	r3, [r7, #16]
 80034f0:	f383 8811 	msr	BASEPRI, r3
 80034f4:	6bfb      	ldr	r3, [r7, #60]	; 0x3c
 80034f6:	4618      	mov	r0, r3
 80034f8:	3740      	adds	r7, #64	; 0x40
 80034fa:	46bd      	mov	sp, r7
 80034fc:	bd80      	pop	{r7, pc}
	...

08003500 <xQueueReceive>:
 8003500:	b590      	push	{r4, r7, lr}
 8003502:	b08f      	sub	sp, #60	; 0x3c
 8003504:	af02      	add	r7, sp, #8
 8003506:	60f8      	str	r0, [r7, #12]
 8003508:	60b9      	str	r1, [r7, #8]
 800350a:	607a      	str	r2, [r7, #4]
 800350c:	2300      	movs	r3, #0
 800350e:	62fb      	str	r3, [r7, #44]	; 0x2c
 8003510:	68fb      	ldr	r3, [r7, #12]
 8003512:	62bb      	str	r3, [r7, #40]	; 0x28
 8003514:	6abb      	ldr	r3, [r7, #40]	; 0x28
 8003516:	2b00      	cmp	r3, #0
 8003518:	d109      	bne.n	800352e <xQueueReceive+0x2e>
 800351a:	f04f 0350 	mov.w	r3, #80	; 0x50
 800351e:	f383 8811 	msr	BASEPRI, r3
 8003522:	f3bf 8f6f 	isb	sy
 8003526:	f3bf 8f4f 	dsb	sy
 800352a:	623b      	str	r3, [r7, #32]
 800352c:	e7fe      	b.n	800352c <xQueueReceive+0x2c>
 800352e:	68bb      	ldr	r3, [r7, #8]
 8003530:	2b00      	cmp	r3, #0
 8003532:	d103      	bne.n	800353c <xQueueReceive+0x3c>
 8003534:	6abb      	ldr	r3, [r7, #40]	; 0x28
 8003536:	6c1b      	ldr	r3, [r3, #64]	; 0x40
 8003538:	2b00      	cmp	r3, #0
 800353a:	d101      	bne.n	8003540 <xQueueReceive+0x40>
 800353c:	2301      	movs	r3, #1
 800353e:	e000      	b.n	8003542 <xQueueReceive+0x42>
 8003540:	2300      	movs	r3, #0
 8003542:	2b00      	cmp	r3, #0
 8003544:	d109      	bne.n	800355a <xQueueReceive+0x5a>
 8003546:	f04f 0350 	mov.w	r3, #80	; 0x50
 800354a:	f383 8811 	msr	BASEPRI, r3
 800354e:	f3bf 8f6f 	isb	sy
 8003552:	f3bf 8f4f 	dsb	sy
 8003556:	61fb      	str	r3, [r7, #28]
 8003558:	e7fe      	b.n	8003558 <xQueueReceive+0x58>
 800355a:	f001 f8b3 	bl	80046c4 <xTaskGetSchedulerState>
 800355e:	4603      	mov	r3, r0
 8003560:	2b00      	cmp	r3, #0
 8003562:	d102      	bne.n	800356a <xQueueReceive+0x6a>
 8003564:	687b      	ldr	r3, [r7, #4]
 8003566:	2b00      	cmp	r3, #0
 8003568:	d101      	bne.n	800356e <xQueueReceive+0x6e>
 800356a:	2301      	movs	r3, #1
 800356c:	e000      	b.n	8003570 <xQueueReceive+0x70>
 800356e:	2300      	movs	r3, #0
 8003570:	2b00      	cmp	r3, #0
 8003572:	d109      	bne.n	8003588 <xQueueReceive+0x88>
 8003574:	f04f 0350 	mov.w	r3, #80	; 0x50
 8003578:	f383 8811 	msr	BASEPRI, r3
 800357c:	f3bf 8f6f 	isb	sy
 8003580:	f3bf 8f4f 	dsb	sy
 8003584:	61bb      	str	r3, [r7, #24]
 8003586:	e7fe      	b.n	8003586 <xQueueReceive+0x86>
 8003588:	f001 fe64 	bl	8005254 <vPortEnterCritical>
 800358c:	6abb      	ldr	r3, [r7, #40]	; 0x28
 800358e:	6b9b      	ldr	r3, [r3, #56]	; 0x38
 8003590:	627b      	str	r3, [r7, #36]	; 0x24
 8003592:	6a7b      	ldr	r3, [r7, #36]	; 0x24
 8003594:	2b00      	cmp	r3, #0
 8003596:	d031      	beq.n	80035fc <xQueueReceive+0xfc>
 8003598:	68b9      	ldr	r1, [r7, #8]
 800359a:	6ab8      	ldr	r0, [r7, #40]	; 0x28
 800359c:	f000 f92e 	bl	80037fc <prvCopyDataFromQueue>
 80035a0:	6abb      	ldr	r3, [r7, #40]	; 0x28
 80035a2:	4618      	mov	r0, r3
 80035a4:	f003 fd00 	bl	8006fa8 <SEGGER_SYSVIEW_ShrinkId>
 80035a8:	4604      	mov	r4, r0
 80035aa:	2000      	movs	r0, #0
 80035ac:	f003 fcfc 	bl	8006fa8 <SEGGER_SYSVIEW_ShrinkId>
 80035b0:	4601      	mov	r1, r0
 80035b2:	687a      	ldr	r2, [r7, #4]
 80035b4:	2301      	movs	r3, #1
 80035b6:	9300      	str	r3, [sp, #0]
 80035b8:	4613      	mov	r3, r2
 80035ba:	460a      	mov	r2, r1
 80035bc:	4621      	mov	r1, r4
 80035be:	205c      	movs	r0, #92	; 0x5c
 80035c0:	f002 ffde 	bl	8006580 <SEGGER_SYSVIEW_RecordU32x4>
 80035c4:	6a7b      	ldr	r3, [r7, #36]	; 0x24
 80035c6:	1e5a      	subs	r2, r3, #1
 80035c8:	6abb      	ldr	r3, [r7, #40]	; 0x28
 80035ca:	639a      	str	r2, [r3, #56]	; 0x38
 80035cc:	6abb      	ldr	r3, [r7, #40]	; 0x28
 80035ce:	691b      	ldr	r3, [r3, #16]
 80035d0:	2b00      	cmp	r3, #0
 80035d2:	d00f      	beq.n	80035f4 <xQueueReceive+0xf4>
 80035d4:	6abb      	ldr	r3, [r7, #40]	; 0x28
 80035d6:	3310      	adds	r3, #16
 80035d8:	4618      	mov	r0, r3
 80035da:	f000 fed7 	bl	800438c <xTaskRemoveFromEventList>
 80035de:	4603      	mov	r3, r0
 80035e0:	2b00      	cmp	r3, #0
 80035e2:	d007      	beq.n	80035f4 <xQueueReceive+0xf4>
 80035e4:	4b4f      	ldr	r3, [pc, #316]	; (8003724 <xQueueReceive+0x224>)
 80035e6:	f04f 5280 	mov.w	r2, #268435456	; 0x10000000
 80035ea:	601a      	str	r2, [r3, #0]
 80035ec:	f3bf 8f4f 	dsb	sy
 80035f0:	f3bf 8f6f 	isb	sy
 80035f4:	f001 fe5c 	bl	80052b0 <vPortExitCritical>
 80035f8:	2301      	movs	r3, #1
 80035fa:	e08e      	b.n	800371a <xQueueReceive+0x21a>
 80035fc:	687b      	ldr	r3, [r7, #4]
 80035fe:	2b00      	cmp	r3, #0
 8003600:	d115      	bne.n	800362e <xQueueReceive+0x12e>
 8003602:	f001 fe55 	bl	80052b0 <vPortExitCritical>
 8003606:	6abb      	ldr	r3, [r7, #40]	; 0x28
 8003608:	4618      	mov	r0, r3
 800360a:	f003 fccd 	bl	8006fa8 <SEGGER_SYSVIEW_ShrinkId>
 800360e:	4604      	mov	r4, r0
 8003610:	2000      	movs	r0, #0
 8003612:	f003 fcc9 	bl	8006fa8 <SEGGER_SYSVIEW_ShrinkId>
 8003616:	4601      	mov	r1, r0
 8003618:	687a      	ldr	r2, [r7, #4]
 800361a:	2301      	movs	r3, #1
 800361c:	9300      	str	r3, [sp, #0]
 800361e:	4613      	mov	r3, r2
 8003620:	460a      	mov	r2, r1
 8003622:	4621      	mov	r1, r4
 8003624:	205c      	movs	r0, #92	; 0x5c
 8003626:	f002 ffab 	bl	8006580 <SEGGER_SYSVIEW_RecordU32x4>
 800362a:	2300      	movs	r3, #0
 800362c:	e075      	b.n	800371a <xQueueReceive+0x21a>
 800362e:	6afb      	ldr	r3, [r7, #44]	; 0x2c
 8003630:	2b00      	cmp	r3, #0
 8003632:	d106      	bne.n	8003642 <xQueueReceive+0x142>
 8003634:	f107 0310 	add.w	r3, r7, #16
 8003638:	4618      	mov	r0, r3
 800363a:	f000 ff0d 	bl	8004458 <vTaskInternalSetTimeOutState>
 800363e:	2301      	movs	r3, #1
 8003640:	62fb      	str	r3, [r7, #44]	; 0x2c
 8003642:	f001 fe35 	bl	80052b0 <vPortExitCritical>
 8003646:	f000 fc5b 	bl	8003f00 <vTaskSuspendAll>
 800364a:	f001 fe03 	bl	8005254 <vPortEnterCritical>
 800364e:	6abb      	ldr	r3, [r7, #40]	; 0x28
 8003650:	f893 3044 	ldrb.w	r3, [r3, #68]	; 0x44
 8003654:	b25b      	sxtb	r3, r3
 8003656:	f1b3 3fff 	cmp.w	r3, #4294967295
 800365a:	d103      	bne.n	8003664 <xQueueReceive+0x164>
 800365c:	6abb      	ldr	r3, [r7, #40]	; 0x28
 800365e:	2200      	movs	r2, #0
 8003660:	f883 2044 	strb.w	r2, [r3, #68]	; 0x44
 8003664:	6abb      	ldr	r3, [r7, #40]	; 0x28
 8003666:	f893 3045 	ldrb.w	r3, [r3, #69]	; 0x45
 800366a:	b25b      	sxtb	r3, r3
 800366c:	f1b3 3fff 	cmp.w	r3, #4294967295
 8003670:	d103      	bne.n	800367a <xQueueReceive+0x17a>
 8003672:	6abb      	ldr	r3, [r7, #40]	; 0x28
 8003674:	2200      	movs	r2, #0
 8003676:	f883 2045 	strb.w	r2, [r3, #69]	; 0x45
 800367a:	f001 fe19 	bl	80052b0 <vPortExitCritical>
 800367e:	1d3a      	adds	r2, r7, #4
 8003680:	f107 0310 	add.w	r3, r7, #16
 8003684:	4611      	mov	r1, r2
 8003686:	4618      	mov	r0, r3
 8003688:	f000 fefc 	bl	8004484 <xTaskCheckForTimeOut>
 800368c:	4603      	mov	r3, r0
 800368e:	2b00      	cmp	r3, #0
 8003690:	d124      	bne.n	80036dc <xQueueReceive+0x1dc>
 8003692:	6ab8      	ldr	r0, [r7, #40]	; 0x28
 8003694:	f000 f92a 	bl	80038ec <prvIsQueueEmpty>
 8003698:	4603      	mov	r3, r0
 800369a:	2b00      	cmp	r3, #0
 800369c:	d018      	beq.n	80036d0 <xQueueReceive+0x1d0>
 800369e:	6abb      	ldr	r3, [r7, #40]	; 0x28
 80036a0:	3324      	adds	r3, #36	; 0x24
 80036a2:	687a      	ldr	r2, [r7, #4]
 80036a4:	4611      	mov	r1, r2
 80036a6:	4618      	mov	r0, r3
 80036a8:	f000 fe1e 	bl	80042e8 <vTaskPlaceOnEventList>
 80036ac:	6ab8      	ldr	r0, [r7, #40]	; 0x28
 80036ae:	f000 f8cb 	bl	8003848 <prvUnlockQueue>
 80036b2:	f000 fc33 	bl	8003f1c <xTaskResumeAll>
 80036b6:	4603      	mov	r3, r0
 80036b8:	2b00      	cmp	r3, #0
 80036ba:	f47f af65 	bne.w	8003588 <xQueueReceive+0x88>
 80036be:	4b19      	ldr	r3, [pc, #100]	; (8003724 <xQueueReceive+0x224>)
 80036c0:	f04f 5280 	mov.w	r2, #268435456	; 0x10000000
 80036c4:	601a      	str	r2, [r3, #0]
 80036c6:	f3bf 8f4f 	dsb	sy
 80036ca:	f3bf 8f6f 	isb	sy
 80036ce:	e75b      	b.n	8003588 <xQueueReceive+0x88>
 80036d0:	6ab8      	ldr	r0, [r7, #40]	; 0x28
 80036d2:	f000 f8b9 	bl	8003848 <prvUnlockQueue>
 80036d6:	f000 fc21 	bl	8003f1c <xTaskResumeAll>
 80036da:	e755      	b.n	8003588 <xQueueReceive+0x88>
 80036dc:	6ab8      	ldr	r0, [r7, #40]	; 0x28
 80036de:	f000 f8b3 	bl	8003848 <prvUnlockQueue>
 80036e2:	f000 fc1b 	bl	8003f1c <xTaskResumeAll>
 80036e6:	6ab8      	ldr	r0, [r7, #40]	; 0x28
 80036e8:	f000 f900 	bl	80038ec <prvIsQueueEmpty>
 80036ec:	4603      	mov	r3, r0
 80036ee:	2b00      	cmp	r3, #0
 80036f0:	f43f af4a 	beq.w	8003588 <xQueueReceive+0x88>
 80036f4:	6abb      	ldr	r3, [r7, #40]	; 0x28
 80036f6:	4618      	mov	r0, r3
 80036f8:	f003 fc56 	bl	8006fa8 <SEGGER_SYSVIEW_ShrinkId>
 80036fc:	4604      	mov	r4, r0
 80036fe:	2000      	movs	r0, #0
 8003700:	f003 fc52 	bl	8006fa8 <SEGGER_SYSVIEW_ShrinkId>
 8003704:	4601      	mov	r1, r0
 8003706:	687a      	ldr	r2, [r7, #4]
 8003708:	2301      	movs	r3, #1
 800370a:	9300      	str	r3, [sp, #0]
 800370c:	4613      	mov	r3, r2
 800370e:	460a      	mov	r2, r1
 8003710:	4621      	mov	r1, r4
 8003712:	205c      	movs	r0, #92	; 0x5c
 8003714:	f002 ff34 	bl	8006580 <SEGGER_SYSVIEW_RecordU32x4>
 8003718:	2300      	movs	r3, #0
 800371a:	4618      	mov	r0, r3
 800371c:	3734      	adds	r7, #52	; 0x34
 800371e:	46bd      	mov	sp, r7
 8003720:	bd90      	pop	{r4, r7, pc}
 8003722:	bf00      	nop
 8003724:	e000ed04 	.word	0xe000ed04

08003728 <prvCopyDataToQueue>:
 8003728:	b580      	push	{r7, lr}
 800372a:	b086      	sub	sp, #24
 800372c:	af00      	add	r7, sp, #0
 800372e:	60f8      	str	r0, [r7, #12]
 8003730:	60b9      	str	r1, [r7, #8]
 8003732:	607a      	str	r2, [r7, #4]
 8003734:	2300      	movs	r3, #0
 8003736:	617b      	str	r3, [r7, #20]
 8003738:	68fb      	ldr	r3, [r7, #12]
 800373a:	6b9b      	ldr	r3, [r3, #56]	; 0x38
 800373c:	613b      	str	r3, [r7, #16]
 800373e:	68fb      	ldr	r3, [r7, #12]
 8003740:	6c1b      	ldr	r3, [r3, #64]	; 0x40
 8003742:	2b00      	cmp	r3, #0
 8003744:	d10d      	bne.n	8003762 <prvCopyDataToQueue+0x3a>
 8003746:	68fb      	ldr	r3, [r7, #12]
 8003748:	681b      	ldr	r3, [r3, #0]
 800374a:	2b00      	cmp	r3, #0
 800374c:	d14d      	bne.n	80037ea <prvCopyDataToQueue+0xc2>
 800374e:	68fb      	ldr	r3, [r7, #12]
 8003750:	689b      	ldr	r3, [r3, #8]
 8003752:	4618      	mov	r0, r3
 8003754:	f000 ffd4 	bl	8004700 <xTaskPriorityDisinherit>
 8003758:	6178      	str	r0, [r7, #20]
 800375a:	68fb      	ldr	r3, [r7, #12]
 800375c:	2200      	movs	r2, #0
 800375e:	609a      	str	r2, [r3, #8]
 8003760:	e043      	b.n	80037ea <prvCopyDataToQueue+0xc2>
 8003762:	687b      	ldr	r3, [r7, #4]
 8003764:	2b00      	cmp	r3, #0
 8003766:	d119      	bne.n	800379c <prvCopyDataToQueue+0x74>
 8003768:	68fb      	ldr	r3, [r7, #12]
 800376a:	6858      	ldr	r0, [r3, #4]
 800376c:	68fb      	ldr	r3, [r7, #12]
 800376e:	6c1b      	ldr	r3, [r3, #64]	; 0x40
 8003770:	461a      	mov	r2, r3
 8003772:	68b9      	ldr	r1, [r7, #8]
 8003774:	f003 fd93 	bl	800729e <memcpy>
 8003778:	68fb      	ldr	r3, [r7, #12]
 800377a:	685a      	ldr	r2, [r3, #4]
 800377c:	68fb      	ldr	r3, [r7, #12]
 800377e:	6c1b      	ldr	r3, [r3, #64]	; 0x40
 8003780:	441a      	add	r2, r3
 8003782:	68fb      	ldr	r3, [r7, #12]
 8003784:	605a      	str	r2, [r3, #4]
 8003786:	68fb      	ldr	r3, [r7, #12]
 8003788:	685a      	ldr	r2, [r3, #4]
 800378a:	68fb      	ldr	r3, [r7, #12]
 800378c:	689b      	ldr	r3, [r3, #8]
 800378e:	429a      	cmp	r2, r3
 8003790:	d32b      	bcc.n	80037ea <prvCopyDataToQueue+0xc2>
 8003792:	68fb      	ldr	r3, [r7, #12]
 8003794:	681a      	ldr	r2, [r3, #0]
 8003796:	68fb      	ldr	r3, [r7, #12]
 8003798:	605a      	str	r2, [r3, #4]
 800379a:	e026      	b.n	80037ea <prvCopyDataToQueue+0xc2>
 800379c:	68fb      	ldr	r3, [r7, #12]
 800379e:	68d8      	ldr	r0, [r3, #12]
 80037a0:	68fb      	ldr	r3, [r7, #12]
 80037a2:	6c1b      	ldr	r3, [r3, #64]	; 0x40
 80037a4:	461a      	mov	r2, r3
 80037a6:	68b9      	ldr	r1, [r7, #8]
 80037a8:	f003 fd79 	bl	800729e <memcpy>
 80037ac:	68fb      	ldr	r3, [r7, #12]
 80037ae:	68da      	ldr	r2, [r3, #12]
 80037b0:	68fb      	ldr	r3, [r7, #12]
 80037b2:	6c1b      	ldr	r3, [r3, #64]	; 0x40
 80037b4:	425b      	negs	r3, r3
 80037b6:	441a      	add	r2, r3
 80037b8:	68fb      	ldr	r3, [r7, #12]
 80037ba:	60da      	str	r2, [r3, #12]
 80037bc:	68fb      	ldr	r3, [r7, #12]
 80037be:	68da      	ldr	r2, [r3, #12]
 80037c0:	68fb      	ldr	r3, [r7, #12]
 80037c2:	681b      	ldr	r3, [r3, #0]
 80037c4:	429a      	cmp	r2, r3
 80037c6:	d207      	bcs.n	80037d8 <prvCopyDataToQueue+0xb0>
 80037c8:	68fb      	ldr	r3, [r7, #12]
 80037ca:	689a      	ldr	r2, [r3, #8]
 80037cc:	68fb      	ldr	r3, [r7, #12]
 80037ce:	6c1b      	ldr	r3, [r3, #64]	; 0x40
 80037d0:	425b      	negs	r3, r3
 80037d2:	441a      	add	r2, r3
 80037d4:	68fb      	ldr	r3, [r7, #12]
 80037d6:	60da      	str	r2, [r3, #12]
 80037d8:	687b      	ldr	r3, [r7, #4]
 80037da:	2b02      	cmp	r3, #2
 80037dc:	d105      	bne.n	80037ea <prvCopyDataToQueue+0xc2>
 80037de:	693b      	ldr	r3, [r7, #16]
 80037e0:	2b00      	cmp	r3, #0
 80037e2:	d002      	beq.n	80037ea <prvCopyDataToQueue+0xc2>
 80037e4:	693b      	ldr	r3, [r7, #16]
 80037e6:	3b01      	subs	r3, #1
 80037e8:	613b      	str	r3, [r7, #16]
 80037ea:	693b      	ldr	r3, [r7, #16]
 80037ec:	1c5a      	adds	r2, r3, #1
 80037ee:	68fb      	ldr	r3, [r7, #12]
 80037f0:	639a      	str	r2, [r3, #56]	; 0x38
 80037f2:	697b      	ldr	r3, [r7, #20]
 80037f4:	4618      	mov	r0, r3
 80037f6:	3718      	adds	r7, #24
 80037f8:	46bd      	mov	sp, r7
 80037fa:	bd80      	pop	{r7, pc}

080037fc <prvCopyDataFromQueue>:
 80037fc:	b580      	push	{r7, lr}
 80037fe:	b082      	sub	sp, #8
 8003800:	af00      	add	r7, sp, #0
 8003802:	6078      	str	r0, [r7, #4]
 8003804:	6039      	str	r1, [r7, #0]
 8003806:	687b      	ldr	r3, [r7, #4]
 8003808:	6c1b      	ldr	r3, [r3, #64]	; 0x40
 800380a:	2b00      	cmp	r3, #0
 800380c:	d018      	beq.n	8003840 <prvCopyDataFromQueue+0x44>
 800380e:	687b      	ldr	r3, [r7, #4]
 8003810:	68da      	ldr	r2, [r3, #12]
 8003812:	687b      	ldr	r3, [r7, #4]
 8003814:	6c1b      	ldr	r3, [r3, #64]	; 0x40
 8003816:	441a      	add	r2, r3
 8003818:	687b      	ldr	r3, [r7, #4]
 800381a:	60da      	str	r2, [r3, #12]
 800381c:	687b      	ldr	r3, [r7, #4]
 800381e:	68da      	ldr	r2, [r3, #12]
 8003820:	687b      	ldr	r3, [r7, #4]
 8003822:	689b      	ldr	r3, [r3, #8]
 8003824:	429a      	cmp	r2, r3
 8003826:	d303      	bcc.n	8003830 <prvCopyDataFromQueue+0x34>
 8003828:	687b      	ldr	r3, [r7, #4]
 800382a:	681a      	ldr	r2, [r3, #0]
 800382c:	687b      	ldr	r3, [r7, #4]
 800382e:	60da      	str	r2, [r3, #12]
 8003830:	687b      	ldr	r3, [r7, #4]
 8003832:	68d9      	ldr	r1, [r3, #12]
 8003834:	687b      	ldr	r3, [r7, #4]
 8003836:	6c1b      	ldr	r3, [r3, #64]	; 0x40
 8003838:	461a      	mov	r2, r3
 800383a:	6838      	ldr	r0, [r7, #0]
 800383c:	f003 fd2f 	bl	800729e <memcpy>
 8003840:	bf00      	nop
 8003842:	3708      	adds	r7, #8
 8003844:	46bd      	mov	sp, r7
 8003846:	bd80      	pop	{r7, pc}

08003848 <prvUnlockQueue>:
 8003848:	b580      	push	{r7, lr}
 800384a:	b084      	sub	sp, #16
 800384c:	af00      	add	r7, sp, #0
 800384e:	6078      	str	r0, [r7, #4]
 8003850:	f001 fd00 	bl	8005254 <vPortEnterCritical>
 8003854:	687b      	ldr	r3, [r7, #4]
 8003856:	f893 3045 	ldrb.w	r3, [r3, #69]	; 0x45
 800385a:	73fb      	strb	r3, [r7, #15]
 800385c:	e011      	b.n	8003882 <prvUnlockQueue+0x3a>
 800385e:	687b      	ldr	r3, [r7, #4]
 8003860:	6a5b      	ldr	r3, [r3, #36]	; 0x24
 8003862:	2b00      	cmp	r3, #0
 8003864:	d012      	beq.n	800388c <prvUnlockQueue+0x44>
 8003866:	687b      	ldr	r3, [r7, #4]
 8003868:	3324      	adds	r3, #36	; 0x24
 800386a:	4618      	mov	r0, r3
 800386c:	f000 fd8e 	bl	800438c <xTaskRemoveFromEventList>
 8003870:	4603      	mov	r3, r0
 8003872:	2b00      	cmp	r3, #0
 8003874:	d001      	beq.n	800387a <prvUnlockQueue+0x32>
 8003876:	f000 fe69 	bl	800454c <vTaskMissedYield>
 800387a:	7bfb      	ldrb	r3, [r7, #15]
 800387c:	3b01      	subs	r3, #1
 800387e:	b2db      	uxtb	r3, r3
 8003880:	73fb      	strb	r3, [r7, #15]
 8003882:	f997 300f 	ldrsb.w	r3, [r7, #15]
 8003886:	2b00      	cmp	r3, #0
 8003888:	dce9      	bgt.n	800385e <prvUnlockQueue+0x16>
 800388a:	e000      	b.n	800388e <prvUnlockQueue+0x46>
 800388c:	bf00      	nop
 800388e:	687b      	ldr	r3, [r7, #4]
 8003890:	22ff      	movs	r2, #255	; 0xff
 8003892:	f883 2045 	strb.w	r2, [r3, #69]	; 0x45
 8003896:	f001 fd0b 	bl	80052b0 <vPortExitCritical>
 800389a:	f001 fcdb 	bl	8005254 <vPortEnterCritical>
 800389e:	687b      	ldr	r3, [r7, #4]
 80038a0:	f893 3044 	ldrb.w	r3, [r3, #68]	; 0x44
 80038a4:	73bb      	strb	r3, [r7, #14]
 80038a6:	e011      	b.n	80038cc <prvUnlockQueue+0x84>
 80038a8:	687b      	ldr	r3, [r7, #4]
 80038aa:	691b      	ldr	r3, [r3, #16]
 80038ac:	2b00      	cmp	r3, #0
 80038ae:	d012      	beq.n	80038d6 <prvUnlockQueue+0x8e>
 80038b0:	687b      	ldr	r3, [r7, #4]
 80038b2:	3310      	adds	r3, #16
 80038b4:	4618      	mov	r0, r3
 80038b6:	f000 fd69 	bl	800438c <xTaskRemoveFromEventList>
 80038ba:	4603      	mov	r3, r0
 80038bc:	2b00      	cmp	r3, #0
 80038be:	d001      	beq.n	80038c4 <prvUnlockQueue+0x7c>
 80038c0:	f000 fe44 	bl	800454c <vTaskMissedYield>
 80038c4:	7bbb      	ldrb	r3, [r7, #14]
 80038c6:	3b01      	subs	r3, #1
 80038c8:	b2db      	uxtb	r3, r3
 80038ca:	73bb      	strb	r3, [r7, #14]
 80038cc:	f997 300e 	ldrsb.w	r3, [r7, #14]
 80038d0:	2b00      	cmp	r3, #0
 80038d2:	dce9      	bgt.n	80038a8 <prvUnlockQueue+0x60>
 80038d4:	e000      	b.n	80038d8 <prvUnlockQueue+0x90>
 80038d6:	bf00      	nop
 80038d8:	687b      	ldr	r3, [r7, #4]
 80038da:	22ff      	movs	r2, #255	; 0xff
 80038dc:	f883 2044 	strb.w	r2, [r3, #68]	; 0x44
 80038e0:	f001 fce6 	bl	80052b0 <vPortExitCritical>
 80038e4:	bf00      	nop
 80038e6:	3710      	adds	r7, #16
 80038e8:	46bd      	mov	sp, r7
 80038ea:	bd80      	pop	{r7, pc}

080038ec <prvIsQueueEmpty>:
 80038ec:	b580      	push	{r7, lr}
 80038ee:	b084      	sub	sp, #16
 80038f0:	af00      	add	r7, sp, #0
 80038f2:	6078      	str	r0, [r7, #4]
 80038f4:	f001 fcae 	bl	8005254 <vPortEnterCritical>
 80038f8:	687b      	ldr	r3, [r7, #4]
 80038fa:	6b9b      	ldr	r3, [r3, #56]	; 0x38
 80038fc:	2b00      	cmp	r3, #0
 80038fe:	d102      	bne.n	8003906 <prvIsQueueEmpty+0x1a>
 8003900:	2301      	movs	r3, #1
 8003902:	60fb      	str	r3, [r7, #12]
 8003904:	e001      	b.n	800390a <prvIsQueueEmpty+0x1e>
 8003906:	2300      	movs	r3, #0
 8003908:	60fb      	str	r3, [r7, #12]
 800390a:	f001 fcd1 	bl	80052b0 <vPortExitCritical>
 800390e:	68fb      	ldr	r3, [r7, #12]
 8003910:	4618      	mov	r0, r3
 8003912:	3710      	adds	r7, #16
 8003914:	46bd      	mov	sp, r7
 8003916:	bd80      	pop	{r7, pc}

08003918 <prvIsQueueFull>:
 8003918:	b580      	push	{r7, lr}
 800391a:	b084      	sub	sp, #16
 800391c:	af00      	add	r7, sp, #0
 800391e:	6078      	str	r0, [r7, #4]
 8003920:	f001 fc98 	bl	8005254 <vPortEnterCritical>
 8003924:	687b      	ldr	r3, [r7, #4]
 8003926:	6b9a      	ldr	r2, [r3, #56]	; 0x38
 8003928:	687b      	ldr	r3, [r7, #4]
 800392a:	6bdb      	ldr	r3, [r3, #60]	; 0x3c
 800392c:	429a      	cmp	r2, r3
 800392e:	d102      	bne.n	8003936 <prvIsQueueFull+0x1e>
 8003930:	2301      	movs	r3, #1
 8003932:	60fb      	str	r3, [r7, #12]
 8003934:	e001      	b.n	800393a <prvIsQueueFull+0x22>
 8003936:	2300      	movs	r3, #0
 8003938:	60fb      	str	r3, [r7, #12]
 800393a:	f001 fcb9 	bl	80052b0 <vPortExitCritical>
 800393e:	68fb      	ldr	r3, [r7, #12]
 8003940:	4618      	mov	r0, r3
 8003942:	3710      	adds	r7, #16
 8003944:	46bd      	mov	sp, r7
 8003946:	bd80      	pop	{r7, pc}

08003948 <vQueueAddToRegistry>:
 8003948:	b580      	push	{r7, lr}
 800394a:	b084      	sub	sp, #16
 800394c:	af00      	add	r7, sp, #0
 800394e:	6078      	str	r0, [r7, #4]
 8003950:	6039      	str	r1, [r7, #0]
 8003952:	2300      	movs	r3, #0
 8003954:	60fb      	str	r3, [r7, #12]
 8003956:	e01e      	b.n	8003996 <vQueueAddToRegistry+0x4e>
 8003958:	4a12      	ldr	r2, [pc, #72]	; (80039a4 <vQueueAddToRegistry+0x5c>)
 800395a:	68fb      	ldr	r3, [r7, #12]
 800395c:	f852 3033 	ldr.w	r3, [r2, r3, lsl #3]
 8003960:	2b00      	cmp	r3, #0
 8003962:	d115      	bne.n	8003990 <vQueueAddToRegistry+0x48>
 8003964:	490f      	ldr	r1, [pc, #60]	; (80039a4 <vQueueAddToRegistry+0x5c>)
 8003966:	68fb      	ldr	r3, [r7, #12]
 8003968:	683a      	ldr	r2, [r7, #0]
 800396a:	f841 2033 	str.w	r2, [r1, r3, lsl #3]
 800396e:	4a0d      	ldr	r2, [pc, #52]	; (80039a4 <vQueueAddToRegistry+0x5c>)
 8003970:	68fb      	ldr	r3, [r7, #12]
 8003972:	00db      	lsls	r3, r3, #3
 8003974:	4413      	add	r3, r2
 8003976:	687a      	ldr	r2, [r7, #4]
 8003978:	605a      	str	r2, [r3, #4]
 800397a:	687b      	ldr	r3, [r7, #4]
 800397c:	4618      	mov	r0, r3
 800397e:	f003 fb13 	bl	8006fa8 <SEGGER_SYSVIEW_ShrinkId>
 8003982:	4601      	mov	r1, r0
 8003984:	683b      	ldr	r3, [r7, #0]
 8003986:	461a      	mov	r2, r3
 8003988:	2071      	movs	r0, #113	; 0x71
 800398a:	f002 fd29 	bl	80063e0 <SEGGER_SYSVIEW_RecordU32x2>
 800398e:	e005      	b.n	800399c <vQueueAddToRegistry+0x54>
 8003990:	68fb      	ldr	r3, [r7, #12]
 8003992:	3301      	adds	r3, #1
 8003994:	60fb      	str	r3, [r7, #12]
 8003996:	68fb      	ldr	r3, [r7, #12]
 8003998:	2b07      	cmp	r3, #7
 800399a:	d9dd      	bls.n	8003958 <vQueueAddToRegistry+0x10>
 800399c:	bf00      	nop
 800399e:	3710      	adds	r7, #16
 80039a0:	46bd      	mov	sp, r7
 80039a2:	bd80      	pop	{r7, pc}
 80039a4:	2001a830 	.word	0x2001a830

080039a8 <vQueueWaitForMessageRestricted>:
 80039a8:	b580      	push	{r7, lr}
 80039aa:	b086      	sub	sp, #24
 80039ac:	af00      	add	r7, sp, #0
 80039ae:	60f8      	str	r0, [r7, #12]
 80039b0:	60b9      	str	r1, [r7, #8]
 80039b2:	607a      	str	r2, [r7, #4]
 80039b4:	68fb      	ldr	r3, [r7, #12]
 80039b6:	617b      	str	r3, [r7, #20]
 80039b8:	f001 fc4c 	bl	8005254 <vPortEnterCritical>
 80039bc:	697b      	ldr	r3, [r7, #20]
 80039be:	f893 3044 	ldrb.w	r3, [r3, #68]	; 0x44
 80039c2:	b25b      	sxtb	r3, r3
 80039c4:	f1b3 3fff 	cmp.w	r3, #4294967295
 80039c8:	d103      	bne.n	80039d2 <vQueueWaitForMessageRestricted+0x2a>
 80039ca:	697b      	ldr	r3, [r7, #20]
 80039cc:	2200      	movs	r2, #0
 80039ce:	f883 2044 	strb.w	r2, [r3, #68]	; 0x44
 80039d2:	697b      	ldr	r3, [r7, #20]
 80039d4:	f893 3045 	ldrb.w	r3, [r3, #69]	; 0x45
 80039d8:	b25b      	sxtb	r3, r3
 80039da:	f1b3 3fff 	cmp.w	r3, #4294967295
 80039de:	d103      	bne.n	80039e8 <vQueueWaitForMessageRestricted+0x40>
 80039e0:	697b      	ldr	r3, [r7, #20]
 80039e2:	2200      	movs	r2, #0
 80039e4:	f883 2045 	strb.w	r2, [r3, #69]	; 0x45
 80039e8:	f001 fc62 	bl	80052b0 <vPortExitCritical>
 80039ec:	697b      	ldr	r3, [r7, #20]
 80039ee:	6b9b      	ldr	r3, [r3, #56]	; 0x38
 80039f0:	2b00      	cmp	r3, #0
 80039f2:	d106      	bne.n	8003a02 <vQueueWaitForMessageRestricted+0x5a>
 80039f4:	697b      	ldr	r3, [r7, #20]
 80039f6:	3324      	adds	r3, #36	; 0x24
 80039f8:	687a      	ldr	r2, [r7, #4]
 80039fa:	68b9      	ldr	r1, [r7, #8]
 80039fc:	4618      	mov	r0, r3
 80039fe:	f000 fc97 	bl	8004330 <vTaskPlaceOnEventListRestricted>
 8003a02:	6978      	ldr	r0, [r7, #20]
 8003a04:	f7ff ff20 	bl	8003848 <prvUnlockQueue>
 8003a08:	bf00      	nop
 8003a0a:	3718      	adds	r7, #24
 8003a0c:	46bd      	mov	sp, r7
 8003a0e:	bd80      	pop	{r7, pc}

08003a10 <xTaskCreate>:
 8003a10:	b580      	push	{r7, lr}
 8003a12:	b08c      	sub	sp, #48	; 0x30
 8003a14:	af04      	add	r7, sp, #16
 8003a16:	60f8      	str	r0, [r7, #12]
 8003a18:	60b9      	str	r1, [r7, #8]
 8003a1a:	603b      	str	r3, [r7, #0]
 8003a1c:	4613      	mov	r3, r2
 8003a1e:	80fb      	strh	r3, [r7, #6]
 8003a20:	88fb      	ldrh	r3, [r7, #6]
 8003a22:	009b      	lsls	r3, r3, #2
 8003a24:	4618      	mov	r0, r3
 8003a26:	f001 fd35 	bl	8005494 <pvPortMalloc>
 8003a2a:	6178      	str	r0, [r7, #20]
 8003a2c:	697b      	ldr	r3, [r7, #20]
 8003a2e:	2b00      	cmp	r3, #0
 8003a30:	d00e      	beq.n	8003a50 <xTaskCreate+0x40>
 8003a32:	2058      	movs	r0, #88	; 0x58
 8003a34:	f001 fd2e 	bl	8005494 <pvPortMalloc>
 8003a38:	61f8      	str	r0, [r7, #28]
 8003a3a:	69fb      	ldr	r3, [r7, #28]
 8003a3c:	2b00      	cmp	r3, #0
 8003a3e:	d003      	beq.n	8003a48 <xTaskCreate+0x38>
 8003a40:	69fb      	ldr	r3, [r7, #28]
 8003a42:	697a      	ldr	r2, [r7, #20]
 8003a44:	631a      	str	r2, [r3, #48]	; 0x30
 8003a46:	e005      	b.n	8003a54 <xTaskCreate+0x44>
 8003a48:	6978      	ldr	r0, [r7, #20]
 8003a4a:	f001 fdff 	bl	800564c <vPortFree>
 8003a4e:	e001      	b.n	8003a54 <xTaskCreate+0x44>
 8003a50:	2300      	movs	r3, #0
 8003a52:	61fb      	str	r3, [r7, #28]
 8003a54:	69fb      	ldr	r3, [r7, #28]
 8003a56:	2b00      	cmp	r3, #0
 8003a58:	d013      	beq.n	8003a82 <xTaskCreate+0x72>
 8003a5a:	88fa      	ldrh	r2, [r7, #6]
 8003a5c:	2300      	movs	r3, #0
 8003a5e:	9303      	str	r3, [sp, #12]
 8003a60:	69fb      	ldr	r3, [r7, #28]
 8003a62:	9302      	str	r3, [sp, #8]
 8003a64:	6afb      	ldr	r3, [r7, #44]	; 0x2c
 8003a66:	9301      	str	r3, [sp, #4]
 8003a68:	6abb      	ldr	r3, [r7, #40]	; 0x28
 8003a6a:	9300      	str	r3, [sp, #0]
 8003a6c:	683b      	ldr	r3, [r7, #0]
 8003a6e:	68b9      	ldr	r1, [r7, #8]
 8003a70:	68f8      	ldr	r0, [r7, #12]
 8003a72:	f000 f80e 	bl	8003a92 <prvInitialiseNewTask>
 8003a76:	69f8      	ldr	r0, [r7, #28]
 8003a78:	f000 f8a0 	bl	8003bbc <prvAddNewTaskToReadyList>
 8003a7c:	2301      	movs	r3, #1
 8003a7e:	61bb      	str	r3, [r7, #24]
 8003a80:	e002      	b.n	8003a88 <xTaskCreate+0x78>
 8003a82:	f04f 33ff 	mov.w	r3, #4294967295
 8003a86:	61bb      	str	r3, [r7, #24]
 8003a88:	69bb      	ldr	r3, [r7, #24]
 8003a8a:	4618      	mov	r0, r3
 8003a8c:	3720      	adds	r7, #32
 8003a8e:	46bd      	mov	sp, r7
 8003a90:	bd80      	pop	{r7, pc}

08003a92 <prvInitialiseNewTask>:
 8003a92:	b580      	push	{r7, lr}
 8003a94:	b088      	sub	sp, #32
 8003a96:	af00      	add	r7, sp, #0
 8003a98:	60f8      	str	r0, [r7, #12]
 8003a9a:	60b9      	str	r1, [r7, #8]
 8003a9c:	607a      	str	r2, [r7, #4]
 8003a9e:	603b      	str	r3, [r7, #0]
 8003aa0:	6b3b      	ldr	r3, [r7, #48]	; 0x30
 8003aa2:	6b18      	ldr	r0, [r3, #48]	; 0x30
 8003aa4:	687b      	ldr	r3, [r7, #4]
 8003aa6:	009b      	lsls	r3, r3, #2
 8003aa8:	461a      	mov	r2, r3
 8003aaa:	21a5      	movs	r1, #165	; 0xa5
 8003aac:	f003 fc02 	bl	80072b4 <memset>
 8003ab0:	6b3b      	ldr	r3, [r7, #48]	; 0x30
 8003ab2:	6b1a      	ldr	r2, [r3, #48]	; 0x30
 8003ab4:	687b      	ldr	r3, [r7, #4]
 8003ab6:	f103 4380 	add.w	r3, r3, #1073741824	; 0x40000000
 8003aba:	3b01      	subs	r3, #1
 8003abc:	009b      	lsls	r3, r3, #2
 8003abe:	4413      	add	r3, r2
 8003ac0:	61bb      	str	r3, [r7, #24]
 8003ac2:	69bb      	ldr	r3, [r7, #24]
 8003ac4:	f023 0307 	bic.w	r3, r3, #7
 8003ac8:	61bb      	str	r3, [r7, #24]
 8003aca:	69bb      	ldr	r3, [r7, #24]
 8003acc:	f003 0307 	and.w	r3, r3, #7
 8003ad0:	2b00      	cmp	r3, #0
 8003ad2:	d009      	beq.n	8003ae8 <prvInitialiseNewTask+0x56>
 8003ad4:	f04f 0350 	mov.w	r3, #80	; 0x50
 8003ad8:	f383 8811 	msr	BASEPRI, r3
 8003adc:	f3bf 8f6f 	isb	sy
 8003ae0:	f3bf 8f4f 	dsb	sy
 8003ae4:	617b      	str	r3, [r7, #20]
 8003ae6:	e7fe      	b.n	8003ae6 <prvInitialiseNewTask+0x54>
 8003ae8:	68bb      	ldr	r3, [r7, #8]
 8003aea:	2b00      	cmp	r3, #0
 8003aec:	d01f      	beq.n	8003b2e <prvInitialiseNewTask+0x9c>
 8003aee:	2300      	movs	r3, #0
 8003af0:	61fb      	str	r3, [r7, #28]
 8003af2:	e012      	b.n	8003b1a <prvInitialiseNewTask+0x88>
 8003af4:	68ba      	ldr	r2, [r7, #8]
 8003af6:	69fb      	ldr	r3, [r7, #28]
 8003af8:	4413      	add	r3, r2
 8003afa:	7819      	ldrb	r1, [r3, #0]
 8003afc:	6b3a      	ldr	r2, [r7, #48]	; 0x30
 8003afe:	69fb      	ldr	r3, [r7, #28]
 8003b00:	4413      	add	r3, r2
 8003b02:	3334      	adds	r3, #52	; 0x34
 8003b04:	460a      	mov	r2, r1
 8003b06:	701a      	strb	r2, [r3, #0]
 8003b08:	68ba      	ldr	r2, [r7, #8]
 8003b0a:	69fb      	ldr	r3, [r7, #28]
 8003b0c:	4413      	add	r3, r2
 8003b0e:	781b      	ldrb	r3, [r3, #0]
 8003b10:	2b00      	cmp	r3, #0
 8003b12:	d006      	beq.n	8003b22 <prvInitialiseNewTask+0x90>
 8003b14:	69fb      	ldr	r3, [r7, #28]
 8003b16:	3301      	adds	r3, #1
 8003b18:	61fb      	str	r3, [r7, #28]
 8003b1a:	69fb      	ldr	r3, [r7, #28]
 8003b1c:	2b09      	cmp	r3, #9
 8003b1e:	d9e9      	bls.n	8003af4 <prvInitialiseNewTask+0x62>
 8003b20:	e000      	b.n	8003b24 <prvInitialiseNewTask+0x92>
 8003b22:	bf00      	nop
 8003b24:	6b3b      	ldr	r3, [r7, #48]	; 0x30
 8003b26:	2200      	movs	r2, #0
 8003b28:	f883 203d 	strb.w	r2, [r3, #61]	; 0x3d
 8003b2c:	e003      	b.n	8003b36 <prvInitialiseNewTask+0xa4>
 8003b2e:	6b3b      	ldr	r3, [r7, #48]	; 0x30
 8003b30:	2200      	movs	r2, #0
 8003b32:	f883 2034 	strb.w	r2, [r3, #52]	; 0x34
 8003b36:	6abb      	ldr	r3, [r7, #40]	; 0x28
 8003b38:	2b04      	cmp	r3, #4
 8003b3a:	d901      	bls.n	8003b40 <prvInitialiseNewTask+0xae>
 8003b3c:	2304      	movs	r3, #4
 8003b3e:	62bb      	str	r3, [r7, #40]	; 0x28
 8003b40:	6b3b      	ldr	r3, [r7, #48]	; 0x30
 8003b42:	6aba      	ldr	r2, [r7, #40]	; 0x28
 8003b44:	62da      	str	r2, [r3, #44]	; 0x2c
 8003b46:	6b3b      	ldr	r3, [r7, #48]	; 0x30
 8003b48:	6aba      	ldr	r2, [r7, #40]	; 0x28
 8003b4a:	649a      	str	r2, [r3, #72]	; 0x48
 8003b4c:	6b3b      	ldr	r3, [r7, #48]	; 0x30
 8003b4e:	2200      	movs	r2, #0
 8003b50:	64da      	str	r2, [r3, #76]	; 0x4c
 8003b52:	6b3b      	ldr	r3, [r7, #48]	; 0x30
 8003b54:	3304      	adds	r3, #4
 8003b56:	4618      	mov	r0, r3
 8003b58:	f7ff f973 	bl	8002e42 <vListInitialiseItem>
 8003b5c:	6b3b      	ldr	r3, [r7, #48]	; 0x30
 8003b5e:	3318      	adds	r3, #24
 8003b60:	4618      	mov	r0, r3
 8003b62:	f7ff f96e 	bl	8002e42 <vListInitialiseItem>
 8003b66:	6b3b      	ldr	r3, [r7, #48]	; 0x30
 8003b68:	6b3a      	ldr	r2, [r7, #48]	; 0x30
 8003b6a:	611a      	str	r2, [r3, #16]
 8003b6c:	6abb      	ldr	r3, [r7, #40]	; 0x28
 8003b6e:	f1c3 0205 	rsb	r2, r3, #5
 8003b72:	6b3b      	ldr	r3, [r7, #48]	; 0x30
 8003b74:	619a      	str	r2, [r3, #24]
 8003b76:	6b3b      	ldr	r3, [r7, #48]	; 0x30
 8003b78:	6b3a      	ldr	r2, [r7, #48]	; 0x30
 8003b7a:	625a      	str	r2, [r3, #36]	; 0x24
 8003b7c:	6b3b      	ldr	r3, [r7, #48]	; 0x30
 8003b7e:	3350      	adds	r3, #80	; 0x50
 8003b80:	2204      	movs	r2, #4
 8003b82:	2100      	movs	r1, #0
 8003b84:	4618      	mov	r0, r3
 8003b86:	f003 fb95 	bl	80072b4 <memset>
 8003b8a:	6b3b      	ldr	r3, [r7, #48]	; 0x30
 8003b8c:	3354      	adds	r3, #84	; 0x54
 8003b8e:	2201      	movs	r2, #1
 8003b90:	2100      	movs	r1, #0
 8003b92:	4618      	mov	r0, r3
 8003b94:	f003 fb8e 	bl	80072b4 <memset>
 8003b98:	683a      	ldr	r2, [r7, #0]
 8003b9a:	68f9      	ldr	r1, [r7, #12]
 8003b9c:	69b8      	ldr	r0, [r7, #24]
 8003b9e:	f001 f9b3 	bl	8004f08 <pxPortInitialiseStack>
 8003ba2:	4602      	mov	r2, r0
 8003ba4:	6b3b      	ldr	r3, [r7, #48]	; 0x30
 8003ba6:	601a      	str	r2, [r3, #0]
 8003ba8:	6afb      	ldr	r3, [r7, #44]	; 0x2c
 8003baa:	2b00      	cmp	r3, #0
 8003bac:	d002      	beq.n	8003bb4 <prvInitialiseNewTask+0x122>
 8003bae:	6afb      	ldr	r3, [r7, #44]	; 0x2c
 8003bb0:	6b3a      	ldr	r2, [r7, #48]	; 0x30
 8003bb2:	601a      	str	r2, [r3, #0]
 8003bb4:	bf00      	nop
 8003bb6:	3720      	adds	r7, #32
 8003bb8:	46bd      	mov	sp, r7
 8003bba:	bd80      	pop	{r7, pc}

08003bbc <prvAddNewTaskToReadyList>:
 8003bbc:	b5b0      	push	{r4, r5, r7, lr}
 8003bbe:	b084      	sub	sp, #16
 8003bc0:	af02      	add	r7, sp, #8
 8003bc2:	6078      	str	r0, [r7, #4]
 8003bc4:	f001 fb46 	bl	8005254 <vPortEnterCritical>
 8003bc8:	4b3b      	ldr	r3, [pc, #236]	; (8003cb8 <prvAddNewTaskToReadyList+0xfc>)
 8003bca:	681b      	ldr	r3, [r3, #0]
 8003bcc:	3301      	adds	r3, #1
 8003bce:	4a3a      	ldr	r2, [pc, #232]	; (8003cb8 <prvAddNewTaskToReadyList+0xfc>)
 8003bd0:	6013      	str	r3, [r2, #0]
 8003bd2:	4b3a      	ldr	r3, [pc, #232]	; (8003cbc <prvAddNewTaskToReadyList+0x100>)
 8003bd4:	681b      	ldr	r3, [r3, #0]
 8003bd6:	2b00      	cmp	r3, #0
 8003bd8:	d109      	bne.n	8003bee <prvAddNewTaskToReadyList+0x32>
 8003bda:	4a38      	ldr	r2, [pc, #224]	; (8003cbc <prvAddNewTaskToReadyList+0x100>)
 8003bdc:	687b      	ldr	r3, [r7, #4]
 8003bde:	6013      	str	r3, [r2, #0]
 8003be0:	4b35      	ldr	r3, [pc, #212]	; (8003cb8 <prvAddNewTaskToReadyList+0xfc>)
 8003be2:	681b      	ldr	r3, [r3, #0]
 8003be4:	2b01      	cmp	r3, #1
 8003be6:	d110      	bne.n	8003c0a <prvAddNewTaskToReadyList+0x4e>
 8003be8:	f000 fcd4 	bl	8004594 <prvInitialiseTaskLists>
 8003bec:	e00d      	b.n	8003c0a <prvAddNewTaskToReadyList+0x4e>
 8003bee:	4b34      	ldr	r3, [pc, #208]	; (8003cc0 <prvAddNewTaskToReadyList+0x104>)
 8003bf0:	681b      	ldr	r3, [r3, #0]
 8003bf2:	2b00      	cmp	r3, #0
 8003bf4:	d109      	bne.n	8003c0a <prvAddNewTaskToReadyList+0x4e>
 8003bf6:	4b31      	ldr	r3, [pc, #196]	; (8003cbc <prvAddNewTaskToReadyList+0x100>)
 8003bf8:	681b      	ldr	r3, [r3, #0]
 8003bfa:	6ada      	ldr	r2, [r3, #44]	; 0x2c
 8003bfc:	687b      	ldr	r3, [r7, #4]
 8003bfe:	6adb      	ldr	r3, [r3, #44]	; 0x2c
 8003c00:	429a      	cmp	r2, r3
 8003c02:	d802      	bhi.n	8003c0a <prvAddNewTaskToReadyList+0x4e>
 8003c04:	4a2d      	ldr	r2, [pc, #180]	; (8003cbc <prvAddNewTaskToReadyList+0x100>)
 8003c06:	687b      	ldr	r3, [r7, #4]
 8003c08:	6013      	str	r3, [r2, #0]
 8003c0a:	4b2e      	ldr	r3, [pc, #184]	; (8003cc4 <prvAddNewTaskToReadyList+0x108>)
 8003c0c:	681b      	ldr	r3, [r3, #0]
 8003c0e:	3301      	adds	r3, #1
 8003c10:	4a2c      	ldr	r2, [pc, #176]	; (8003cc4 <prvAddNewTaskToReadyList+0x108>)
 8003c12:	6013      	str	r3, [r2, #0]
 8003c14:	4b2b      	ldr	r3, [pc, #172]	; (8003cc4 <prvAddNewTaskToReadyList+0x108>)
 8003c16:	681a      	ldr	r2, [r3, #0]
 8003c18:	687b      	ldr	r3, [r7, #4]
 8003c1a:	641a      	str	r2, [r3, #64]	; 0x40
 8003c1c:	687b      	ldr	r3, [r7, #4]
 8003c1e:	2b00      	cmp	r3, #0
 8003c20:	d016      	beq.n	8003c50 <prvAddNewTaskToReadyList+0x94>
 8003c22:	687b      	ldr	r3, [r7, #4]
 8003c24:	4618      	mov	r0, r3
 8003c26:	f003 f899 	bl	8006d5c <SEGGER_SYSVIEW_OnTaskCreate>
 8003c2a:	6878      	ldr	r0, [r7, #4]
 8003c2c:	687b      	ldr	r3, [r7, #4]
 8003c2e:	f103 0134 	add.w	r1, r3, #52	; 0x34
 8003c32:	687b      	ldr	r3, [r7, #4]
 8003c34:	6ada      	ldr	r2, [r3, #44]	; 0x2c
 8003c36:	687b      	ldr	r3, [r7, #4]
 8003c38:	6b1b      	ldr	r3, [r3, #48]	; 0x30
 8003c3a:	461d      	mov	r5, r3
 8003c3c:	687b      	ldr	r3, [r7, #4]
 8003c3e:	681b      	ldr	r3, [r3, #0]
 8003c40:	461c      	mov	r4, r3
 8003c42:	687b      	ldr	r3, [r7, #4]
 8003c44:	6b1b      	ldr	r3, [r3, #48]	; 0x30
 8003c46:	1ae3      	subs	r3, r4, r3
 8003c48:	9300      	str	r3, [sp, #0]
 8003c4a:	462b      	mov	r3, r5
 8003c4c:	f001 fec2 	bl	80059d4 <SYSVIEW_AddTask>
 8003c50:	687b      	ldr	r3, [r7, #4]
 8003c52:	4618      	mov	r0, r3
 8003c54:	f003 f906 	bl	8006e64 <SEGGER_SYSVIEW_OnTaskStartReady>
 8003c58:	687b      	ldr	r3, [r7, #4]
 8003c5a:	6adb      	ldr	r3, [r3, #44]	; 0x2c
 8003c5c:	2201      	movs	r2, #1
 8003c5e:	409a      	lsls	r2, r3
 8003c60:	4b19      	ldr	r3, [pc, #100]	; (8003cc8 <prvAddNewTaskToReadyList+0x10c>)
 8003c62:	681b      	ldr	r3, [r3, #0]
 8003c64:	4313      	orrs	r3, r2
 8003c66:	4a18      	ldr	r2, [pc, #96]	; (8003cc8 <prvAddNewTaskToReadyList+0x10c>)
 8003c68:	6013      	str	r3, [r2, #0]
 8003c6a:	687b      	ldr	r3, [r7, #4]
 8003c6c:	6ada      	ldr	r2, [r3, #44]	; 0x2c
 8003c6e:	4613      	mov	r3, r2
 8003c70:	009b      	lsls	r3, r3, #2
 8003c72:	4413      	add	r3, r2
 8003c74:	009b      	lsls	r3, r3, #2
 8003c76:	4a15      	ldr	r2, [pc, #84]	; (8003ccc <prvAddNewTaskToReadyList+0x110>)
 8003c78:	441a      	add	r2, r3
 8003c7a:	687b      	ldr	r3, [r7, #4]
 8003c7c:	3304      	adds	r3, #4
 8003c7e:	4619      	mov	r1, r3
 8003c80:	4610      	mov	r0, r2
 8003c82:	f7ff f8eb 	bl	8002e5c <vListInsertEnd>
 8003c86:	f001 fb13 	bl	80052b0 <vPortExitCritical>
 8003c8a:	4b0d      	ldr	r3, [pc, #52]	; (8003cc0 <prvAddNewTaskToReadyList+0x104>)
 8003c8c:	681b      	ldr	r3, [r3, #0]
 8003c8e:	2b00      	cmp	r3, #0
 8003c90:	d00e      	beq.n	8003cb0 <prvAddNewTaskToReadyList+0xf4>
 8003c92:	4b0a      	ldr	r3, [pc, #40]	; (8003cbc <prvAddNewTaskToReadyList+0x100>)
 8003c94:	681b      	ldr	r3, [r3, #0]
 8003c96:	6ada      	ldr	r2, [r3, #44]	; 0x2c
 8003c98:	687b      	ldr	r3, [r7, #4]
 8003c9a:	6adb      	ldr	r3, [r3, #44]	; 0x2c
 8003c9c:	429a      	cmp	r2, r3
 8003c9e:	d207      	bcs.n	8003cb0 <prvAddNewTaskToReadyList+0xf4>
 8003ca0:	4b0b      	ldr	r3, [pc, #44]	; (8003cd0 <prvAddNewTaskToReadyList+0x114>)
 8003ca2:	f04f 5280 	mov.w	r2, #268435456	; 0x10000000
 8003ca6:	601a      	str	r2, [r3, #0]
 8003ca8:	f3bf 8f4f 	dsb	sy
 8003cac:	f3bf 8f6f 	isb	sy
 8003cb0:	bf00      	nop
 8003cb2:	3708      	adds	r7, #8
 8003cb4:	46bd      	mov	sp, r7
 8003cb6:	bdb0      	pop	{r4, r5, r7, pc}
 8003cb8:	2000010c 	.word	0x2000010c
 8003cbc:	20000034 	.word	0x20000034
 8003cc0:	20000118 	.word	0x20000118
 8003cc4:	20000128 	.word	0x20000128
 8003cc8:	20000114 	.word	0x20000114
 8003ccc:	20000038 	.word	0x20000038
 8003cd0:	e000ed04 	.word	0xe000ed04

08003cd4 <xTaskDelayUntil>:
 8003cd4:	b580      	push	{r7, lr}
 8003cd6:	b08a      	sub	sp, #40	; 0x28
 8003cd8:	af00      	add	r7, sp, #0
 8003cda:	6078      	str	r0, [r7, #4]
 8003cdc:	6039      	str	r1, [r7, #0]
 8003cde:	2300      	movs	r3, #0
 8003ce0:	627b      	str	r3, [r7, #36]	; 0x24
 8003ce2:	687b      	ldr	r3, [r7, #4]
 8003ce4:	2b00      	cmp	r3, #0
 8003ce6:	d109      	bne.n	8003cfc <xTaskDelayUntil+0x28>
 8003ce8:	f04f 0350 	mov.w	r3, #80	; 0x50
 8003cec:	f383 8811 	msr	BASEPRI, r3
 8003cf0:	f3bf 8f6f 	isb	sy
 8003cf4:	f3bf 8f4f 	dsb	sy
 8003cf8:	617b      	str	r3, [r7, #20]
 8003cfa:	e7fe      	b.n	8003cfa <xTaskDelayUntil+0x26>
 8003cfc:	683b      	ldr	r3, [r7, #0]
 8003cfe:	2b00      	cmp	r3, #0
 8003d00:	d109      	bne.n	8003d16 <xTaskDelayUntil+0x42>
 8003d02:	f04f 0350 	mov.w	r3, #80	; 0x50
 8003d06:	f383 8811 	msr	BASEPRI, r3
 8003d0a:	f3bf 8f6f 	isb	sy
 8003d0e:	f3bf 8f4f 	dsb	sy
 8003d12:	613b      	str	r3, [r7, #16]
 8003d14:	e7fe      	b.n	8003d14 <xTaskDelayUntil+0x40>
 8003d16:	4b2b      	ldr	r3, [pc, #172]	; (8003dc4 <xTaskDelayUntil+0xf0>)
 8003d18:	681b      	ldr	r3, [r3, #0]
 8003d1a:	2b00      	cmp	r3, #0
 8003d1c:	d009      	beq.n	8003d32 <xTaskDelayUntil+0x5e>
 8003d1e:	f04f 0350 	mov.w	r3, #80	; 0x50
 8003d22:	f383 8811 	msr	BASEPRI, r3
 8003d26:	f3bf 8f6f 	isb	sy
 8003d2a:	f3bf 8f4f 	dsb	sy
 8003d2e:	60fb      	str	r3, [r7, #12]
 8003d30:	e7fe      	b.n	8003d30 <xTaskDelayUntil+0x5c>
 8003d32:	f000 f8e5 	bl	8003f00 <vTaskSuspendAll>
 8003d36:	4b24      	ldr	r3, [pc, #144]	; (8003dc8 <xTaskDelayUntil+0xf4>)
 8003d38:	681b      	ldr	r3, [r3, #0]
 8003d3a:	623b      	str	r3, [r7, #32]
 8003d3c:	687b      	ldr	r3, [r7, #4]
 8003d3e:	681b      	ldr	r3, [r3, #0]
 8003d40:	683a      	ldr	r2, [r7, #0]
 8003d42:	4413      	add	r3, r2
 8003d44:	61fb      	str	r3, [r7, #28]
 8003d46:	687b      	ldr	r3, [r7, #4]
 8003d48:	681b      	ldr	r3, [r3, #0]
 8003d4a:	6a3a      	ldr	r2, [r7, #32]
 8003d4c:	429a      	cmp	r2, r3
 8003d4e:	d20b      	bcs.n	8003d68 <xTaskDelayUntil+0x94>
 8003d50:	687b      	ldr	r3, [r7, #4]
 8003d52:	681b      	ldr	r3, [r3, #0]
 8003d54:	69fa      	ldr	r2, [r7, #28]
 8003d56:	429a      	cmp	r2, r3
 8003d58:	d211      	bcs.n	8003d7e <xTaskDelayUntil+0xaa>
 8003d5a:	69fa      	ldr	r2, [r7, #28]
 8003d5c:	6a3b      	ldr	r3, [r7, #32]
 8003d5e:	429a      	cmp	r2, r3
 8003d60:	d90d      	bls.n	8003d7e <xTaskDelayUntil+0xaa>
 8003d62:	2301      	movs	r3, #1
 8003d64:	627b      	str	r3, [r7, #36]	; 0x24
 8003d66:	e00a      	b.n	8003d7e <xTaskDelayUntil+0xaa>
 8003d68:	687b      	ldr	r3, [r7, #4]
 8003d6a:	681b      	ldr	r3, [r3, #0]
 8003d6c:	69fa      	ldr	r2, [r7, #28]
 8003d6e:	429a      	cmp	r2, r3
 8003d70:	d303      	bcc.n	8003d7a <xTaskDelayUntil+0xa6>
 8003d72:	69fa      	ldr	r2, [r7, #28]
 8003d74:	6a3b      	ldr	r3, [r7, #32]
 8003d76:	429a      	cmp	r2, r3
 8003d78:	d901      	bls.n	8003d7e <xTaskDelayUntil+0xaa>
 8003d7a:	2301      	movs	r3, #1
 8003d7c:	627b      	str	r3, [r7, #36]	; 0x24
 8003d7e:	687b      	ldr	r3, [r7, #4]
 8003d80:	69fa      	ldr	r2, [r7, #28]
 8003d82:	601a      	str	r2, [r3, #0]
 8003d84:	6a7b      	ldr	r3, [r7, #36]	; 0x24
 8003d86:	2b00      	cmp	r3, #0
 8003d88:	d009      	beq.n	8003d9e <xTaskDelayUntil+0xca>
 8003d8a:	2024      	movs	r0, #36	; 0x24
 8003d8c:	f002 face 	bl	800632c <SEGGER_SYSVIEW_RecordVoid>
 8003d90:	69fa      	ldr	r2, [r7, #28]
 8003d92:	6a3b      	ldr	r3, [r7, #32]
 8003d94:	1ad3      	subs	r3, r2, r3
 8003d96:	2100      	movs	r1, #0
 8003d98:	4618      	mov	r0, r3
 8003d9a:	f000 fd2f 	bl	80047fc <prvAddCurrentTaskToDelayedList>
 8003d9e:	f000 f8bd 	bl	8003f1c <xTaskResumeAll>
 8003da2:	61b8      	str	r0, [r7, #24]
 8003da4:	69bb      	ldr	r3, [r7, #24]
 8003da6:	2b00      	cmp	r3, #0
 8003da8:	d107      	bne.n	8003dba <xTaskDelayUntil+0xe6>
 8003daa:	4b08      	ldr	r3, [pc, #32]	; (8003dcc <xTaskDelayUntil+0xf8>)
 8003dac:	f04f 5280 	mov.w	r2, #268435456	; 0x10000000
 8003db0:	601a      	str	r2, [r3, #0]
 8003db2:	f3bf 8f4f 	dsb	sy
 8003db6:	f3bf 8f6f 	isb	sy
 8003dba:	6a7b      	ldr	r3, [r7, #36]	; 0x24
 8003dbc:	4618      	mov	r0, r3
 8003dbe:	3728      	adds	r7, #40	; 0x28
 8003dc0:	46bd      	mov	sp, r7
 8003dc2:	bd80      	pop	{r7, pc}
 8003dc4:	20000134 	.word	0x20000134
 8003dc8:	20000110 	.word	0x20000110
 8003dcc:	e000ed04 	.word	0xe000ed04

08003dd0 <vTaskDelay>:
 8003dd0:	b580      	push	{r7, lr}
 8003dd2:	b084      	sub	sp, #16
 8003dd4:	af00      	add	r7, sp, #0
 8003dd6:	6078      	str	r0, [r7, #4]
 8003dd8:	2300      	movs	r3, #0
 8003dda:	60fb      	str	r3, [r7, #12]
 8003ddc:	687b      	ldr	r3, [r7, #4]
 8003dde:	2b00      	cmp	r3, #0
 8003de0:	d01a      	beq.n	8003e18 <vTaskDelay+0x48>
 8003de2:	4b15      	ldr	r3, [pc, #84]	; (8003e38 <vTaskDelay+0x68>)
 8003de4:	681b      	ldr	r3, [r3, #0]
 8003de6:	2b00      	cmp	r3, #0
 8003de8:	d009      	beq.n	8003dfe <vTaskDelay+0x2e>
 8003dea:	f04f 0350 	mov.w	r3, #80	; 0x50
 8003dee:	f383 8811 	msr	BASEPRI, r3
 8003df2:	f3bf 8f6f 	isb	sy
 8003df6:	f3bf 8f4f 	dsb	sy
 8003dfa:	60bb      	str	r3, [r7, #8]
 8003dfc:	e7fe      	b.n	8003dfc <vTaskDelay+0x2c>
 8003dfe:	f000 f87f 	bl	8003f00 <vTaskSuspendAll>
 8003e02:	6879      	ldr	r1, [r7, #4]
 8003e04:	2023      	movs	r0, #35	; 0x23
 8003e06:	f002 faaf 	bl	8006368 <SEGGER_SYSVIEW_RecordU32>
 8003e0a:	2100      	movs	r1, #0
 8003e0c:	6878      	ldr	r0, [r7, #4]
 8003e0e:	f000 fcf5 	bl	80047fc <prvAddCurrentTaskToDelayedList>
 8003e12:	f000 f883 	bl	8003f1c <xTaskResumeAll>
 8003e16:	60f8      	str	r0, [r7, #12]
 8003e18:	68fb      	ldr	r3, [r7, #12]
 8003e1a:	2b00      	cmp	r3, #0
 8003e1c:	d107      	bne.n	8003e2e <vTaskDelay+0x5e>
 8003e1e:	4b07      	ldr	r3, [pc, #28]	; (8003e3c <vTaskDelay+0x6c>)
 8003e20:	f04f 5280 	mov.w	r2, #268435456	; 0x10000000
 8003e24:	601a      	str	r2, [r3, #0]
 8003e26:	f3bf 8f4f 	dsb	sy
 8003e2a:	f3bf 8f6f 	isb	sy
 8003e2e:	bf00      	nop
 8003e30:	3710      	adds	r7, #16
 8003e32:	46bd      	mov	sp, r7
 8003e34:	bd80      	pop	{r7, pc}
 8003e36:	bf00      	nop
 8003e38:	20000134 	.word	0x20000134
 8003e3c:	e000ed04 	.word	0xe000ed04

08003e40 <vTaskStartScheduler>:
 8003e40:	b580      	push	{r7, lr}
 8003e42:	b086      	sub	sp, #24
 8003e44:	af02      	add	r7, sp, #8
 8003e46:	4b26      	ldr	r3, [pc, #152]	; (8003ee0 <vTaskStartScheduler+0xa0>)
 8003e48:	9301      	str	r3, [sp, #4]
 8003e4a:	2300      	movs	r3, #0
 8003e4c:	9300      	str	r3, [sp, #0]
 8003e4e:	2300      	movs	r3, #0
 8003e50:	2282      	movs	r2, #130	; 0x82
 8003e52:	4924      	ldr	r1, [pc, #144]	; (8003ee4 <vTaskStartScheduler+0xa4>)
 8003e54:	4824      	ldr	r0, [pc, #144]	; (8003ee8 <vTaskStartScheduler+0xa8>)
 8003e56:	f7ff fddb 	bl	8003a10 <xTaskCreate>
 8003e5a:	60f8      	str	r0, [r7, #12]
 8003e5c:	68fb      	ldr	r3, [r7, #12]
 8003e5e:	2b01      	cmp	r3, #1
 8003e60:	d102      	bne.n	8003e68 <vTaskStartScheduler+0x28>
 8003e62:	f000 fd43 	bl	80048ec <xTimerCreateTimerTask>
 8003e66:	60f8      	str	r0, [r7, #12]
 8003e68:	68fb      	ldr	r3, [r7, #12]
 8003e6a:	2b01      	cmp	r3, #1
 8003e6c:	d123      	bne.n	8003eb6 <vTaskStartScheduler+0x76>
 8003e6e:	f04f 0350 	mov.w	r3, #80	; 0x50
 8003e72:	f383 8811 	msr	BASEPRI, r3
 8003e76:	f3bf 8f6f 	isb	sy
 8003e7a:	f3bf 8f4f 	dsb	sy
 8003e7e:	60bb      	str	r3, [r7, #8]
 8003e80:	4b1a      	ldr	r3, [pc, #104]	; (8003eec <vTaskStartScheduler+0xac>)
 8003e82:	f04f 32ff 	mov.w	r2, #4294967295
 8003e86:	601a      	str	r2, [r3, #0]
 8003e88:	4b19      	ldr	r3, [pc, #100]	; (8003ef0 <vTaskStartScheduler+0xb0>)
 8003e8a:	2201      	movs	r2, #1
 8003e8c:	601a      	str	r2, [r3, #0]
 8003e8e:	4b19      	ldr	r3, [pc, #100]	; (8003ef4 <vTaskStartScheduler+0xb4>)
 8003e90:	2200      	movs	r2, #0
 8003e92:	601a      	str	r2, [r3, #0]
 8003e94:	4b18      	ldr	r3, [pc, #96]	; (8003ef8 <vTaskStartScheduler+0xb8>)
 8003e96:	681a      	ldr	r2, [r3, #0]
 8003e98:	4b11      	ldr	r3, [pc, #68]	; (8003ee0 <vTaskStartScheduler+0xa0>)
 8003e9a:	681b      	ldr	r3, [r3, #0]
 8003e9c:	429a      	cmp	r2, r3
 8003e9e:	d102      	bne.n	8003ea6 <vTaskStartScheduler+0x66>
 8003ea0:	f002 ff40 	bl	8006d24 <SEGGER_SYSVIEW_OnIdle>
 8003ea4:	e004      	b.n	8003eb0 <vTaskStartScheduler+0x70>
 8003ea6:	4b14      	ldr	r3, [pc, #80]	; (8003ef8 <vTaskStartScheduler+0xb8>)
 8003ea8:	681b      	ldr	r3, [r3, #0]
 8003eaa:	4618      	mov	r0, r3
 8003eac:	f002 ff98 	bl	8006de0 <SEGGER_SYSVIEW_OnTaskStartExec>
 8003eb0:	f001 f8b8 	bl	8005024 <xPortStartScheduler>
 8003eb4:	e00d      	b.n	8003ed2 <vTaskStartScheduler+0x92>
 8003eb6:	68fb      	ldr	r3, [r7, #12]
 8003eb8:	f1b3 3fff 	cmp.w	r3, #4294967295
 8003ebc:	d109      	bne.n	8003ed2 <vTaskStartScheduler+0x92>
 8003ebe:	f04f 0350 	mov.w	r3, #80	; 0x50
 8003ec2:	f383 8811 	msr	BASEPRI, r3
 8003ec6:	f3bf 8f6f 	isb	sy
 8003eca:	f3bf 8f4f 	dsb	sy
 8003ece:	607b      	str	r3, [r7, #4]
 8003ed0:	e7fe      	b.n	8003ed0 <vTaskStartScheduler+0x90>
 8003ed2:	4b0a      	ldr	r3, [pc, #40]	; (8003efc <vTaskStartScheduler+0xbc>)
 8003ed4:	681b      	ldr	r3, [r3, #0]
 8003ed6:	bf00      	nop
 8003ed8:	3710      	adds	r7, #16
 8003eda:	46bd      	mov	sp, r7
 8003edc:	bd80      	pop	{r7, pc}
 8003ede:	bf00      	nop
 8003ee0:	20000130 	.word	0x20000130
 8003ee4:	08007328 	.word	0x08007328
 8003ee8:	08004565 	.word	0x08004565
 8003eec:	2000012c 	.word	0x2000012c
 8003ef0:	20000118 	.word	0x20000118
 8003ef4:	20000110 	.word	0x20000110
 8003ef8:	20000034 	.word	0x20000034
 8003efc:	2000000c 	.word	0x2000000c

08003f00 <vTaskSuspendAll>:
 8003f00:	b480      	push	{r7}
 8003f02:	af00      	add	r7, sp, #0
 8003f04:	4b04      	ldr	r3, [pc, #16]	; (8003f18 <vTaskSuspendAll+0x18>)
 8003f06:	681b      	ldr	r3, [r3, #0]
 8003f08:	3301      	adds	r3, #1
 8003f0a:	4a03      	ldr	r2, [pc, #12]	; (8003f18 <vTaskSuspendAll+0x18>)
 8003f0c:	6013      	str	r3, [r2, #0]
 8003f0e:	bf00      	nop
 8003f10:	46bd      	mov	sp, r7
 8003f12:	f85d 7b04 	ldr.w	r7, [sp], #4
 8003f16:	4770      	bx	lr
 8003f18:	20000134 	.word	0x20000134

08003f1c <xTaskResumeAll>:
 8003f1c:	b580      	push	{r7, lr}
 8003f1e:	b084      	sub	sp, #16
 8003f20:	af00      	add	r7, sp, #0
 8003f22:	2300      	movs	r3, #0
 8003f24:	60fb      	str	r3, [r7, #12]
 8003f26:	2300      	movs	r3, #0
 8003f28:	60bb      	str	r3, [r7, #8]
 8003f2a:	4b43      	ldr	r3, [pc, #268]	; (8004038 <xTaskResumeAll+0x11c>)
 8003f2c:	681b      	ldr	r3, [r3, #0]
 8003f2e:	2b00      	cmp	r3, #0
 8003f30:	d109      	bne.n	8003f46 <xTaskResumeAll+0x2a>
 8003f32:	f04f 0350 	mov.w	r3, #80	; 0x50
 8003f36:	f383 8811 	msr	BASEPRI, r3
 8003f3a:	f3bf 8f6f 	isb	sy
 8003f3e:	f3bf 8f4f 	dsb	sy
 8003f42:	603b      	str	r3, [r7, #0]
 8003f44:	e7fe      	b.n	8003f44 <xTaskResumeAll+0x28>
 8003f46:	f001 f985 	bl	8005254 <vPortEnterCritical>
 8003f4a:	4b3b      	ldr	r3, [pc, #236]	; (8004038 <xTaskResumeAll+0x11c>)
 8003f4c:	681b      	ldr	r3, [r3, #0]
 8003f4e:	3b01      	subs	r3, #1
 8003f50:	4a39      	ldr	r2, [pc, #228]	; (8004038 <xTaskResumeAll+0x11c>)
 8003f52:	6013      	str	r3, [r2, #0]
 8003f54:	4b38      	ldr	r3, [pc, #224]	; (8004038 <xTaskResumeAll+0x11c>)
 8003f56:	681b      	ldr	r3, [r3, #0]
 8003f58:	2b00      	cmp	r3, #0
 8003f5a:	d165      	bne.n	8004028 <xTaskResumeAll+0x10c>
 8003f5c:	4b37      	ldr	r3, [pc, #220]	; (800403c <xTaskResumeAll+0x120>)
 8003f5e:	681b      	ldr	r3, [r3, #0]
 8003f60:	2b00      	cmp	r3, #0
 8003f62:	d061      	beq.n	8004028 <xTaskResumeAll+0x10c>
 8003f64:	e032      	b.n	8003fcc <xTaskResumeAll+0xb0>
 8003f66:	4b36      	ldr	r3, [pc, #216]	; (8004040 <xTaskResumeAll+0x124>)
 8003f68:	68db      	ldr	r3, [r3, #12]
 8003f6a:	68db      	ldr	r3, [r3, #12]
 8003f6c:	60fb      	str	r3, [r7, #12]
 8003f6e:	68fb      	ldr	r3, [r7, #12]
 8003f70:	3318      	adds	r3, #24
 8003f72:	4618      	mov	r0, r3
 8003f74:	f7fe ffcf 	bl	8002f16 <uxListRemove>
 8003f78:	68fb      	ldr	r3, [r7, #12]
 8003f7a:	3304      	adds	r3, #4
 8003f7c:	4618      	mov	r0, r3
 8003f7e:	f7fe ffca 	bl	8002f16 <uxListRemove>
 8003f82:	68fb      	ldr	r3, [r7, #12]
 8003f84:	4618      	mov	r0, r3
 8003f86:	f002 ff6d 	bl	8006e64 <SEGGER_SYSVIEW_OnTaskStartReady>
 8003f8a:	68fb      	ldr	r3, [r7, #12]
 8003f8c:	6adb      	ldr	r3, [r3, #44]	; 0x2c
 8003f8e:	2201      	movs	r2, #1
 8003f90:	409a      	lsls	r2, r3
 8003f92:	4b2c      	ldr	r3, [pc, #176]	; (8004044 <xTaskResumeAll+0x128>)
 8003f94:	681b      	ldr	r3, [r3, #0]
 8003f96:	4313      	orrs	r3, r2
 8003f98:	4a2a      	ldr	r2, [pc, #168]	; (8004044 <xTaskResumeAll+0x128>)
 8003f9a:	6013      	str	r3, [r2, #0]
 8003f9c:	68fb      	ldr	r3, [r7, #12]
 8003f9e:	6ada      	ldr	r2, [r3, #44]	; 0x2c
 8003fa0:	4613      	mov	r3, r2
 8003fa2:	009b      	lsls	r3, r3, #2
 8003fa4:	4413      	add	r3, r2
 8003fa6:	009b      	lsls	r3, r3, #2
 8003fa8:	4a27      	ldr	r2, [pc, #156]	; (8004048 <xTaskResumeAll+0x12c>)
 8003faa:	441a      	add	r2, r3
 8003fac:	68fb      	ldr	r3, [r7, #12]
 8003fae:	3304      	adds	r3, #4
 8003fb0:	4619      	mov	r1, r3
 8003fb2:	4610      	mov	r0, r2
 8003fb4:	f7fe ff52 	bl	8002e5c <vListInsertEnd>
 8003fb8:	68fb      	ldr	r3, [r7, #12]
 8003fba:	6ada      	ldr	r2, [r3, #44]	; 0x2c
 8003fbc:	4b23      	ldr	r3, [pc, #140]	; (800404c <xTaskResumeAll+0x130>)
 8003fbe:	681b      	ldr	r3, [r3, #0]
 8003fc0:	6adb      	ldr	r3, [r3, #44]	; 0x2c
 8003fc2:	429a      	cmp	r2, r3
 8003fc4:	d302      	bcc.n	8003fcc <xTaskResumeAll+0xb0>
 8003fc6:	4b22      	ldr	r3, [pc, #136]	; (8004050 <xTaskResumeAll+0x134>)
 8003fc8:	2201      	movs	r2, #1
 8003fca:	601a      	str	r2, [r3, #0]
 8003fcc:	4b1c      	ldr	r3, [pc, #112]	; (8004040 <xTaskResumeAll+0x124>)
 8003fce:	681b      	ldr	r3, [r3, #0]
 8003fd0:	2b00      	cmp	r3, #0
 8003fd2:	d1c8      	bne.n	8003f66 <xTaskResumeAll+0x4a>
 8003fd4:	68fb      	ldr	r3, [r7, #12]
 8003fd6:	2b00      	cmp	r3, #0
 8003fd8:	d001      	beq.n	8003fde <xTaskResumeAll+0xc2>
 8003fda:	f000 fb57 	bl	800468c <prvResetNextTaskUnblockTime>
 8003fde:	4b1d      	ldr	r3, [pc, #116]	; (8004054 <xTaskResumeAll+0x138>)
 8003fe0:	681b      	ldr	r3, [r3, #0]
 8003fe2:	607b      	str	r3, [r7, #4]
 8003fe4:	687b      	ldr	r3, [r7, #4]
 8003fe6:	2b00      	cmp	r3, #0
 8003fe8:	d010      	beq.n	800400c <xTaskResumeAll+0xf0>
 8003fea:	f000 f859 	bl	80040a0 <xTaskIncrementTick>
 8003fee:	4603      	mov	r3, r0
 8003ff0:	2b00      	cmp	r3, #0
 8003ff2:	d002      	beq.n	8003ffa <xTaskResumeAll+0xde>
 8003ff4:	4b16      	ldr	r3, [pc, #88]	; (8004050 <xTaskResumeAll+0x134>)
 8003ff6:	2201      	movs	r2, #1
 8003ff8:	601a      	str	r2, [r3, #0]
 8003ffa:	687b      	ldr	r3, [r7, #4]
 8003ffc:	3b01      	subs	r3, #1
 8003ffe:	607b      	str	r3, [r7, #4]
 8004000:	687b      	ldr	r3, [r7, #4]
 8004002:	2b00      	cmp	r3, #0
 8004004:	d1f1      	bne.n	8003fea <xTaskResumeAll+0xce>
 8004006:	4b13      	ldr	r3, [pc, #76]	; (8004054 <xTaskResumeAll+0x138>)
 8004008:	2200      	movs	r2, #0
 800400a:	601a      	str	r2, [r3, #0]
 800400c:	4b10      	ldr	r3, [pc, #64]	; (8004050 <xTaskResumeAll+0x134>)
 800400e:	681b      	ldr	r3, [r3, #0]
 8004010:	2b00      	cmp	r3, #0
 8004012:	d009      	beq.n	8004028 <xTaskResumeAll+0x10c>
 8004014:	2301      	movs	r3, #1
 8004016:	60bb      	str	r3, [r7, #8]
 8004018:	4b0f      	ldr	r3, [pc, #60]	; (8004058 <xTaskResumeAll+0x13c>)
 800401a:	f04f 5280 	mov.w	r2, #268435456	; 0x10000000
 800401e:	601a      	str	r2, [r3, #0]
 8004020:	f3bf 8f4f 	dsb	sy
 8004024:	f3bf 8f6f 	isb	sy
 8004028:	f001 f942 	bl	80052b0 <vPortExitCritical>
 800402c:	68bb      	ldr	r3, [r7, #8]
 800402e:	4618      	mov	r0, r3
 8004030:	3710      	adds	r7, #16
 8004032:	46bd      	mov	sp, r7
 8004034:	bd80      	pop	{r7, pc}
 8004036:	bf00      	nop
 8004038:	20000134 	.word	0x20000134
 800403c:	2000010c 	.word	0x2000010c
 8004040:	200000cc 	.word	0x200000cc
 8004044:	20000114 	.word	0x20000114
 8004048:	20000038 	.word	0x20000038
 800404c:	20000034 	.word	0x20000034
 8004050:	20000120 	.word	0x20000120
 8004054:	2000011c 	.word	0x2000011c
 8004058:	e000ed04 	.word	0xe000ed04

0800405c <xTaskGetTickCount>:
 800405c:	b480      	push	{r7}
 800405e:	b083      	sub	sp, #12
 8004060:	af00      	add	r7, sp, #0
 8004062:	4b05      	ldr	r3, [pc, #20]	; (8004078 <xTaskGetTickCount+0x1c>)
 8004064:	681b      	ldr	r3, [r3, #0]
 8004066:	607b      	str	r3, [r7, #4]
 8004068:	687b      	ldr	r3, [r7, #4]
 800406a:	4618      	mov	r0, r3
 800406c:	370c      	adds	r7, #12
 800406e:	46bd      	mov	sp, r7
 8004070:	f85d 7b04 	ldr.w	r7, [sp], #4
 8004074:	4770      	bx	lr
 8004076:	bf00      	nop
 8004078:	20000110 	.word	0x20000110

0800407c <xTaskGetTickCountFromISR>:
 800407c:	b580      	push	{r7, lr}
 800407e:	b082      	sub	sp, #8
 8004080:	af00      	add	r7, sp, #0
 8004082:	f001 f9c9 	bl	8005418 <vPortValidateInterruptPriority>
 8004086:	2300      	movs	r3, #0
 8004088:	607b      	str	r3, [r7, #4]
 800408a:	4b04      	ldr	r3, [pc, #16]	; (800409c <xTaskGetTickCountFromISR+0x20>)
 800408c:	681b      	ldr	r3, [r3, #0]
 800408e:	603b      	str	r3, [r7, #0]
 8004090:	683b      	ldr	r3, [r7, #0]
 8004092:	4618      	mov	r0, r3
 8004094:	3708      	adds	r7, #8
 8004096:	46bd      	mov	sp, r7
 8004098:	bd80      	pop	{r7, pc}
 800409a:	bf00      	nop
 800409c:	20000110 	.word	0x20000110

080040a0 <xTaskIncrementTick>:
 80040a0:	b580      	push	{r7, lr}
 80040a2:	b086      	sub	sp, #24
 80040a4:	af00      	add	r7, sp, #0
 80040a6:	2300      	movs	r3, #0
 80040a8:	617b      	str	r3, [r7, #20]
 80040aa:	4b50      	ldr	r3, [pc, #320]	; (80041ec <xTaskIncrementTick+0x14c>)
 80040ac:	681b      	ldr	r3, [r3, #0]
 80040ae:	2b00      	cmp	r3, #0
 80040b0:	f040 8091 	bne.w	80041d6 <xTaskIncrementTick+0x136>
 80040b4:	4b4e      	ldr	r3, [pc, #312]	; (80041f0 <xTaskIncrementTick+0x150>)
 80040b6:	681b      	ldr	r3, [r3, #0]
 80040b8:	3301      	adds	r3, #1
 80040ba:	613b      	str	r3, [r7, #16]
 80040bc:	4a4c      	ldr	r2, [pc, #304]	; (80041f0 <xTaskIncrementTick+0x150>)
 80040be:	693b      	ldr	r3, [r7, #16]
 80040c0:	6013      	str	r3, [r2, #0]
 80040c2:	693b      	ldr	r3, [r7, #16]
 80040c4:	2b00      	cmp	r3, #0
 80040c6:	d11f      	bne.n	8004108 <xTaskIncrementTick+0x68>
 80040c8:	4b4a      	ldr	r3, [pc, #296]	; (80041f4 <xTaskIncrementTick+0x154>)
 80040ca:	681b      	ldr	r3, [r3, #0]
 80040cc:	681b      	ldr	r3, [r3, #0]
 80040ce:	2b00      	cmp	r3, #0
 80040d0:	d009      	beq.n	80040e6 <xTaskIncrementTick+0x46>
 80040d2:	f04f 0350 	mov.w	r3, #80	; 0x50
 80040d6:	f383 8811 	msr	BASEPRI, r3
 80040da:	f3bf 8f6f 	isb	sy
 80040de:	f3bf 8f4f 	dsb	sy
 80040e2:	603b      	str	r3, [r7, #0]
 80040e4:	e7fe      	b.n	80040e4 <xTaskIncrementTick+0x44>
 80040e6:	4b43      	ldr	r3, [pc, #268]	; (80041f4 <xTaskIncrementTick+0x154>)
 80040e8:	681b      	ldr	r3, [r3, #0]
 80040ea:	60fb      	str	r3, [r7, #12]
 80040ec:	4b42      	ldr	r3, [pc, #264]	; (80041f8 <xTaskIncrementTick+0x158>)
 80040ee:	681b      	ldr	r3, [r3, #0]
 80040f0:	4a40      	ldr	r2, [pc, #256]	; (80041f4 <xTaskIncrementTick+0x154>)
 80040f2:	6013      	str	r3, [r2, #0]
 80040f4:	4a40      	ldr	r2, [pc, #256]	; (80041f8 <xTaskIncrementTick+0x158>)
 80040f6:	68fb      	ldr	r3, [r7, #12]
 80040f8:	6013      	str	r3, [r2, #0]
 80040fa:	4b40      	ldr	r3, [pc, #256]	; (80041fc <xTaskIncrementTick+0x15c>)
 80040fc:	681b      	ldr	r3, [r3, #0]
 80040fe:	3301      	adds	r3, #1
 8004100:	4a3e      	ldr	r2, [pc, #248]	; (80041fc <xTaskIncrementTick+0x15c>)
 8004102:	6013      	str	r3, [r2, #0]
 8004104:	f000 fac2 	bl	800468c <prvResetNextTaskUnblockTime>
 8004108:	4b3d      	ldr	r3, [pc, #244]	; (8004200 <xTaskIncrementTick+0x160>)
 800410a:	681b      	ldr	r3, [r3, #0]
 800410c:	693a      	ldr	r2, [r7, #16]
 800410e:	429a      	cmp	r2, r3
 8004110:	d34c      	bcc.n	80041ac <xTaskIncrementTick+0x10c>
 8004112:	4b38      	ldr	r3, [pc, #224]	; (80041f4 <xTaskIncrementTick+0x154>)
 8004114:	681b      	ldr	r3, [r3, #0]
 8004116:	681b      	ldr	r3, [r3, #0]
 8004118:	2b00      	cmp	r3, #0
 800411a:	d104      	bne.n	8004126 <xTaskIncrementTick+0x86>
 800411c:	4b38      	ldr	r3, [pc, #224]	; (8004200 <xTaskIncrementTick+0x160>)
 800411e:	f04f 32ff 	mov.w	r2, #4294967295
 8004122:	601a      	str	r2, [r3, #0]
 8004124:	e042      	b.n	80041ac <xTaskIncrementTick+0x10c>
 8004126:	4b33      	ldr	r3, [pc, #204]	; (80041f4 <xTaskIncrementTick+0x154>)
 8004128:	681b      	ldr	r3, [r3, #0]
 800412a:	68db      	ldr	r3, [r3, #12]
 800412c:	68db      	ldr	r3, [r3, #12]
 800412e:	60bb      	str	r3, [r7, #8]
 8004130:	68bb      	ldr	r3, [r7, #8]
 8004132:	685b      	ldr	r3, [r3, #4]
 8004134:	607b      	str	r3, [r7, #4]
 8004136:	693a      	ldr	r2, [r7, #16]
 8004138:	687b      	ldr	r3, [r7, #4]
 800413a:	429a      	cmp	r2, r3
 800413c:	d203      	bcs.n	8004146 <xTaskIncrementTick+0xa6>
 800413e:	4a30      	ldr	r2, [pc, #192]	; (8004200 <xTaskIncrementTick+0x160>)
 8004140:	687b      	ldr	r3, [r7, #4]
 8004142:	6013      	str	r3, [r2, #0]
 8004144:	e032      	b.n	80041ac <xTaskIncrementTick+0x10c>
 8004146:	68bb      	ldr	r3, [r7, #8]
 8004148:	3304      	adds	r3, #4
 800414a:	4618      	mov	r0, r3
 800414c:	f7fe fee3 	bl	8002f16 <uxListRemove>
 8004150:	68bb      	ldr	r3, [r7, #8]
 8004152:	6a9b      	ldr	r3, [r3, #40]	; 0x28
 8004154:	2b00      	cmp	r3, #0
 8004156:	d004      	beq.n	8004162 <xTaskIncrementTick+0xc2>
 8004158:	68bb      	ldr	r3, [r7, #8]
 800415a:	3318      	adds	r3, #24
 800415c:	4618      	mov	r0, r3
 800415e:	f7fe feda 	bl	8002f16 <uxListRemove>
 8004162:	68bb      	ldr	r3, [r7, #8]
 8004164:	4618      	mov	r0, r3
 8004166:	f002 fe7d 	bl	8006e64 <SEGGER_SYSVIEW_OnTaskStartReady>
 800416a:	68bb      	ldr	r3, [r7, #8]
 800416c:	6adb      	ldr	r3, [r3, #44]	; 0x2c
 800416e:	2201      	movs	r2, #1
 8004170:	409a      	lsls	r2, r3
 8004172:	4b24      	ldr	r3, [pc, #144]	; (8004204 <xTaskIncrementTick+0x164>)
 8004174:	681b      	ldr	r3, [r3, #0]
 8004176:	4313      	orrs	r3, r2
 8004178:	4a22      	ldr	r2, [pc, #136]	; (8004204 <xTaskIncrementTick+0x164>)
 800417a:	6013      	str	r3, [r2, #0]
 800417c:	68bb      	ldr	r3, [r7, #8]
 800417e:	6ada      	ldr	r2, [r3, #44]	; 0x2c
 8004180:	4613      	mov	r3, r2
 8004182:	009b      	lsls	r3, r3, #2
 8004184:	4413      	add	r3, r2
 8004186:	009b      	lsls	r3, r3, #2
 8004188:	4a1f      	ldr	r2, [pc, #124]	; (8004208 <xTaskIncrementTick+0x168>)
 800418a:	441a      	add	r2, r3
 800418c:	68bb      	ldr	r3, [r7, #8]
 800418e:	3304      	adds	r3, #4
 8004190:	4619      	mov	r1, r3
 8004192:	4610      	mov	r0, r2
 8004194:	f7fe fe62 	bl	8002e5c <vListInsertEnd>
 8004198:	68bb      	ldr	r3, [r7, #8]
 800419a:	6ada      	ldr	r2, [r3, #44]	; 0x2c
 800419c:	4b1b      	ldr	r3, [pc, #108]	; (800420c <xTaskIncrementTick+0x16c>)
 800419e:	681b      	ldr	r3, [r3, #0]
 80041a0:	6adb      	ldr	r3, [r3, #44]	; 0x2c
 80041a2:	429a      	cmp	r2, r3
 80041a4:	d3b5      	bcc.n	8004112 <xTaskIncrementTick+0x72>
 80041a6:	2301      	movs	r3, #1
 80041a8:	617b      	str	r3, [r7, #20]
 80041aa:	e7b2      	b.n	8004112 <xTaskIncrementTick+0x72>
 80041ac:	4b17      	ldr	r3, [pc, #92]	; (800420c <xTaskIncrementTick+0x16c>)
 80041ae:	681b      	ldr	r3, [r3, #0]
 80041b0:	6ada      	ldr	r2, [r3, #44]	; 0x2c
 80041b2:	4915      	ldr	r1, [pc, #84]	; (8004208 <xTaskIncrementTick+0x168>)
 80041b4:	4613      	mov	r3, r2
 80041b6:	009b      	lsls	r3, r3, #2
 80041b8:	4413      	add	r3, r2
 80041ba:	009b      	lsls	r3, r3, #2
 80041bc:	440b      	add	r3, r1
 80041be:	681b      	ldr	r3, [r3, #0]
 80041c0:	2b01      	cmp	r3, #1
 80041c2:	d901      	bls.n	80041c8 <xTaskIncrementTick+0x128>
 80041c4:	2301      	movs	r3, #1
 80041c6:	617b      	str	r3, [r7, #20]
 80041c8:	4b11      	ldr	r3, [pc, #68]	; (8004210 <xTaskIncrementTick+0x170>)
 80041ca:	681b      	ldr	r3, [r3, #0]
 80041cc:	2b00      	cmp	r3, #0
 80041ce:	d007      	beq.n	80041e0 <xTaskIncrementTick+0x140>
 80041d0:	2301      	movs	r3, #1
 80041d2:	617b      	str	r3, [r7, #20]
 80041d4:	e004      	b.n	80041e0 <xTaskIncrementTick+0x140>
 80041d6:	4b0f      	ldr	r3, [pc, #60]	; (8004214 <xTaskIncrementTick+0x174>)
 80041d8:	681b      	ldr	r3, [r3, #0]
 80041da:	3301      	adds	r3, #1
 80041dc:	4a0d      	ldr	r2, [pc, #52]	; (8004214 <xTaskIncrementTick+0x174>)
 80041de:	6013      	str	r3, [r2, #0]
 80041e0:	697b      	ldr	r3, [r7, #20]
 80041e2:	4618      	mov	r0, r3
 80041e4:	3718      	adds	r7, #24
 80041e6:	46bd      	mov	sp, r7
 80041e8:	bd80      	pop	{r7, pc}
 80041ea:	bf00      	nop
 80041ec:	20000134 	.word	0x20000134
 80041f0:	20000110 	.word	0x20000110
 80041f4:	200000c4 	.word	0x200000c4
 80041f8:	200000c8 	.word	0x200000c8
 80041fc:	20000124 	.word	0x20000124
 8004200:	2000012c 	.word	0x2000012c
 8004204:	20000114 	.word	0x20000114
 8004208:	20000038 	.word	0x20000038
 800420c:	20000034 	.word	0x20000034
 8004210:	20000120 	.word	0x20000120
 8004214:	2000011c 	.word	0x2000011c

08004218 <vTaskSwitchContext>:
 8004218:	b580      	push	{r7, lr}
 800421a:	b086      	sub	sp, #24
 800421c:	af00      	add	r7, sp, #0
 800421e:	4b2c      	ldr	r3, [pc, #176]	; (80042d0 <vTaskSwitchContext+0xb8>)
 8004220:	681b      	ldr	r3, [r3, #0]
 8004222:	2b00      	cmp	r3, #0
 8004224:	d003      	beq.n	800422e <vTaskSwitchContext+0x16>
 8004226:	4b2b      	ldr	r3, [pc, #172]	; (80042d4 <vTaskSwitchContext+0xbc>)
 8004228:	2201      	movs	r2, #1
 800422a:	601a      	str	r2, [r3, #0]
 800422c:	e04c      	b.n	80042c8 <vTaskSwitchContext+0xb0>
 800422e:	4b29      	ldr	r3, [pc, #164]	; (80042d4 <vTaskSwitchContext+0xbc>)
 8004230:	2200      	movs	r2, #0
 8004232:	601a      	str	r2, [r3, #0]
 8004234:	4b28      	ldr	r3, [pc, #160]	; (80042d8 <vTaskSwitchContext+0xc0>)
 8004236:	681b      	ldr	r3, [r3, #0]
 8004238:	60fb      	str	r3, [r7, #12]
 800423a:	68fb      	ldr	r3, [r7, #12]
 800423c:	fab3 f383 	clz	r3, r3
 8004240:	72fb      	strb	r3, [r7, #11]
 8004242:	7afb      	ldrb	r3, [r7, #11]
 8004244:	f1c3 031f 	rsb	r3, r3, #31
 8004248:	617b      	str	r3, [r7, #20]
 800424a:	4924      	ldr	r1, [pc, #144]	; (80042dc <vTaskSwitchContext+0xc4>)
 800424c:	697a      	ldr	r2, [r7, #20]
 800424e:	4613      	mov	r3, r2
 8004250:	009b      	lsls	r3, r3, #2
 8004252:	4413      	add	r3, r2
 8004254:	009b      	lsls	r3, r3, #2
 8004256:	440b      	add	r3, r1
 8004258:	681b      	ldr	r3, [r3, #0]
 800425a:	2b00      	cmp	r3, #0
 800425c:	d109      	bne.n	8004272 <vTaskSwitchContext+0x5a>
 800425e:	f04f 0350 	mov.w	r3, #80	; 0x50
 8004262:	f383 8811 	msr	BASEPRI, r3
 8004266:	f3bf 8f6f 	isb	sy
 800426a:	f3bf 8f4f 	dsb	sy
 800426e:	607b      	str	r3, [r7, #4]
 8004270:	e7fe      	b.n	8004270 <vTaskSwitchContext+0x58>
 8004272:	697a      	ldr	r2, [r7, #20]
 8004274:	4613      	mov	r3, r2
 8004276:	009b      	lsls	r3, r3, #2
 8004278:	4413      	add	r3, r2
 800427a:	009b      	lsls	r3, r3, #2
 800427c:	4a17      	ldr	r2, [pc, #92]	; (80042dc <vTaskSwitchContext+0xc4>)
 800427e:	4413      	add	r3, r2
 8004280:	613b      	str	r3, [r7, #16]
 8004282:	693b      	ldr	r3, [r7, #16]
 8004284:	685b      	ldr	r3, [r3, #4]
 8004286:	685a      	ldr	r2, [r3, #4]
 8004288:	693b      	ldr	r3, [r7, #16]
 800428a:	605a      	str	r2, [r3, #4]
 800428c:	693b      	ldr	r3, [r7, #16]
 800428e:	685a      	ldr	r2, [r3, #4]
 8004290:	693b      	ldr	r3, [r7, #16]
 8004292:	3308      	adds	r3, #8
 8004294:	429a      	cmp	r2, r3
 8004296:	d104      	bne.n	80042a2 <vTaskSwitchContext+0x8a>
 8004298:	693b      	ldr	r3, [r7, #16]
 800429a:	685b      	ldr	r3, [r3, #4]
 800429c:	685a      	ldr	r2, [r3, #4]
 800429e:	693b      	ldr	r3, [r7, #16]
 80042a0:	605a      	str	r2, [r3, #4]
 80042a2:	693b      	ldr	r3, [r7, #16]
 80042a4:	685b      	ldr	r3, [r3, #4]
 80042a6:	68db      	ldr	r3, [r3, #12]
 80042a8:	4a0d      	ldr	r2, [pc, #52]	; (80042e0 <vTaskSwitchContext+0xc8>)
 80042aa:	6013      	str	r3, [r2, #0]
 80042ac:	4b0c      	ldr	r3, [pc, #48]	; (80042e0 <vTaskSwitchContext+0xc8>)
 80042ae:	681a      	ldr	r2, [r3, #0]
 80042b0:	4b0c      	ldr	r3, [pc, #48]	; (80042e4 <vTaskSwitchContext+0xcc>)
 80042b2:	681b      	ldr	r3, [r3, #0]
 80042b4:	429a      	cmp	r2, r3
 80042b6:	d102      	bne.n	80042be <vTaskSwitchContext+0xa6>
 80042b8:	f002 fd34 	bl	8006d24 <SEGGER_SYSVIEW_OnIdle>
 80042bc:	e004      	b.n	80042c8 <vTaskSwitchContext+0xb0>
 80042be:	4b08      	ldr	r3, [pc, #32]	; (80042e0 <vTaskSwitchContext+0xc8>)
 80042c0:	681b      	ldr	r3, [r3, #0]
 80042c2:	4618      	mov	r0, r3
 80042c4:	f002 fd8c 	bl	8006de0 <SEGGER_SYSVIEW_OnTaskStartExec>
 80042c8:	bf00      	nop
 80042ca:	3718      	adds	r7, #24
 80042cc:	46bd      	mov	sp, r7
 80042ce:	bd80      	pop	{r7, pc}
 80042d0:	20000134 	.word	0x20000134
 80042d4:	20000120 	.word	0x20000120
 80042d8:	20000114 	.word	0x20000114
 80042dc:	20000038 	.word	0x20000038
 80042e0:	20000034 	.word	0x20000034
 80042e4:	20000130 	.word	0x20000130

080042e8 <vTaskPlaceOnEventList>:
 80042e8:	b580      	push	{r7, lr}
 80042ea:	b084      	sub	sp, #16
 80042ec:	af00      	add	r7, sp, #0
 80042ee:	6078      	str	r0, [r7, #4]
 80042f0:	6039      	str	r1, [r7, #0]
 80042f2:	687b      	ldr	r3, [r7, #4]
 80042f4:	2b00      	cmp	r3, #0
 80042f6:	d109      	bne.n	800430c <vTaskPlaceOnEventList+0x24>
 80042f8:	f04f 0350 	mov.w	r3, #80	; 0x50
 80042fc:	f383 8811 	msr	BASEPRI, r3
 8004300:	f3bf 8f6f 	isb	sy
 8004304:	f3bf 8f4f 	dsb	sy
 8004308:	60fb      	str	r3, [r7, #12]
 800430a:	e7fe      	b.n	800430a <vTaskPlaceOnEventList+0x22>
 800430c:	4b07      	ldr	r3, [pc, #28]	; (800432c <vTaskPlaceOnEventList+0x44>)
 800430e:	681b      	ldr	r3, [r3, #0]
 8004310:	3318      	adds	r3, #24
 8004312:	4619      	mov	r1, r3
 8004314:	6878      	ldr	r0, [r7, #4]
 8004316:	f7fe fdc5 	bl	8002ea4 <vListInsert>
 800431a:	2101      	movs	r1, #1
 800431c:	6838      	ldr	r0, [r7, #0]
 800431e:	f000 fa6d 	bl	80047fc <prvAddCurrentTaskToDelayedList>
 8004322:	bf00      	nop
 8004324:	3710      	adds	r7, #16
 8004326:	46bd      	mov	sp, r7
 8004328:	bd80      	pop	{r7, pc}
 800432a:	bf00      	nop
 800432c:	20000034 	.word	0x20000034

08004330 <vTaskPlaceOnEventListRestricted>:
 8004330:	b580      	push	{r7, lr}
 8004332:	b086      	sub	sp, #24
 8004334:	af00      	add	r7, sp, #0
 8004336:	60f8      	str	r0, [r7, #12]
 8004338:	60b9      	str	r1, [r7, #8]
 800433a:	607a      	str	r2, [r7, #4]
 800433c:	68fb      	ldr	r3, [r7, #12]
 800433e:	2b00      	cmp	r3, #0
 8004340:	d109      	bne.n	8004356 <vTaskPlaceOnEventListRestricted+0x26>
 8004342:	f04f 0350 	mov.w	r3, #80	; 0x50
 8004346:	f383 8811 	msr	BASEPRI, r3
 800434a:	f3bf 8f6f 	isb	sy
 800434e:	f3bf 8f4f 	dsb	sy
 8004352:	617b      	str	r3, [r7, #20]
 8004354:	e7fe      	b.n	8004354 <vTaskPlaceOnEventListRestricted+0x24>
 8004356:	4b0c      	ldr	r3, [pc, #48]	; (8004388 <vTaskPlaceOnEventListRestricted+0x58>)
 8004358:	681b      	ldr	r3, [r3, #0]
 800435a:	3318      	adds	r3, #24
 800435c:	4619      	mov	r1, r3
 800435e:	68f8      	ldr	r0, [r7, #12]
 8004360:	f7fe fd7c 	bl	8002e5c <vListInsertEnd>
 8004364:	687b      	ldr	r3, [r7, #4]
 8004366:	2b00      	cmp	r3, #0
 8004368:	d002      	beq.n	8004370 <vTaskPlaceOnEventListRestricted+0x40>
 800436a:	f04f 33ff 	mov.w	r3, #4294967295
 800436e:	60bb      	str	r3, [r7, #8]
 8004370:	2024      	movs	r0, #36	; 0x24
 8004372:	f001 ffdb 	bl	800632c <SEGGER_SYSVIEW_RecordVoid>
 8004376:	6879      	ldr	r1, [r7, #4]
 8004378:	68b8      	ldr	r0, [r7, #8]
 800437a:	f000 fa3f 	bl	80047fc <prvAddCurrentTaskToDelayedList>
 800437e:	bf00      	nop
 8004380:	3718      	adds	r7, #24
 8004382:	46bd      	mov	sp, r7
 8004384:	bd80      	pop	{r7, pc}
 8004386:	bf00      	nop
 8004388:	20000034 	.word	0x20000034

0800438c <xTaskRemoveFromEventList>:
 800438c:	b580      	push	{r7, lr}
 800438e:	b086      	sub	sp, #24
 8004390:	af00      	add	r7, sp, #0
 8004392:	6078      	str	r0, [r7, #4]
 8004394:	687b      	ldr	r3, [r7, #4]
 8004396:	68db      	ldr	r3, [r3, #12]
 8004398:	68db      	ldr	r3, [r3, #12]
 800439a:	613b      	str	r3, [r7, #16]
 800439c:	693b      	ldr	r3, [r7, #16]
 800439e:	2b00      	cmp	r3, #0
 80043a0:	d109      	bne.n	80043b6 <xTaskRemoveFromEventList+0x2a>
 80043a2:	f04f 0350 	mov.w	r3, #80	; 0x50
 80043a6:	f383 8811 	msr	BASEPRI, r3
 80043aa:	f3bf 8f6f 	isb	sy
 80043ae:	f3bf 8f4f 	dsb	sy
 80043b2:	60fb      	str	r3, [r7, #12]
 80043b4:	e7fe      	b.n	80043b4 <xTaskRemoveFromEventList+0x28>
 80043b6:	693b      	ldr	r3, [r7, #16]
 80043b8:	3318      	adds	r3, #24
 80043ba:	4618      	mov	r0, r3
 80043bc:	f7fe fdab 	bl	8002f16 <uxListRemove>
 80043c0:	4b1f      	ldr	r3, [pc, #124]	; (8004440 <xTaskRemoveFromEventList+0xb4>)
 80043c2:	681b      	ldr	r3, [r3, #0]
 80043c4:	2b00      	cmp	r3, #0
 80043c6:	d120      	bne.n	800440a <xTaskRemoveFromEventList+0x7e>
 80043c8:	693b      	ldr	r3, [r7, #16]
 80043ca:	3304      	adds	r3, #4
 80043cc:	4618      	mov	r0, r3
 80043ce:	f7fe fda2 	bl	8002f16 <uxListRemove>
 80043d2:	693b      	ldr	r3, [r7, #16]
 80043d4:	4618      	mov	r0, r3
 80043d6:	f002 fd45 	bl	8006e64 <SEGGER_SYSVIEW_OnTaskStartReady>
 80043da:	693b      	ldr	r3, [r7, #16]
 80043dc:	6adb      	ldr	r3, [r3, #44]	; 0x2c
 80043de:	2201      	movs	r2, #1
 80043e0:	409a      	lsls	r2, r3
 80043e2:	4b18      	ldr	r3, [pc, #96]	; (8004444 <xTaskRemoveFromEventList+0xb8>)
 80043e4:	681b      	ldr	r3, [r3, #0]
 80043e6:	4313      	orrs	r3, r2
 80043e8:	4a16      	ldr	r2, [pc, #88]	; (8004444 <xTaskRemoveFromEventList+0xb8>)
 80043ea:	6013      	str	r3, [r2, #0]
 80043ec:	693b      	ldr	r3, [r7, #16]
 80043ee:	6ada      	ldr	r2, [r3, #44]	; 0x2c
 80043f0:	4613      	mov	r3, r2
 80043f2:	009b      	lsls	r3, r3, #2
 80043f4:	4413      	add	r3, r2
 80043f6:	009b      	lsls	r3, r3, #2
 80043f8:	4a13      	ldr	r2, [pc, #76]	; (8004448 <xTaskRemoveFromEventList+0xbc>)
 80043fa:	441a      	add	r2, r3
 80043fc:	693b      	ldr	r3, [r7, #16]
 80043fe:	3304      	adds	r3, #4
 8004400:	4619      	mov	r1, r3
 8004402:	4610      	mov	r0, r2
 8004404:	f7fe fd2a 	bl	8002e5c <vListInsertEnd>
 8004408:	e005      	b.n	8004416 <xTaskRemoveFromEventList+0x8a>
 800440a:	693b      	ldr	r3, [r7, #16]
 800440c:	3318      	adds	r3, #24
 800440e:	4619      	mov	r1, r3
 8004410:	480e      	ldr	r0, [pc, #56]	; (800444c <xTaskRemoveFromEventList+0xc0>)
 8004412:	f7fe fd23 	bl	8002e5c <vListInsertEnd>
 8004416:	693b      	ldr	r3, [r7, #16]
 8004418:	6ada      	ldr	r2, [r3, #44]	; 0x2c
 800441a:	4b0d      	ldr	r3, [pc, #52]	; (8004450 <xTaskRemoveFromEventList+0xc4>)
 800441c:	681b      	ldr	r3, [r3, #0]
 800441e:	6adb      	ldr	r3, [r3, #44]	; 0x2c
 8004420:	429a      	cmp	r2, r3
 8004422:	d905      	bls.n	8004430 <xTaskRemoveFromEventList+0xa4>
 8004424:	2301      	movs	r3, #1
 8004426:	617b      	str	r3, [r7, #20]
 8004428:	4b0a      	ldr	r3, [pc, #40]	; (8004454 <xTaskRemoveFromEventList+0xc8>)
 800442a:	2201      	movs	r2, #1
 800442c:	601a      	str	r2, [r3, #0]
 800442e:	e001      	b.n	8004434 <xTaskRemoveFromEventList+0xa8>
 8004430:	2300      	movs	r3, #0
 8004432:	617b      	str	r3, [r7, #20]
 8004434:	697b      	ldr	r3, [r7, #20]
 8004436:	4618      	mov	r0, r3
 8004438:	3718      	adds	r7, #24
 800443a:	46bd      	mov	sp, r7
 800443c:	bd80      	pop	{r7, pc}
 800443e:	bf00      	nop
 8004440:	20000134 	.word	0x20000134
 8004444:	20000114 	.word	0x20000114
 8004448:	20000038 	.word	0x20000038
 800444c:	200000cc 	.word	0x200000cc
 8004450:	20000034 	.word	0x20000034
 8004454:	20000120 	.word	0x20000120

08004458 <vTaskInternalSetTimeOutState>:
 8004458:	b480      	push	{r7}
 800445a:	b083      	sub	sp, #12
 800445c:	af00      	add	r7, sp, #0
 800445e:	6078      	str	r0, [r7, #4]
 8004460:	4b06      	ldr	r3, [pc, #24]	; (800447c <vTaskInternalSetTimeOutState+0x24>)
 8004462:	681a      	ldr	r2, [r3, #0]
 8004464:	687b      	ldr	r3, [r7, #4]
 8004466:	601a      	str	r2, [r3, #0]
 8004468:	4b05      	ldr	r3, [pc, #20]	; (8004480 <vTaskInternalSetTimeOutState+0x28>)
 800446a:	681a      	ldr	r2, [r3, #0]
 800446c:	687b      	ldr	r3, [r7, #4]
 800446e:	605a      	str	r2, [r3, #4]
 8004470:	bf00      	nop
 8004472:	370c      	adds	r7, #12
 8004474:	46bd      	mov	sp, r7
 8004476:	f85d 7b04 	ldr.w	r7, [sp], #4
 800447a:	4770      	bx	lr
 800447c:	20000124 	.word	0x20000124
 8004480:	20000110 	.word	0x20000110

08004484 <xTaskCheckForTimeOut>:
 8004484:	b580      	push	{r7, lr}
 8004486:	b088      	sub	sp, #32
 8004488:	af00      	add	r7, sp, #0
 800448a:	6078      	str	r0, [r7, #4]
 800448c:	6039      	str	r1, [r7, #0]
 800448e:	687b      	ldr	r3, [r7, #4]
 8004490:	2b00      	cmp	r3, #0
 8004492:	d109      	bne.n	80044a8 <xTaskCheckForTimeOut+0x24>
 8004494:	f04f 0350 	mov.w	r3, #80	; 0x50
 8004498:	f383 8811 	msr	BASEPRI, r3
 800449c:	f3bf 8f6f 	isb	sy
 80044a0:	f3bf 8f4f 	dsb	sy
 80044a4:	613b      	str	r3, [r7, #16]
 80044a6:	e7fe      	b.n	80044a6 <xTaskCheckForTimeOut+0x22>
 80044a8:	683b      	ldr	r3, [r7, #0]
 80044aa:	2b00      	cmp	r3, #0
 80044ac:	d109      	bne.n	80044c2 <xTaskCheckForTimeOut+0x3e>
 80044ae:	f04f 0350 	mov.w	r3, #80	; 0x50
 80044b2:	f383 8811 	msr	BASEPRI, r3
 80044b6:	f3bf 8f6f 	isb	sy
 80044ba:	f3bf 8f4f 	dsb	sy
 80044be:	60fb      	str	r3, [r7, #12]
 80044c0:	e7fe      	b.n	80044c0 <xTaskCheckForTimeOut+0x3c>
 80044c2:	f000 fec7 	bl	8005254 <vPortEnterCritical>
 80044c6:	4b1f      	ldr	r3, [pc, #124]	; (8004544 <xTaskCheckForTimeOut+0xc0>)
 80044c8:	681b      	ldr	r3, [r3, #0]
 80044ca:	61bb      	str	r3, [r7, #24]
 80044cc:	687b      	ldr	r3, [r7, #4]
 80044ce:	685b      	ldr	r3, [r3, #4]
 80044d0:	69ba      	ldr	r2, [r7, #24]
 80044d2:	1ad3      	subs	r3, r2, r3
 80044d4:	617b      	str	r3, [r7, #20]
 80044d6:	683b      	ldr	r3, [r7, #0]
 80044d8:	681b      	ldr	r3, [r3, #0]
 80044da:	f1b3 3fff 	cmp.w	r3, #4294967295
 80044de:	d102      	bne.n	80044e6 <xTaskCheckForTimeOut+0x62>
 80044e0:	2300      	movs	r3, #0
 80044e2:	61fb      	str	r3, [r7, #28]
 80044e4:	e026      	b.n	8004534 <xTaskCheckForTimeOut+0xb0>
 80044e6:	687b      	ldr	r3, [r7, #4]
 80044e8:	681a      	ldr	r2, [r3, #0]
 80044ea:	4b17      	ldr	r3, [pc, #92]	; (8004548 <xTaskCheckForTimeOut+0xc4>)
 80044ec:	681b      	ldr	r3, [r3, #0]
 80044ee:	429a      	cmp	r2, r3
 80044f0:	d00a      	beq.n	8004508 <xTaskCheckForTimeOut+0x84>
 80044f2:	687b      	ldr	r3, [r7, #4]
 80044f4:	685b      	ldr	r3, [r3, #4]
 80044f6:	69ba      	ldr	r2, [r7, #24]
 80044f8:	429a      	cmp	r2, r3
 80044fa:	d305      	bcc.n	8004508 <xTaskCheckForTimeOut+0x84>
 80044fc:	2301      	movs	r3, #1
 80044fe:	61fb      	str	r3, [r7, #28]
 8004500:	683b      	ldr	r3, [r7, #0]
 8004502:	2200      	movs	r2, #0
 8004504:	601a      	str	r2, [r3, #0]
 8004506:	e015      	b.n	8004534 <xTaskCheckForTimeOut+0xb0>
 8004508:	683b      	ldr	r3, [r7, #0]
 800450a:	681b      	ldr	r3, [r3, #0]
 800450c:	697a      	ldr	r2, [r7, #20]
 800450e:	429a      	cmp	r2, r3
 8004510:	d20b      	bcs.n	800452a <xTaskCheckForTimeOut+0xa6>
 8004512:	683b      	ldr	r3, [r7, #0]
 8004514:	681a      	ldr	r2, [r3, #0]
 8004516:	697b      	ldr	r3, [r7, #20]
 8004518:	1ad2      	subs	r2, r2, r3
 800451a:	683b      	ldr	r3, [r7, #0]
 800451c:	601a      	str	r2, [r3, #0]
 800451e:	6878      	ldr	r0, [r7, #4]
 8004520:	f7ff ff9a 	bl	8004458 <vTaskInternalSetTimeOutState>
 8004524:	2300      	movs	r3, #0
 8004526:	61fb      	str	r3, [r7, #28]
 8004528:	e004      	b.n	8004534 <xTaskCheckForTimeOut+0xb0>
 800452a:	683b      	ldr	r3, [r7, #0]
 800452c:	2200      	movs	r2, #0
 800452e:	601a      	str	r2, [r3, #0]
 8004530:	2301      	movs	r3, #1
 8004532:	61fb      	str	r3, [r7, #28]
 8004534:	f000 febc 	bl	80052b0 <vPortExitCritical>
 8004538:	69fb      	ldr	r3, [r7, #28]
 800453a:	4618      	mov	r0, r3
 800453c:	3720      	adds	r7, #32
 800453e:	46bd      	mov	sp, r7
 8004540:	bd80      	pop	{r7, pc}
 8004542:	bf00      	nop
 8004544:	20000110 	.word	0x20000110
 8004548:	20000124 	.word	0x20000124

0800454c <vTaskMissedYield>:
 800454c:	b480      	push	{r7}
 800454e:	af00      	add	r7, sp, #0
 8004550:	4b03      	ldr	r3, [pc, #12]	; (8004560 <vTaskMissedYield+0x14>)
 8004552:	2201      	movs	r2, #1
 8004554:	601a      	str	r2, [r3, #0]
 8004556:	bf00      	nop
 8004558:	46bd      	mov	sp, r7
 800455a:	f85d 7b04 	ldr.w	r7, [sp], #4
 800455e:	4770      	bx	lr
 8004560:	20000120 	.word	0x20000120

08004564 <prvIdleTask>:
 8004564:	b580      	push	{r7, lr}
 8004566:	b082      	sub	sp, #8
 8004568:	af00      	add	r7, sp, #0
 800456a:	6078      	str	r0, [r7, #4]
 800456c:	f000 f852 	bl	8004614 <prvCheckTasksWaitingTermination>
 8004570:	4b06      	ldr	r3, [pc, #24]	; (800458c <prvIdleTask+0x28>)
 8004572:	681b      	ldr	r3, [r3, #0]
 8004574:	2b01      	cmp	r3, #1
 8004576:	d9f9      	bls.n	800456c <prvIdleTask+0x8>
 8004578:	4b05      	ldr	r3, [pc, #20]	; (8004590 <prvIdleTask+0x2c>)
 800457a:	f04f 5280 	mov.w	r2, #268435456	; 0x10000000
 800457e:	601a      	str	r2, [r3, #0]
 8004580:	f3bf 8f4f 	dsb	sy
 8004584:	f3bf 8f6f 	isb	sy
 8004588:	e7f0      	b.n	800456c <prvIdleTask+0x8>
 800458a:	bf00      	nop
 800458c:	20000038 	.word	0x20000038
 8004590:	e000ed04 	.word	0xe000ed04

08004594 <prvInitialiseTaskLists>:
 8004594:	b580      	push	{r7, lr}
 8004596:	b082      	sub	sp, #8
 8004598:	af00      	add	r7, sp, #0
 800459a:	2300      	movs	r3, #0
 800459c:	607b      	str	r3, [r7, #4]
 800459e:	e00c      	b.n	80045ba <prvInitialiseTaskLists+0x26>
 80045a0:	687a      	ldr	r2, [r7, #4]
 80045a2:	4613      	mov	r3, r2
 80045a4:	009b      	lsls	r3, r3, #2
 80045a6:	4413      	add	r3, r2
 80045a8:	009b      	lsls	r3, r3, #2
 80045aa:	4a12      	ldr	r2, [pc, #72]	; (80045f4 <prvInitialiseTaskLists+0x60>)
 80045ac:	4413      	add	r3, r2
 80045ae:	4618      	mov	r0, r3
 80045b0:	f7fe fc27 	bl	8002e02 <vListInitialise>
 80045b4:	687b      	ldr	r3, [r7, #4]
 80045b6:	3301      	adds	r3, #1
 80045b8:	607b      	str	r3, [r7, #4]
 80045ba:	687b      	ldr	r3, [r7, #4]
 80045bc:	2b04      	cmp	r3, #4
 80045be:	d9ef      	bls.n	80045a0 <prvInitialiseTaskLists+0xc>
 80045c0:	480d      	ldr	r0, [pc, #52]	; (80045f8 <prvInitialiseTaskLists+0x64>)
 80045c2:	f7fe fc1e 	bl	8002e02 <vListInitialise>
 80045c6:	480d      	ldr	r0, [pc, #52]	; (80045fc <prvInitialiseTaskLists+0x68>)
 80045c8:	f7fe fc1b 	bl	8002e02 <vListInitialise>
 80045cc:	480c      	ldr	r0, [pc, #48]	; (8004600 <prvInitialiseTaskLists+0x6c>)
 80045ce:	f7fe fc18 	bl	8002e02 <vListInitialise>
 80045d2:	480c      	ldr	r0, [pc, #48]	; (8004604 <prvInitialiseTaskLists+0x70>)
 80045d4:	f7fe fc15 	bl	8002e02 <vListInitialise>
 80045d8:	480b      	ldr	r0, [pc, #44]	; (8004608 <prvInitialiseTaskLists+0x74>)
 80045da:	f7fe fc12 	bl	8002e02 <vListInitialise>
 80045de:	4b0b      	ldr	r3, [pc, #44]	; (800460c <prvInitialiseTaskLists+0x78>)
 80045e0:	4a05      	ldr	r2, [pc, #20]	; (80045f8 <prvInitialiseTaskLists+0x64>)
 80045e2:	601a      	str	r2, [r3, #0]
 80045e4:	4b0a      	ldr	r3, [pc, #40]	; (8004610 <prvInitialiseTaskLists+0x7c>)
 80045e6:	4a05      	ldr	r2, [pc, #20]	; (80045fc <prvInitialiseTaskLists+0x68>)
 80045e8:	601a      	str	r2, [r3, #0]
 80045ea:	bf00      	nop
 80045ec:	3708      	adds	r7, #8
 80045ee:	46bd      	mov	sp, r7
 80045f0:	bd80      	pop	{r7, pc}
 80045f2:	bf00      	nop
 80045f4:	20000038 	.word	0x20000038
 80045f8:	2000009c 	.word	0x2000009c
 80045fc:	200000b0 	.word	0x200000b0
 8004600:	200000cc 	.word	0x200000cc
 8004604:	200000e0 	.word	0x200000e0
 8004608:	200000f8 	.word	0x200000f8
 800460c:	200000c4 	.word	0x200000c4
 8004610:	200000c8 	.word	0x200000c8

08004614 <prvCheckTasksWaitingTermination>:
 8004614:	b580      	push	{r7, lr}
 8004616:	b082      	sub	sp, #8
 8004618:	af00      	add	r7, sp, #0
 800461a:	e019      	b.n	8004650 <prvCheckTasksWaitingTermination+0x3c>
 800461c:	f000 fe1a 	bl	8005254 <vPortEnterCritical>
 8004620:	4b0f      	ldr	r3, [pc, #60]	; (8004660 <prvCheckTasksWaitingTermination+0x4c>)
 8004622:	68db      	ldr	r3, [r3, #12]
 8004624:	68db      	ldr	r3, [r3, #12]
 8004626:	607b      	str	r3, [r7, #4]
 8004628:	687b      	ldr	r3, [r7, #4]
 800462a:	3304      	adds	r3, #4
 800462c:	4618      	mov	r0, r3
 800462e:	f7fe fc72 	bl	8002f16 <uxListRemove>
 8004632:	4b0c      	ldr	r3, [pc, #48]	; (8004664 <prvCheckTasksWaitingTermination+0x50>)
 8004634:	681b      	ldr	r3, [r3, #0]
 8004636:	3b01      	subs	r3, #1
 8004638:	4a0a      	ldr	r2, [pc, #40]	; (8004664 <prvCheckTasksWaitingTermination+0x50>)
 800463a:	6013      	str	r3, [r2, #0]
 800463c:	4b0a      	ldr	r3, [pc, #40]	; (8004668 <prvCheckTasksWaitingTermination+0x54>)
 800463e:	681b      	ldr	r3, [r3, #0]
 8004640:	3b01      	subs	r3, #1
 8004642:	4a09      	ldr	r2, [pc, #36]	; (8004668 <prvCheckTasksWaitingTermination+0x54>)
 8004644:	6013      	str	r3, [r2, #0]
 8004646:	f000 fe33 	bl	80052b0 <vPortExitCritical>
 800464a:	6878      	ldr	r0, [r7, #4]
 800464c:	f000 f80e 	bl	800466c <prvDeleteTCB>
 8004650:	4b05      	ldr	r3, [pc, #20]	; (8004668 <prvCheckTasksWaitingTermination+0x54>)
 8004652:	681b      	ldr	r3, [r3, #0]
 8004654:	2b00      	cmp	r3, #0
 8004656:	d1e1      	bne.n	800461c <prvCheckTasksWaitingTermination+0x8>
 8004658:	bf00      	nop
 800465a:	3708      	adds	r7, #8
 800465c:	46bd      	mov	sp, r7
 800465e:	bd80      	pop	{r7, pc}
 8004660:	200000e0 	.word	0x200000e0
 8004664:	2000010c 	.word	0x2000010c
 8004668:	200000f4 	.word	0x200000f4

0800466c <prvDeleteTCB>:
 800466c:	b580      	push	{r7, lr}
 800466e:	b082      	sub	sp, #8
 8004670:	af00      	add	r7, sp, #0
 8004672:	6078      	str	r0, [r7, #4]
 8004674:	687b      	ldr	r3, [r7, #4]
 8004676:	6b1b      	ldr	r3, [r3, #48]	; 0x30
 8004678:	4618      	mov	r0, r3
 800467a:	f000 ffe7 	bl	800564c <vPortFree>
 800467e:	6878      	ldr	r0, [r7, #4]
 8004680:	f000 ffe4 	bl	800564c <vPortFree>
 8004684:	bf00      	nop
 8004686:	3708      	adds	r7, #8
 8004688:	46bd      	mov	sp, r7
 800468a:	bd80      	pop	{r7, pc}

0800468c <prvResetNextTaskUnblockTime>:
 800468c:	b480      	push	{r7}
 800468e:	af00      	add	r7, sp, #0
 8004690:	4b0a      	ldr	r3, [pc, #40]	; (80046bc <prvResetNextTaskUnblockTime+0x30>)
 8004692:	681b      	ldr	r3, [r3, #0]
 8004694:	681b      	ldr	r3, [r3, #0]
 8004696:	2b00      	cmp	r3, #0
 8004698:	d104      	bne.n	80046a4 <prvResetNextTaskUnblockTime+0x18>
 800469a:	4b09      	ldr	r3, [pc, #36]	; (80046c0 <prvResetNextTaskUnblockTime+0x34>)
 800469c:	f04f 32ff 	mov.w	r2, #4294967295
 80046a0:	601a      	str	r2, [r3, #0]
 80046a2:	e005      	b.n	80046b0 <prvResetNextTaskUnblockTime+0x24>
 80046a4:	4b05      	ldr	r3, [pc, #20]	; (80046bc <prvResetNextTaskUnblockTime+0x30>)
 80046a6:	681b      	ldr	r3, [r3, #0]
 80046a8:	68db      	ldr	r3, [r3, #12]
 80046aa:	681b      	ldr	r3, [r3, #0]
 80046ac:	4a04      	ldr	r2, [pc, #16]	; (80046c0 <prvResetNextTaskUnblockTime+0x34>)
 80046ae:	6013      	str	r3, [r2, #0]
 80046b0:	bf00      	nop
 80046b2:	46bd      	mov	sp, r7
 80046b4:	f85d 7b04 	ldr.w	r7, [sp], #4
 80046b8:	4770      	bx	lr
 80046ba:	bf00      	nop
 80046bc:	200000c4 	.word	0x200000c4
 80046c0:	2000012c 	.word	0x2000012c

080046c4 <xTaskGetSchedulerState>:
 80046c4:	b480      	push	{r7}
 80046c6:	b083      	sub	sp, #12
 80046c8:	af00      	add	r7, sp, #0
 80046ca:	4b0b      	ldr	r3, [pc, #44]	; (80046f8 <xTaskGetSchedulerState+0x34>)
 80046cc:	681b      	ldr	r3, [r3, #0]
 80046ce:	2b00      	cmp	r3, #0
 80046d0:	d102      	bne.n	80046d8 <xTaskGetSchedulerState+0x14>
 80046d2:	2301      	movs	r3, #1
 80046d4:	607b      	str	r3, [r7, #4]
 80046d6:	e008      	b.n	80046ea <xTaskGetSchedulerState+0x26>
 80046d8:	4b08      	ldr	r3, [pc, #32]	; (80046fc <xTaskGetSchedulerState+0x38>)
 80046da:	681b      	ldr	r3, [r3, #0]
 80046dc:	2b00      	cmp	r3, #0
 80046de:	d102      	bne.n	80046e6 <xTaskGetSchedulerState+0x22>
 80046e0:	2302      	movs	r3, #2
 80046e2:	607b      	str	r3, [r7, #4]
 80046e4:	e001      	b.n	80046ea <xTaskGetSchedulerState+0x26>
 80046e6:	2300      	movs	r3, #0
 80046e8:	607b      	str	r3, [r7, #4]
 80046ea:	687b      	ldr	r3, [r7, #4]
 80046ec:	4618      	mov	r0, r3
 80046ee:	370c      	adds	r7, #12
 80046f0:	46bd      	mov	sp, r7
 80046f2:	f85d 7b04 	ldr.w	r7, [sp], #4
 80046f6:	4770      	bx	lr
 80046f8:	20000118 	.word	0x20000118
 80046fc:	20000134 	.word	0x20000134

08004700 <xTaskPriorityDisinherit>:
 8004700:	b580      	push	{r7, lr}
 8004702:	b086      	sub	sp, #24
 8004704:	af00      	add	r7, sp, #0
 8004706:	6078      	str	r0, [r7, #4]
 8004708:	687b      	ldr	r3, [r7, #4]
 800470a:	613b      	str	r3, [r7, #16]
 800470c:	2300      	movs	r3, #0
 800470e:	617b      	str	r3, [r7, #20]
 8004710:	687b      	ldr	r3, [r7, #4]
 8004712:	2b00      	cmp	r3, #0
 8004714:	d066      	beq.n	80047e4 <xTaskPriorityDisinherit+0xe4>
 8004716:	4b36      	ldr	r3, [pc, #216]	; (80047f0 <xTaskPriorityDisinherit+0xf0>)
 8004718:	681b      	ldr	r3, [r3, #0]
 800471a:	693a      	ldr	r2, [r7, #16]
 800471c:	429a      	cmp	r2, r3
 800471e:	d009      	beq.n	8004734 <xTaskPriorityDisinherit+0x34>
 8004720:	f04f 0350 	mov.w	r3, #80	; 0x50
 8004724:	f383 8811 	msr	BASEPRI, r3
 8004728:	f3bf 8f6f 	isb	sy
 800472c:	f3bf 8f4f 	dsb	sy
 8004730:	60fb      	str	r3, [r7, #12]
 8004732:	e7fe      	b.n	8004732 <xTaskPriorityDisinherit+0x32>
 8004734:	693b      	ldr	r3, [r7, #16]
 8004736:	6cdb      	ldr	r3, [r3, #76]	; 0x4c
 8004738:	2b00      	cmp	r3, #0
 800473a:	d109      	bne.n	8004750 <xTaskPriorityDisinherit+0x50>
 800473c:	f04f 0350 	mov.w	r3, #80	; 0x50
 8004740:	f383 8811 	msr	BASEPRI, r3
 8004744:	f3bf 8f6f 	isb	sy
 8004748:	f3bf 8f4f 	dsb	sy
 800474c:	60bb      	str	r3, [r7, #8]
 800474e:	e7fe      	b.n	800474e <xTaskPriorityDisinherit+0x4e>
 8004750:	693b      	ldr	r3, [r7, #16]
 8004752:	6cdb      	ldr	r3, [r3, #76]	; 0x4c
 8004754:	1e5a      	subs	r2, r3, #1
 8004756:	693b      	ldr	r3, [r7, #16]
 8004758:	64da      	str	r2, [r3, #76]	; 0x4c
 800475a:	693b      	ldr	r3, [r7, #16]
 800475c:	6ada      	ldr	r2, [r3, #44]	; 0x2c
 800475e:	693b      	ldr	r3, [r7, #16]
 8004760:	6c9b      	ldr	r3, [r3, #72]	; 0x48
 8004762:	429a      	cmp	r2, r3
 8004764:	d03e      	beq.n	80047e4 <xTaskPriorityDisinherit+0xe4>
 8004766:	693b      	ldr	r3, [r7, #16]
 8004768:	6cdb      	ldr	r3, [r3, #76]	; 0x4c
 800476a:	2b00      	cmp	r3, #0
 800476c:	d13a      	bne.n	80047e4 <xTaskPriorityDisinherit+0xe4>
 800476e:	693b      	ldr	r3, [r7, #16]
 8004770:	3304      	adds	r3, #4
 8004772:	4618      	mov	r0, r3
 8004774:	f7fe fbcf 	bl	8002f16 <uxListRemove>
 8004778:	4603      	mov	r3, r0
 800477a:	2b00      	cmp	r3, #0
 800477c:	d10a      	bne.n	8004794 <xTaskPriorityDisinherit+0x94>
 800477e:	693b      	ldr	r3, [r7, #16]
 8004780:	6adb      	ldr	r3, [r3, #44]	; 0x2c
 8004782:	2201      	movs	r2, #1
 8004784:	fa02 f303 	lsl.w	r3, r2, r3
 8004788:	43da      	mvns	r2, r3
 800478a:	4b1a      	ldr	r3, [pc, #104]	; (80047f4 <xTaskPriorityDisinherit+0xf4>)
 800478c:	681b      	ldr	r3, [r3, #0]
 800478e:	4013      	ands	r3, r2
 8004790:	4a18      	ldr	r2, [pc, #96]	; (80047f4 <xTaskPriorityDisinherit+0xf4>)
 8004792:	6013      	str	r3, [r2, #0]
 8004794:	687b      	ldr	r3, [r7, #4]
 8004796:	4619      	mov	r1, r3
 8004798:	204a      	movs	r0, #74	; 0x4a
 800479a:	f001 fde5 	bl	8006368 <SEGGER_SYSVIEW_RecordU32>
 800479e:	693b      	ldr	r3, [r7, #16]
 80047a0:	6c9a      	ldr	r2, [r3, #72]	; 0x48
 80047a2:	693b      	ldr	r3, [r7, #16]
 80047a4:	62da      	str	r2, [r3, #44]	; 0x2c
 80047a6:	693b      	ldr	r3, [r7, #16]
 80047a8:	6adb      	ldr	r3, [r3, #44]	; 0x2c
 80047aa:	f1c3 0205 	rsb	r2, r3, #5
 80047ae:	693b      	ldr	r3, [r7, #16]
 80047b0:	619a      	str	r2, [r3, #24]
 80047b2:	693b      	ldr	r3, [r7, #16]
 80047b4:	6adb      	ldr	r3, [r3, #44]	; 0x2c
 80047b6:	2201      	movs	r2, #1
 80047b8:	409a      	lsls	r2, r3
 80047ba:	4b0e      	ldr	r3, [pc, #56]	; (80047f4 <xTaskPriorityDisinherit+0xf4>)
 80047bc:	681b      	ldr	r3, [r3, #0]
 80047be:	4313      	orrs	r3, r2
 80047c0:	4a0c      	ldr	r2, [pc, #48]	; (80047f4 <xTaskPriorityDisinherit+0xf4>)
 80047c2:	6013      	str	r3, [r2, #0]
 80047c4:	693b      	ldr	r3, [r7, #16]
 80047c6:	6ada      	ldr	r2, [r3, #44]	; 0x2c
 80047c8:	4613      	mov	r3, r2
 80047ca:	009b      	lsls	r3, r3, #2
 80047cc:	4413      	add	r3, r2
 80047ce:	009b      	lsls	r3, r3, #2
 80047d0:	4a09      	ldr	r2, [pc, #36]	; (80047f8 <xTaskPriorityDisinherit+0xf8>)
 80047d2:	441a      	add	r2, r3
 80047d4:	693b      	ldr	r3, [r7, #16]
 80047d6:	3304      	adds	r3, #4
 80047d8:	4619      	mov	r1, r3
 80047da:	4610      	mov	r0, r2
 80047dc:	f7fe fb3e 	bl	8002e5c <vListInsertEnd>
 80047e0:	2301      	movs	r3, #1
 80047e2:	617b      	str	r3, [r7, #20]
 80047e4:	697b      	ldr	r3, [r7, #20]
 80047e6:	4618      	mov	r0, r3
 80047e8:	3718      	adds	r7, #24
 80047ea:	46bd      	mov	sp, r7
 80047ec:	bd80      	pop	{r7, pc}
 80047ee:	bf00      	nop
 80047f0:	20000034 	.word	0x20000034
 80047f4:	20000114 	.word	0x20000114
 80047f8:	20000038 	.word	0x20000038

080047fc <prvAddCurrentTaskToDelayedList>:
 80047fc:	b580      	push	{r7, lr}
 80047fe:	b084      	sub	sp, #16
 8004800:	af00      	add	r7, sp, #0
 8004802:	6078      	str	r0, [r7, #4]
 8004804:	6039      	str	r1, [r7, #0]
 8004806:	4b32      	ldr	r3, [pc, #200]	; (80048d0 <prvAddCurrentTaskToDelayedList+0xd4>)
 8004808:	681b      	ldr	r3, [r3, #0]
 800480a:	60fb      	str	r3, [r7, #12]
 800480c:	4b31      	ldr	r3, [pc, #196]	; (80048d4 <prvAddCurrentTaskToDelayedList+0xd8>)
 800480e:	681b      	ldr	r3, [r3, #0]
 8004810:	3304      	adds	r3, #4
 8004812:	4618      	mov	r0, r3
 8004814:	f7fe fb7f 	bl	8002f16 <uxListRemove>
 8004818:	4603      	mov	r3, r0
 800481a:	2b00      	cmp	r3, #0
 800481c:	d10b      	bne.n	8004836 <prvAddCurrentTaskToDelayedList+0x3a>
 800481e:	4b2d      	ldr	r3, [pc, #180]	; (80048d4 <prvAddCurrentTaskToDelayedList+0xd8>)
 8004820:	681b      	ldr	r3, [r3, #0]
 8004822:	6adb      	ldr	r3, [r3, #44]	; 0x2c
 8004824:	2201      	movs	r2, #1
 8004826:	fa02 f303 	lsl.w	r3, r2, r3
 800482a:	43da      	mvns	r2, r3
 800482c:	4b2a      	ldr	r3, [pc, #168]	; (80048d8 <prvAddCurrentTaskToDelayedList+0xdc>)
 800482e:	681b      	ldr	r3, [r3, #0]
 8004830:	4013      	ands	r3, r2
 8004832:	4a29      	ldr	r2, [pc, #164]	; (80048d8 <prvAddCurrentTaskToDelayedList+0xdc>)
 8004834:	6013      	str	r3, [r2, #0]
 8004836:	687b      	ldr	r3, [r7, #4]
 8004838:	f1b3 3fff 	cmp.w	r3, #4294967295
 800483c:	d110      	bne.n	8004860 <prvAddCurrentTaskToDelayedList+0x64>
 800483e:	683b      	ldr	r3, [r7, #0]
 8004840:	2b00      	cmp	r3, #0
 8004842:	d00d      	beq.n	8004860 <prvAddCurrentTaskToDelayedList+0x64>
 8004844:	4b23      	ldr	r3, [pc, #140]	; (80048d4 <prvAddCurrentTaskToDelayedList+0xd8>)
 8004846:	681b      	ldr	r3, [r3, #0]
 8004848:	211b      	movs	r1, #27
 800484a:	4618      	mov	r0, r3
 800484c:	f002 fb4c 	bl	8006ee8 <SEGGER_SYSVIEW_OnTaskStopReady>
 8004850:	4b20      	ldr	r3, [pc, #128]	; (80048d4 <prvAddCurrentTaskToDelayedList+0xd8>)
 8004852:	681b      	ldr	r3, [r3, #0]
 8004854:	3304      	adds	r3, #4
 8004856:	4619      	mov	r1, r3
 8004858:	4820      	ldr	r0, [pc, #128]	; (80048dc <prvAddCurrentTaskToDelayedList+0xe0>)
 800485a:	f7fe faff 	bl	8002e5c <vListInsertEnd>
 800485e:	e032      	b.n	80048c6 <prvAddCurrentTaskToDelayedList+0xca>
 8004860:	68fa      	ldr	r2, [r7, #12]
 8004862:	687b      	ldr	r3, [r7, #4]
 8004864:	4413      	add	r3, r2
 8004866:	60bb      	str	r3, [r7, #8]
 8004868:	4b1a      	ldr	r3, [pc, #104]	; (80048d4 <prvAddCurrentTaskToDelayedList+0xd8>)
 800486a:	681b      	ldr	r3, [r3, #0]
 800486c:	68ba      	ldr	r2, [r7, #8]
 800486e:	605a      	str	r2, [r3, #4]
 8004870:	68ba      	ldr	r2, [r7, #8]
 8004872:	68fb      	ldr	r3, [r7, #12]
 8004874:	429a      	cmp	r2, r3
 8004876:	d20f      	bcs.n	8004898 <prvAddCurrentTaskToDelayedList+0x9c>
 8004878:	4b16      	ldr	r3, [pc, #88]	; (80048d4 <prvAddCurrentTaskToDelayedList+0xd8>)
 800487a:	681b      	ldr	r3, [r3, #0]
 800487c:	2104      	movs	r1, #4
 800487e:	4618      	mov	r0, r3
 8004880:	f002 fb32 	bl	8006ee8 <SEGGER_SYSVIEW_OnTaskStopReady>
 8004884:	4b16      	ldr	r3, [pc, #88]	; (80048e0 <prvAddCurrentTaskToDelayedList+0xe4>)
 8004886:	681a      	ldr	r2, [r3, #0]
 8004888:	4b12      	ldr	r3, [pc, #72]	; (80048d4 <prvAddCurrentTaskToDelayedList+0xd8>)
 800488a:	681b      	ldr	r3, [r3, #0]
 800488c:	3304      	adds	r3, #4
 800488e:	4619      	mov	r1, r3
 8004890:	4610      	mov	r0, r2
 8004892:	f7fe fb07 	bl	8002ea4 <vListInsert>
 8004896:	e016      	b.n	80048c6 <prvAddCurrentTaskToDelayedList+0xca>
 8004898:	4b0e      	ldr	r3, [pc, #56]	; (80048d4 <prvAddCurrentTaskToDelayedList+0xd8>)
 800489a:	681b      	ldr	r3, [r3, #0]
 800489c:	2104      	movs	r1, #4
 800489e:	4618      	mov	r0, r3
 80048a0:	f002 fb22 	bl	8006ee8 <SEGGER_SYSVIEW_OnTaskStopReady>
 80048a4:	4b0f      	ldr	r3, [pc, #60]	; (80048e4 <prvAddCurrentTaskToDelayedList+0xe8>)
 80048a6:	681a      	ldr	r2, [r3, #0]
 80048a8:	4b0a      	ldr	r3, [pc, #40]	; (80048d4 <prvAddCurrentTaskToDelayedList+0xd8>)
 80048aa:	681b      	ldr	r3, [r3, #0]
 80048ac:	3304      	adds	r3, #4
 80048ae:	4619      	mov	r1, r3
 80048b0:	4610      	mov	r0, r2
 80048b2:	f7fe faf7 	bl	8002ea4 <vListInsert>
 80048b6:	4b0c      	ldr	r3, [pc, #48]	; (80048e8 <prvAddCurrentTaskToDelayedList+0xec>)
 80048b8:	681b      	ldr	r3, [r3, #0]
 80048ba:	68ba      	ldr	r2, [r7, #8]
 80048bc:	429a      	cmp	r2, r3
 80048be:	d202      	bcs.n	80048c6 <prvAddCurrentTaskToDelayedList+0xca>
 80048c0:	4a09      	ldr	r2, [pc, #36]	; (80048e8 <prvAddCurrentTaskToDelayedList+0xec>)
 80048c2:	68bb      	ldr	r3, [r7, #8]
 80048c4:	6013      	str	r3, [r2, #0]
 80048c6:	bf00      	nop
 80048c8:	3710      	adds	r7, #16
 80048ca:	46bd      	mov	sp, r7
 80048cc:	bd80      	pop	{r7, pc}
 80048ce:	bf00      	nop
 80048d0:	20000110 	.word	0x20000110
 80048d4:	20000034 	.word	0x20000034
 80048d8:	20000114 	.word	0x20000114
 80048dc:	200000f8 	.word	0x200000f8
 80048e0:	200000c8 	.word	0x200000c8
 80048e4:	200000c4 	.word	0x200000c4
 80048e8:	2000012c 	.word	0x2000012c

080048ec <xTimerCreateTimerTask>:
 80048ec:	b580      	push	{r7, lr}
 80048ee:	b084      	sub	sp, #16
 80048f0:	af02      	add	r7, sp, #8
 80048f2:	2300      	movs	r3, #0
 80048f4:	607b      	str	r3, [r7, #4]
 80048f6:	f000 fad1 	bl	8004e9c <prvCheckForValidListAndQueue>
 80048fa:	4b11      	ldr	r3, [pc, #68]	; (8004940 <xTimerCreateTimerTask+0x54>)
 80048fc:	681b      	ldr	r3, [r3, #0]
 80048fe:	2b00      	cmp	r3, #0
 8004900:	d00b      	beq.n	800491a <xTimerCreateTimerTask+0x2e>
 8004902:	4b10      	ldr	r3, [pc, #64]	; (8004944 <xTimerCreateTimerTask+0x58>)
 8004904:	9301      	str	r3, [sp, #4]
 8004906:	2302      	movs	r3, #2
 8004908:	9300      	str	r3, [sp, #0]
 800490a:	2300      	movs	r3, #0
 800490c:	f44f 7282 	mov.w	r2, #260	; 0x104
 8004910:	490d      	ldr	r1, [pc, #52]	; (8004948 <xTimerCreateTimerTask+0x5c>)
 8004912:	480e      	ldr	r0, [pc, #56]	; (800494c <xTimerCreateTimerTask+0x60>)
 8004914:	f7ff f87c 	bl	8003a10 <xTaskCreate>
 8004918:	6078      	str	r0, [r7, #4]
 800491a:	687b      	ldr	r3, [r7, #4]
 800491c:	2b00      	cmp	r3, #0
 800491e:	d109      	bne.n	8004934 <xTimerCreateTimerTask+0x48>
 8004920:	f04f 0350 	mov.w	r3, #80	; 0x50
 8004924:	f383 8811 	msr	BASEPRI, r3
 8004928:	f3bf 8f6f 	isb	sy
 800492c:	f3bf 8f4f 	dsb	sy
 8004930:	603b      	str	r3, [r7, #0]
 8004932:	e7fe      	b.n	8004932 <xTimerCreateTimerTask+0x46>
 8004934:	687b      	ldr	r3, [r7, #4]
 8004936:	4618      	mov	r0, r3
 8004938:	3708      	adds	r7, #8
 800493a:	46bd      	mov	sp, r7
 800493c:	bd80      	pop	{r7, pc}
 800493e:	bf00      	nop
 8004940:	20000168 	.word	0x20000168
 8004944:	2000016c 	.word	0x2000016c
 8004948:	08007330 	.word	0x08007330
 800494c:	08004a81 	.word	0x08004a81

08004950 <xTimerGenericCommand>:
 8004950:	b580      	push	{r7, lr}
 8004952:	b08a      	sub	sp, #40	; 0x28
 8004954:	af00      	add	r7, sp, #0
 8004956:	60f8      	str	r0, [r7, #12]
 8004958:	60b9      	str	r1, [r7, #8]
 800495a:	607a      	str	r2, [r7, #4]
 800495c:	603b      	str	r3, [r7, #0]
 800495e:	2300      	movs	r3, #0
 8004960:	627b      	str	r3, [r7, #36]	; 0x24
 8004962:	68fb      	ldr	r3, [r7, #12]
 8004964:	2b00      	cmp	r3, #0
 8004966:	d109      	bne.n	800497c <xTimerGenericCommand+0x2c>
 8004968:	f04f 0350 	mov.w	r3, #80	; 0x50
 800496c:	f383 8811 	msr	BASEPRI, r3
 8004970:	f3bf 8f6f 	isb	sy
 8004974:	f3bf 8f4f 	dsb	sy
 8004978:	623b      	str	r3, [r7, #32]
 800497a:	e7fe      	b.n	800497a <xTimerGenericCommand+0x2a>
 800497c:	4b19      	ldr	r3, [pc, #100]	; (80049e4 <xTimerGenericCommand+0x94>)
 800497e:	681b      	ldr	r3, [r3, #0]
 8004980:	2b00      	cmp	r3, #0
 8004982:	d02a      	beq.n	80049da <xTimerGenericCommand+0x8a>
 8004984:	68bb      	ldr	r3, [r7, #8]
 8004986:	617b      	str	r3, [r7, #20]
 8004988:	687b      	ldr	r3, [r7, #4]
 800498a:	61bb      	str	r3, [r7, #24]
 800498c:	68fb      	ldr	r3, [r7, #12]
 800498e:	61fb      	str	r3, [r7, #28]
 8004990:	68bb      	ldr	r3, [r7, #8]
 8004992:	2b05      	cmp	r3, #5
 8004994:	dc18      	bgt.n	80049c8 <xTimerGenericCommand+0x78>
 8004996:	f7ff fe95 	bl	80046c4 <xTaskGetSchedulerState>
 800499a:	4603      	mov	r3, r0
 800499c:	2b02      	cmp	r3, #2
 800499e:	d109      	bne.n	80049b4 <xTimerGenericCommand+0x64>
 80049a0:	4b10      	ldr	r3, [pc, #64]	; (80049e4 <xTimerGenericCommand+0x94>)
 80049a2:	6818      	ldr	r0, [r3, #0]
 80049a4:	f107 0114 	add.w	r1, r7, #20
 80049a8:	2300      	movs	r3, #0
 80049aa:	6b3a      	ldr	r2, [r7, #48]	; 0x30
 80049ac:	f7fe fbcc 	bl	8003148 <xQueueGenericSend>
 80049b0:	6278      	str	r0, [r7, #36]	; 0x24
 80049b2:	e012      	b.n	80049da <xTimerGenericCommand+0x8a>
 80049b4:	4b0b      	ldr	r3, [pc, #44]	; (80049e4 <xTimerGenericCommand+0x94>)
 80049b6:	6818      	ldr	r0, [r3, #0]
 80049b8:	f107 0114 	add.w	r1, r7, #20
 80049bc:	2300      	movs	r3, #0
 80049be:	2200      	movs	r2, #0
 80049c0:	f7fe fbc2 	bl	8003148 <xQueueGenericSend>
 80049c4:	6278      	str	r0, [r7, #36]	; 0x24
 80049c6:	e008      	b.n	80049da <xTimerGenericCommand+0x8a>
 80049c8:	4b06      	ldr	r3, [pc, #24]	; (80049e4 <xTimerGenericCommand+0x94>)
 80049ca:	6818      	ldr	r0, [r3, #0]
 80049cc:	f107 0114 	add.w	r1, r7, #20
 80049d0:	2300      	movs	r3, #0
 80049d2:	683a      	ldr	r2, [r7, #0]
 80049d4:	f7fe fcda 	bl	800338c <xQueueGenericSendFromISR>
 80049d8:	6278      	str	r0, [r7, #36]	; 0x24
 80049da:	6a7b      	ldr	r3, [r7, #36]	; 0x24
 80049dc:	4618      	mov	r0, r3
 80049de:	3728      	adds	r7, #40	; 0x28
 80049e0:	46bd      	mov	sp, r7
 80049e2:	bd80      	pop	{r7, pc}
 80049e4:	20000168 	.word	0x20000168

080049e8 <prvProcessExpiredTimer>:
 80049e8:	b580      	push	{r7, lr}
 80049ea:	b088      	sub	sp, #32
 80049ec:	af02      	add	r7, sp, #8
 80049ee:	6078      	str	r0, [r7, #4]
 80049f0:	6039      	str	r1, [r7, #0]
 80049f2:	4b22      	ldr	r3, [pc, #136]	; (8004a7c <prvProcessExpiredTimer+0x94>)
 80049f4:	681b      	ldr	r3, [r3, #0]
 80049f6:	68db      	ldr	r3, [r3, #12]
 80049f8:	68db      	ldr	r3, [r3, #12]
 80049fa:	617b      	str	r3, [r7, #20]
 80049fc:	697b      	ldr	r3, [r7, #20]
 80049fe:	3304      	adds	r3, #4
 8004a00:	4618      	mov	r0, r3
 8004a02:	f7fe fa88 	bl	8002f16 <uxListRemove>
 8004a06:	697b      	ldr	r3, [r7, #20]
 8004a08:	f893 3028 	ldrb.w	r3, [r3, #40]	; 0x28
 8004a0c:	f003 0304 	and.w	r3, r3, #4
 8004a10:	2b00      	cmp	r3, #0
 8004a12:	d021      	beq.n	8004a58 <prvProcessExpiredTimer+0x70>
 8004a14:	697b      	ldr	r3, [r7, #20]
 8004a16:	699a      	ldr	r2, [r3, #24]
 8004a18:	687b      	ldr	r3, [r7, #4]
 8004a1a:	18d1      	adds	r1, r2, r3
 8004a1c:	687b      	ldr	r3, [r7, #4]
 8004a1e:	683a      	ldr	r2, [r7, #0]
 8004a20:	6978      	ldr	r0, [r7, #20]
 8004a22:	f000 f8d1 	bl	8004bc8 <prvInsertTimerInActiveList>
 8004a26:	4603      	mov	r3, r0
 8004a28:	2b00      	cmp	r3, #0
 8004a2a:	d01e      	beq.n	8004a6a <prvProcessExpiredTimer+0x82>
 8004a2c:	2300      	movs	r3, #0
 8004a2e:	9300      	str	r3, [sp, #0]
 8004a30:	2300      	movs	r3, #0
 8004a32:	687a      	ldr	r2, [r7, #4]
 8004a34:	2100      	movs	r1, #0
 8004a36:	6978      	ldr	r0, [r7, #20]
 8004a38:	f7ff ff8a 	bl	8004950 <xTimerGenericCommand>
 8004a3c:	6138      	str	r0, [r7, #16]
 8004a3e:	693b      	ldr	r3, [r7, #16]
 8004a40:	2b00      	cmp	r3, #0
 8004a42:	d112      	bne.n	8004a6a <prvProcessExpiredTimer+0x82>
 8004a44:	f04f 0350 	mov.w	r3, #80	; 0x50
 8004a48:	f383 8811 	msr	BASEPRI, r3
 8004a4c:	f3bf 8f6f 	isb	sy
 8004a50:	f3bf 8f4f 	dsb	sy
 8004a54:	60fb      	str	r3, [r7, #12]
 8004a56:	e7fe      	b.n	8004a56 <prvProcessExpiredTimer+0x6e>
 8004a58:	697b      	ldr	r3, [r7, #20]
 8004a5a:	f893 3028 	ldrb.w	r3, [r3, #40]	; 0x28
 8004a5e:	f023 0301 	bic.w	r3, r3, #1
 8004a62:	b2da      	uxtb	r2, r3
 8004a64:	697b      	ldr	r3, [r7, #20]
 8004a66:	f883 2028 	strb.w	r2, [r3, #40]	; 0x28
 8004a6a:	697b      	ldr	r3, [r7, #20]
 8004a6c:	6a1b      	ldr	r3, [r3, #32]
 8004a6e:	6978      	ldr	r0, [r7, #20]
 8004a70:	4798      	blx	r3
 8004a72:	bf00      	nop
 8004a74:	3718      	adds	r7, #24
 8004a76:	46bd      	mov	sp, r7
 8004a78:	bd80      	pop	{r7, pc}
 8004a7a:	bf00      	nop
 8004a7c:	20000160 	.word	0x20000160

08004a80 <prvTimerTask>:
 8004a80:	b580      	push	{r7, lr}
 8004a82:	b084      	sub	sp, #16
 8004a84:	af00      	add	r7, sp, #0
 8004a86:	6078      	str	r0, [r7, #4]
 8004a88:	f107 0308 	add.w	r3, r7, #8
 8004a8c:	4618      	mov	r0, r3
 8004a8e:	f000 f857 	bl	8004b40 <prvGetNextExpireTime>
 8004a92:	60f8      	str	r0, [r7, #12]
 8004a94:	68bb      	ldr	r3, [r7, #8]
 8004a96:	4619      	mov	r1, r3
 8004a98:	68f8      	ldr	r0, [r7, #12]
 8004a9a:	f000 f803 	bl	8004aa4 <prvProcessTimerOrBlockTask>
 8004a9e:	f000 f8d5 	bl	8004c4c <prvProcessReceivedCommands>
 8004aa2:	e7f1      	b.n	8004a88 <prvTimerTask+0x8>

08004aa4 <prvProcessTimerOrBlockTask>:
 8004aa4:	b580      	push	{r7, lr}
 8004aa6:	b084      	sub	sp, #16
 8004aa8:	af00      	add	r7, sp, #0
 8004aaa:	6078      	str	r0, [r7, #4]
 8004aac:	6039      	str	r1, [r7, #0]
 8004aae:	f7ff fa27 	bl	8003f00 <vTaskSuspendAll>
 8004ab2:	f107 0308 	add.w	r3, r7, #8
 8004ab6:	4618      	mov	r0, r3
 8004ab8:	f000 f866 	bl	8004b88 <prvSampleTimeNow>
 8004abc:	60f8      	str	r0, [r7, #12]
 8004abe:	68bb      	ldr	r3, [r7, #8]
 8004ac0:	2b00      	cmp	r3, #0
 8004ac2:	d130      	bne.n	8004b26 <prvProcessTimerOrBlockTask+0x82>
 8004ac4:	683b      	ldr	r3, [r7, #0]
 8004ac6:	2b00      	cmp	r3, #0
 8004ac8:	d10a      	bne.n	8004ae0 <prvProcessTimerOrBlockTask+0x3c>
 8004aca:	687a      	ldr	r2, [r7, #4]
 8004acc:	68fb      	ldr	r3, [r7, #12]
 8004ace:	429a      	cmp	r2, r3
 8004ad0:	d806      	bhi.n	8004ae0 <prvProcessTimerOrBlockTask+0x3c>
 8004ad2:	f7ff fa23 	bl	8003f1c <xTaskResumeAll>
 8004ad6:	68f9      	ldr	r1, [r7, #12]
 8004ad8:	6878      	ldr	r0, [r7, #4]
 8004ada:	f7ff ff85 	bl	80049e8 <prvProcessExpiredTimer>
 8004ade:	e024      	b.n	8004b2a <prvProcessTimerOrBlockTask+0x86>
 8004ae0:	683b      	ldr	r3, [r7, #0]
 8004ae2:	2b00      	cmp	r3, #0
 8004ae4:	d008      	beq.n	8004af8 <prvProcessTimerOrBlockTask+0x54>
 8004ae6:	4b13      	ldr	r3, [pc, #76]	; (8004b34 <prvProcessTimerOrBlockTask+0x90>)
 8004ae8:	681b      	ldr	r3, [r3, #0]
 8004aea:	681b      	ldr	r3, [r3, #0]
 8004aec:	2b00      	cmp	r3, #0
 8004aee:	d101      	bne.n	8004af4 <prvProcessTimerOrBlockTask+0x50>
 8004af0:	2301      	movs	r3, #1
 8004af2:	e000      	b.n	8004af6 <prvProcessTimerOrBlockTask+0x52>
 8004af4:	2300      	movs	r3, #0
 8004af6:	603b      	str	r3, [r7, #0]
 8004af8:	4b0f      	ldr	r3, [pc, #60]	; (8004b38 <prvProcessTimerOrBlockTask+0x94>)
 8004afa:	6818      	ldr	r0, [r3, #0]
 8004afc:	687a      	ldr	r2, [r7, #4]
 8004afe:	68fb      	ldr	r3, [r7, #12]
 8004b00:	1ad3      	subs	r3, r2, r3
 8004b02:	683a      	ldr	r2, [r7, #0]
 8004b04:	4619      	mov	r1, r3
 8004b06:	f7fe ff4f 	bl	80039a8 <vQueueWaitForMessageRestricted>
 8004b0a:	f7ff fa07 	bl	8003f1c <xTaskResumeAll>
 8004b0e:	4603      	mov	r3, r0
 8004b10:	2b00      	cmp	r3, #0
 8004b12:	d10a      	bne.n	8004b2a <prvProcessTimerOrBlockTask+0x86>
 8004b14:	4b09      	ldr	r3, [pc, #36]	; (8004b3c <prvProcessTimerOrBlockTask+0x98>)
 8004b16:	f04f 5280 	mov.w	r2, #268435456	; 0x10000000
 8004b1a:	601a      	str	r2, [r3, #0]
 8004b1c:	f3bf 8f4f 	dsb	sy
 8004b20:	f3bf 8f6f 	isb	sy
 8004b24:	e001      	b.n	8004b2a <prvProcessTimerOrBlockTask+0x86>
 8004b26:	f7ff f9f9 	bl	8003f1c <xTaskResumeAll>
 8004b2a:	bf00      	nop
 8004b2c:	3710      	adds	r7, #16
 8004b2e:	46bd      	mov	sp, r7
 8004b30:	bd80      	pop	{r7, pc}
 8004b32:	bf00      	nop
 8004b34:	20000164 	.word	0x20000164
 8004b38:	20000168 	.word	0x20000168
 8004b3c:	e000ed04 	.word	0xe000ed04

08004b40 <prvGetNextExpireTime>:
 8004b40:	b480      	push	{r7}
 8004b42:	b085      	sub	sp, #20
 8004b44:	af00      	add	r7, sp, #0
 8004b46:	6078      	str	r0, [r7, #4]
 8004b48:	4b0e      	ldr	r3, [pc, #56]	; (8004b84 <prvGetNextExpireTime+0x44>)
 8004b4a:	681b      	ldr	r3, [r3, #0]
 8004b4c:	681b      	ldr	r3, [r3, #0]
 8004b4e:	2b00      	cmp	r3, #0
 8004b50:	d101      	bne.n	8004b56 <prvGetNextExpireTime+0x16>
 8004b52:	2201      	movs	r2, #1
 8004b54:	e000      	b.n	8004b58 <prvGetNextExpireTime+0x18>
 8004b56:	2200      	movs	r2, #0
 8004b58:	687b      	ldr	r3, [r7, #4]
 8004b5a:	601a      	str	r2, [r3, #0]
 8004b5c:	687b      	ldr	r3, [r7, #4]
 8004b5e:	681b      	ldr	r3, [r3, #0]
 8004b60:	2b00      	cmp	r3, #0
 8004b62:	d105      	bne.n	8004b70 <prvGetNextExpireTime+0x30>
 8004b64:	4b07      	ldr	r3, [pc, #28]	; (8004b84 <prvGetNextExpireTime+0x44>)
 8004b66:	681b      	ldr	r3, [r3, #0]
 8004b68:	68db      	ldr	r3, [r3, #12]
 8004b6a:	681b      	ldr	r3, [r3, #0]
 8004b6c:	60fb      	str	r3, [r7, #12]
 8004b6e:	e001      	b.n	8004b74 <prvGetNextExpireTime+0x34>
 8004b70:	2300      	movs	r3, #0
 8004b72:	60fb      	str	r3, [r7, #12]
 8004b74:	68fb      	ldr	r3, [r7, #12]
 8004b76:	4618      	mov	r0, r3
 8004b78:	3714      	adds	r7, #20
 8004b7a:	46bd      	mov	sp, r7
 8004b7c:	f85d 7b04 	ldr.w	r7, [sp], #4
 8004b80:	4770      	bx	lr
 8004b82:	bf00      	nop
 8004b84:	20000160 	.word	0x20000160

08004b88 <prvSampleTimeNow>:
 8004b88:	b580      	push	{r7, lr}
 8004b8a:	b084      	sub	sp, #16
 8004b8c:	af00      	add	r7, sp, #0
 8004b8e:	6078      	str	r0, [r7, #4]
 8004b90:	f7ff fa64 	bl	800405c <xTaskGetTickCount>
 8004b94:	60f8      	str	r0, [r7, #12]
 8004b96:	4b0b      	ldr	r3, [pc, #44]	; (8004bc4 <prvSampleTimeNow+0x3c>)
 8004b98:	681b      	ldr	r3, [r3, #0]
 8004b9a:	68fa      	ldr	r2, [r7, #12]
 8004b9c:	429a      	cmp	r2, r3
 8004b9e:	d205      	bcs.n	8004bac <prvSampleTimeNow+0x24>
 8004ba0:	f000 f918 	bl	8004dd4 <prvSwitchTimerLists>
 8004ba4:	687b      	ldr	r3, [r7, #4]
 8004ba6:	2201      	movs	r2, #1
 8004ba8:	601a      	str	r2, [r3, #0]
 8004baa:	e002      	b.n	8004bb2 <prvSampleTimeNow+0x2a>
 8004bac:	687b      	ldr	r3, [r7, #4]
 8004bae:	2200      	movs	r2, #0
 8004bb0:	601a      	str	r2, [r3, #0]
 8004bb2:	4a04      	ldr	r2, [pc, #16]	; (8004bc4 <prvSampleTimeNow+0x3c>)
 8004bb4:	68fb      	ldr	r3, [r7, #12]
 8004bb6:	6013      	str	r3, [r2, #0]
 8004bb8:	68fb      	ldr	r3, [r7, #12]
 8004bba:	4618      	mov	r0, r3
 8004bbc:	3710      	adds	r7, #16
 8004bbe:	46bd      	mov	sp, r7
 8004bc0:	bd80      	pop	{r7, pc}
 8004bc2:	bf00      	nop
 8004bc4:	20000170 	.word	0x20000170

08004bc8 <prvInsertTimerInActiveList>:
 8004bc8:	b580      	push	{r7, lr}
 8004bca:	b086      	sub	sp, #24
 8004bcc:	af00      	add	r7, sp, #0
 8004bce:	60f8      	str	r0, [r7, #12]
 8004bd0:	60b9      	str	r1, [r7, #8]
 8004bd2:	607a      	str	r2, [r7, #4]
 8004bd4:	603b      	str	r3, [r7, #0]
 8004bd6:	2300      	movs	r3, #0
 8004bd8:	617b      	str	r3, [r7, #20]
 8004bda:	68fb      	ldr	r3, [r7, #12]
 8004bdc:	68ba      	ldr	r2, [r7, #8]
 8004bde:	605a      	str	r2, [r3, #4]
 8004be0:	68fb      	ldr	r3, [r7, #12]
 8004be2:	68fa      	ldr	r2, [r7, #12]
 8004be4:	611a      	str	r2, [r3, #16]
 8004be6:	68ba      	ldr	r2, [r7, #8]
 8004be8:	687b      	ldr	r3, [r7, #4]
 8004bea:	429a      	cmp	r2, r3
 8004bec:	d812      	bhi.n	8004c14 <prvInsertTimerInActiveList+0x4c>
 8004bee:	687a      	ldr	r2, [r7, #4]
 8004bf0:	683b      	ldr	r3, [r7, #0]
 8004bf2:	1ad2      	subs	r2, r2, r3
 8004bf4:	68fb      	ldr	r3, [r7, #12]
 8004bf6:	699b      	ldr	r3, [r3, #24]
 8004bf8:	429a      	cmp	r2, r3
 8004bfa:	d302      	bcc.n	8004c02 <prvInsertTimerInActiveList+0x3a>
 8004bfc:	2301      	movs	r3, #1
 8004bfe:	617b      	str	r3, [r7, #20]
 8004c00:	e01b      	b.n	8004c3a <prvInsertTimerInActiveList+0x72>
 8004c02:	4b10      	ldr	r3, [pc, #64]	; (8004c44 <prvInsertTimerInActiveList+0x7c>)
 8004c04:	681a      	ldr	r2, [r3, #0]
 8004c06:	68fb      	ldr	r3, [r7, #12]
 8004c08:	3304      	adds	r3, #4
 8004c0a:	4619      	mov	r1, r3
 8004c0c:	4610      	mov	r0, r2
 8004c0e:	f7fe f949 	bl	8002ea4 <vListInsert>
 8004c12:	e012      	b.n	8004c3a <prvInsertTimerInActiveList+0x72>
 8004c14:	687a      	ldr	r2, [r7, #4]
 8004c16:	683b      	ldr	r3, [r7, #0]
 8004c18:	429a      	cmp	r2, r3
 8004c1a:	d206      	bcs.n	8004c2a <prvInsertTimerInActiveList+0x62>
 8004c1c:	68ba      	ldr	r2, [r7, #8]
 8004c1e:	683b      	ldr	r3, [r7, #0]
 8004c20:	429a      	cmp	r2, r3
 8004c22:	d302      	bcc.n	8004c2a <prvInsertTimerInActiveList+0x62>
 8004c24:	2301      	movs	r3, #1
 8004c26:	617b      	str	r3, [r7, #20]
 8004c28:	e007      	b.n	8004c3a <prvInsertTimerInActiveList+0x72>
 8004c2a:	4b07      	ldr	r3, [pc, #28]	; (8004c48 <prvInsertTimerInActiveList+0x80>)
 8004c2c:	681a      	ldr	r2, [r3, #0]
 8004c2e:	68fb      	ldr	r3, [r7, #12]
 8004c30:	3304      	adds	r3, #4
 8004c32:	4619      	mov	r1, r3
 8004c34:	4610      	mov	r0, r2
 8004c36:	f7fe f935 	bl	8002ea4 <vListInsert>
 8004c3a:	697b      	ldr	r3, [r7, #20]
 8004c3c:	4618      	mov	r0, r3
 8004c3e:	3718      	adds	r7, #24
 8004c40:	46bd      	mov	sp, r7
 8004c42:	bd80      	pop	{r7, pc}
 8004c44:	20000164 	.word	0x20000164
 8004c48:	20000160 	.word	0x20000160

08004c4c <prvProcessReceivedCommands>:
 8004c4c:	b580      	push	{r7, lr}
 8004c4e:	b08c      	sub	sp, #48	; 0x30
 8004c50:	af02      	add	r7, sp, #8
 8004c52:	e0ac      	b.n	8004dae <prvProcessReceivedCommands+0x162>
 8004c54:	68bb      	ldr	r3, [r7, #8]
 8004c56:	2b00      	cmp	r3, #0
 8004c58:	f2c0 80a8 	blt.w	8004dac <prvProcessReceivedCommands+0x160>
 8004c5c:	693b      	ldr	r3, [r7, #16]
 8004c5e:	627b      	str	r3, [r7, #36]	; 0x24
 8004c60:	6a7b      	ldr	r3, [r7, #36]	; 0x24
 8004c62:	695b      	ldr	r3, [r3, #20]
 8004c64:	2b00      	cmp	r3, #0
 8004c66:	d004      	beq.n	8004c72 <prvProcessReceivedCommands+0x26>
 8004c68:	6a7b      	ldr	r3, [r7, #36]	; 0x24
 8004c6a:	3304      	adds	r3, #4
 8004c6c:	4618      	mov	r0, r3
 8004c6e:	f7fe f952 	bl	8002f16 <uxListRemove>
 8004c72:	1d3b      	adds	r3, r7, #4
 8004c74:	4618      	mov	r0, r3
 8004c76:	f7ff ff87 	bl	8004b88 <prvSampleTimeNow>
 8004c7a:	6238      	str	r0, [r7, #32]
 8004c7c:	68bb      	ldr	r3, [r7, #8]
 8004c7e:	2b09      	cmp	r3, #9
 8004c80:	f200 8095 	bhi.w	8004dae <prvProcessReceivedCommands+0x162>
 8004c84:	a201      	add	r2, pc, #4	; (adr r2, 8004c8c <prvProcessReceivedCommands+0x40>)
 8004c86:	f852 f023 	ldr.w	pc, [r2, r3, lsl #2]
 8004c8a:	bf00      	nop
 8004c8c:	08004cb5 	.word	0x08004cb5
 8004c90:	08004cb5 	.word	0x08004cb5
 8004c94:	08004cb5 	.word	0x08004cb5
 8004c98:	08004d27 	.word	0x08004d27
 8004c9c:	08004d3b 	.word	0x08004d3b
 8004ca0:	08004d83 	.word	0x08004d83
 8004ca4:	08004cb5 	.word	0x08004cb5
 8004ca8:	08004cb5 	.word	0x08004cb5
 8004cac:	08004d27 	.word	0x08004d27
 8004cb0:	08004d3b 	.word	0x08004d3b
 8004cb4:	6a7b      	ldr	r3, [r7, #36]	; 0x24
 8004cb6:	f893 3028 	ldrb.w	r3, [r3, #40]	; 0x28
 8004cba:	f043 0301 	orr.w	r3, r3, #1
 8004cbe:	b2da      	uxtb	r2, r3
 8004cc0:	6a7b      	ldr	r3, [r7, #36]	; 0x24
 8004cc2:	f883 2028 	strb.w	r2, [r3, #40]	; 0x28
 8004cc6:	68fa      	ldr	r2, [r7, #12]
 8004cc8:	6a7b      	ldr	r3, [r7, #36]	; 0x24
 8004cca:	699b      	ldr	r3, [r3, #24]
 8004ccc:	18d1      	adds	r1, r2, r3
 8004cce:	68fb      	ldr	r3, [r7, #12]
 8004cd0:	6a3a      	ldr	r2, [r7, #32]
 8004cd2:	6a78      	ldr	r0, [r7, #36]	; 0x24
 8004cd4:	f7ff ff78 	bl	8004bc8 <prvInsertTimerInActiveList>
 8004cd8:	4603      	mov	r3, r0
 8004cda:	2b00      	cmp	r3, #0
 8004cdc:	d067      	beq.n	8004dae <prvProcessReceivedCommands+0x162>
 8004cde:	6a7b      	ldr	r3, [r7, #36]	; 0x24
 8004ce0:	6a1b      	ldr	r3, [r3, #32]
 8004ce2:	6a78      	ldr	r0, [r7, #36]	; 0x24
 8004ce4:	4798      	blx	r3
 8004ce6:	6a7b      	ldr	r3, [r7, #36]	; 0x24
 8004ce8:	f893 3028 	ldrb.w	r3, [r3, #40]	; 0x28
 8004cec:	f003 0304 	and.w	r3, r3, #4
 8004cf0:	2b00      	cmp	r3, #0
 8004cf2:	d05c      	beq.n	8004dae <prvProcessReceivedCommands+0x162>
 8004cf4:	68fa      	ldr	r2, [r7, #12]
 8004cf6:	6a7b      	ldr	r3, [r7, #36]	; 0x24
 8004cf8:	699b      	ldr	r3, [r3, #24]
 8004cfa:	441a      	add	r2, r3
 8004cfc:	2300      	movs	r3, #0
 8004cfe:	9300      	str	r3, [sp, #0]
 8004d00:	2300      	movs	r3, #0
 8004d02:	2100      	movs	r1, #0
 8004d04:	6a78      	ldr	r0, [r7, #36]	; 0x24
 8004d06:	f7ff fe23 	bl	8004950 <xTimerGenericCommand>
 8004d0a:	61f8      	str	r0, [r7, #28]
 8004d0c:	69fb      	ldr	r3, [r7, #28]
 8004d0e:	2b00      	cmp	r3, #0
 8004d10:	d14d      	bne.n	8004dae <prvProcessReceivedCommands+0x162>
 8004d12:	f04f 0350 	mov.w	r3, #80	; 0x50
 8004d16:	f383 8811 	msr	BASEPRI, r3
 8004d1a:	f3bf 8f6f 	isb	sy
 8004d1e:	f3bf 8f4f 	dsb	sy
 8004d22:	61bb      	str	r3, [r7, #24]
 8004d24:	e7fe      	b.n	8004d24 <prvProcessReceivedCommands+0xd8>
 8004d26:	6a7b      	ldr	r3, [r7, #36]	; 0x24
 8004d28:	f893 3028 	ldrb.w	r3, [r3, #40]	; 0x28
 8004d2c:	f023 0301 	bic.w	r3, r3, #1
 8004d30:	b2da      	uxtb	r2, r3
 8004d32:	6a7b      	ldr	r3, [r7, #36]	; 0x24
 8004d34:	f883 2028 	strb.w	r2, [r3, #40]	; 0x28
 8004d38:	e039      	b.n	8004dae <prvProcessReceivedCommands+0x162>
 8004d3a:	6a7b      	ldr	r3, [r7, #36]	; 0x24
 8004d3c:	f893 3028 	ldrb.w	r3, [r3, #40]	; 0x28
 8004d40:	f043 0301 	orr.w	r3, r3, #1
 8004d44:	b2da      	uxtb	r2, r3
 8004d46:	6a7b      	ldr	r3, [r7, #36]	; 0x24
 8004d48:	f883 2028 	strb.w	r2, [r3, #40]	; 0x28
 8004d4c:	68fa      	ldr	r2, [r7, #12]
 8004d4e:	6a7b      	ldr	r3, [r7, #36]	; 0x24
 8004d50:	619a      	str	r2, [r3, #24]
 8004d52:	6a7b      	ldr	r3, [r7, #36]	; 0x24
 8004d54:	699b      	ldr	r3, [r3, #24]
 8004d56:	2b00      	cmp	r3, #0
 8004d58:	d109      	bne.n	8004d6e <prvProcessReceivedCommands+0x122>
 8004d5a:	f04f 0350 	mov.w	r3, #80	; 0x50
 8004d5e:	f383 8811 	msr	BASEPRI, r3
 8004d62:	f3bf 8f6f 	isb	sy
 8004d66:	f3bf 8f4f 	dsb	sy
 8004d6a:	617b      	str	r3, [r7, #20]
 8004d6c:	e7fe      	b.n	8004d6c <prvProcessReceivedCommands+0x120>
 8004d6e:	6a7b      	ldr	r3, [r7, #36]	; 0x24
 8004d70:	699a      	ldr	r2, [r3, #24]
 8004d72:	6a3b      	ldr	r3, [r7, #32]
 8004d74:	18d1      	adds	r1, r2, r3
 8004d76:	6a3b      	ldr	r3, [r7, #32]
 8004d78:	6a3a      	ldr	r2, [r7, #32]
 8004d7a:	6a78      	ldr	r0, [r7, #36]	; 0x24
 8004d7c:	f7ff ff24 	bl	8004bc8 <prvInsertTimerInActiveList>
 8004d80:	e015      	b.n	8004dae <prvProcessReceivedCommands+0x162>
 8004d82:	6a7b      	ldr	r3, [r7, #36]	; 0x24
 8004d84:	f893 3028 	ldrb.w	r3, [r3, #40]	; 0x28
 8004d88:	f003 0302 	and.w	r3, r3, #2
 8004d8c:	2b00      	cmp	r3, #0
 8004d8e:	d103      	bne.n	8004d98 <prvProcessReceivedCommands+0x14c>
 8004d90:	6a78      	ldr	r0, [r7, #36]	; 0x24
 8004d92:	f000 fc5b 	bl	800564c <vPortFree>
 8004d96:	e00a      	b.n	8004dae <prvProcessReceivedCommands+0x162>
 8004d98:	6a7b      	ldr	r3, [r7, #36]	; 0x24
 8004d9a:	f893 3028 	ldrb.w	r3, [r3, #40]	; 0x28
 8004d9e:	f023 0301 	bic.w	r3, r3, #1
 8004da2:	b2da      	uxtb	r2, r3
 8004da4:	6a7b      	ldr	r3, [r7, #36]	; 0x24
 8004da6:	f883 2028 	strb.w	r2, [r3, #40]	; 0x28
 8004daa:	e000      	b.n	8004dae <prvProcessReceivedCommands+0x162>
 8004dac:	bf00      	nop
 8004dae:	4b08      	ldr	r3, [pc, #32]	; (8004dd0 <prvProcessReceivedCommands+0x184>)
 8004db0:	681b      	ldr	r3, [r3, #0]
 8004db2:	f107 0108 	add.w	r1, r7, #8
 8004db6:	2200      	movs	r2, #0
 8004db8:	4618      	mov	r0, r3
 8004dba:	f7fe fba1 	bl	8003500 <xQueueReceive>
 8004dbe:	4603      	mov	r3, r0
 8004dc0:	2b00      	cmp	r3, #0
 8004dc2:	f47f af47 	bne.w	8004c54 <prvProcessReceivedCommands+0x8>
 8004dc6:	bf00      	nop
 8004dc8:	3728      	adds	r7, #40	; 0x28
 8004dca:	46bd      	mov	sp, r7
 8004dcc:	bd80      	pop	{r7, pc}
 8004dce:	bf00      	nop
 8004dd0:	20000168 	.word	0x20000168

08004dd4 <prvSwitchTimerLists>:
 8004dd4:	b580      	push	{r7, lr}
 8004dd6:	b088      	sub	sp, #32
 8004dd8:	af02      	add	r7, sp, #8
 8004dda:	e047      	b.n	8004e6c <prvSwitchTimerLists+0x98>
 8004ddc:	4b2d      	ldr	r3, [pc, #180]	; (8004e94 <prvSwitchTimerLists+0xc0>)
 8004dde:	681b      	ldr	r3, [r3, #0]
 8004de0:	68db      	ldr	r3, [r3, #12]
 8004de2:	681b      	ldr	r3, [r3, #0]
 8004de4:	613b      	str	r3, [r7, #16]
 8004de6:	4b2b      	ldr	r3, [pc, #172]	; (8004e94 <prvSwitchTimerLists+0xc0>)
 8004de8:	681b      	ldr	r3, [r3, #0]
 8004dea:	68db      	ldr	r3, [r3, #12]
 8004dec:	68db      	ldr	r3, [r3, #12]
 8004dee:	60fb      	str	r3, [r7, #12]
 8004df0:	68fb      	ldr	r3, [r7, #12]
 8004df2:	3304      	adds	r3, #4
 8004df4:	4618      	mov	r0, r3
 8004df6:	f7fe f88e 	bl	8002f16 <uxListRemove>
 8004dfa:	68fb      	ldr	r3, [r7, #12]
 8004dfc:	6a1b      	ldr	r3, [r3, #32]
 8004dfe:	68f8      	ldr	r0, [r7, #12]
 8004e00:	4798      	blx	r3
 8004e02:	68fb      	ldr	r3, [r7, #12]
 8004e04:	f893 3028 	ldrb.w	r3, [r3, #40]	; 0x28
 8004e08:	f003 0304 	and.w	r3, r3, #4
 8004e0c:	2b00      	cmp	r3, #0
 8004e0e:	d02d      	beq.n	8004e6c <prvSwitchTimerLists+0x98>
 8004e10:	68fb      	ldr	r3, [r7, #12]
 8004e12:	699b      	ldr	r3, [r3, #24]
 8004e14:	693a      	ldr	r2, [r7, #16]
 8004e16:	4413      	add	r3, r2
 8004e18:	60bb      	str	r3, [r7, #8]
 8004e1a:	68ba      	ldr	r2, [r7, #8]
 8004e1c:	693b      	ldr	r3, [r7, #16]
 8004e1e:	429a      	cmp	r2, r3
 8004e20:	d90e      	bls.n	8004e40 <prvSwitchTimerLists+0x6c>
 8004e22:	68fb      	ldr	r3, [r7, #12]
 8004e24:	68ba      	ldr	r2, [r7, #8]
 8004e26:	605a      	str	r2, [r3, #4]
 8004e28:	68fb      	ldr	r3, [r7, #12]
 8004e2a:	68fa      	ldr	r2, [r7, #12]
 8004e2c:	611a      	str	r2, [r3, #16]
 8004e2e:	4b19      	ldr	r3, [pc, #100]	; (8004e94 <prvSwitchTimerLists+0xc0>)
 8004e30:	681a      	ldr	r2, [r3, #0]
 8004e32:	68fb      	ldr	r3, [r7, #12]
 8004e34:	3304      	adds	r3, #4
 8004e36:	4619      	mov	r1, r3
 8004e38:	4610      	mov	r0, r2
 8004e3a:	f7fe f833 	bl	8002ea4 <vListInsert>
 8004e3e:	e015      	b.n	8004e6c <prvSwitchTimerLists+0x98>
 8004e40:	2300      	movs	r3, #0
 8004e42:	9300      	str	r3, [sp, #0]
 8004e44:	2300      	movs	r3, #0
 8004e46:	693a      	ldr	r2, [r7, #16]
 8004e48:	2100      	movs	r1, #0
 8004e4a:	68f8      	ldr	r0, [r7, #12]
 8004e4c:	f7ff fd80 	bl	8004950 <xTimerGenericCommand>
 8004e50:	6078      	str	r0, [r7, #4]
 8004e52:	687b      	ldr	r3, [r7, #4]
 8004e54:	2b00      	cmp	r3, #0
 8004e56:	d109      	bne.n	8004e6c <prvSwitchTimerLists+0x98>
 8004e58:	f04f 0350 	mov.w	r3, #80	; 0x50
 8004e5c:	f383 8811 	msr	BASEPRI, r3
 8004e60:	f3bf 8f6f 	isb	sy
 8004e64:	f3bf 8f4f 	dsb	sy
 8004e68:	603b      	str	r3, [r7, #0]
 8004e6a:	e7fe      	b.n	8004e6a <prvSwitchTimerLists+0x96>
 8004e6c:	4b09      	ldr	r3, [pc, #36]	; (8004e94 <prvSwitchTimerLists+0xc0>)
 8004e6e:	681b      	ldr	r3, [r3, #0]
 8004e70:	681b      	ldr	r3, [r3, #0]
 8004e72:	2b00      	cmp	r3, #0
 8004e74:	d1b2      	bne.n	8004ddc <prvSwitchTimerLists+0x8>
 8004e76:	4b07      	ldr	r3, [pc, #28]	; (8004e94 <prvSwitchTimerLists+0xc0>)
 8004e78:	681b      	ldr	r3, [r3, #0]
 8004e7a:	617b      	str	r3, [r7, #20]
 8004e7c:	4b06      	ldr	r3, [pc, #24]	; (8004e98 <prvSwitchTimerLists+0xc4>)
 8004e7e:	681b      	ldr	r3, [r3, #0]
 8004e80:	4a04      	ldr	r2, [pc, #16]	; (8004e94 <prvSwitchTimerLists+0xc0>)
 8004e82:	6013      	str	r3, [r2, #0]
 8004e84:	4a04      	ldr	r2, [pc, #16]	; (8004e98 <prvSwitchTimerLists+0xc4>)
 8004e86:	697b      	ldr	r3, [r7, #20]
 8004e88:	6013      	str	r3, [r2, #0]
 8004e8a:	bf00      	nop
 8004e8c:	3718      	adds	r7, #24
 8004e8e:	46bd      	mov	sp, r7
 8004e90:	bd80      	pop	{r7, pc}
 8004e92:	bf00      	nop
 8004e94:	20000160 	.word	0x20000160
 8004e98:	20000164 	.word	0x20000164

08004e9c <prvCheckForValidListAndQueue>:
 8004e9c:	b580      	push	{r7, lr}
 8004e9e:	af00      	add	r7, sp, #0
 8004ea0:	f000 f9d8 	bl	8005254 <vPortEnterCritical>
 8004ea4:	4b12      	ldr	r3, [pc, #72]	; (8004ef0 <prvCheckForValidListAndQueue+0x54>)
 8004ea6:	681b      	ldr	r3, [r3, #0]
 8004ea8:	2b00      	cmp	r3, #0
 8004eaa:	d11d      	bne.n	8004ee8 <prvCheckForValidListAndQueue+0x4c>
 8004eac:	4811      	ldr	r0, [pc, #68]	; (8004ef4 <prvCheckForValidListAndQueue+0x58>)
 8004eae:	f7fd ffa8 	bl	8002e02 <vListInitialise>
 8004eb2:	4811      	ldr	r0, [pc, #68]	; (8004ef8 <prvCheckForValidListAndQueue+0x5c>)
 8004eb4:	f7fd ffa5 	bl	8002e02 <vListInitialise>
 8004eb8:	4b10      	ldr	r3, [pc, #64]	; (8004efc <prvCheckForValidListAndQueue+0x60>)
 8004eba:	4a0e      	ldr	r2, [pc, #56]	; (8004ef4 <prvCheckForValidListAndQueue+0x58>)
 8004ebc:	601a      	str	r2, [r3, #0]
 8004ebe:	4b10      	ldr	r3, [pc, #64]	; (8004f00 <prvCheckForValidListAndQueue+0x64>)
 8004ec0:	4a0d      	ldr	r2, [pc, #52]	; (8004ef8 <prvCheckForValidListAndQueue+0x5c>)
 8004ec2:	601a      	str	r2, [r3, #0]
 8004ec4:	2200      	movs	r2, #0
 8004ec6:	210c      	movs	r1, #12
 8004ec8:	200a      	movs	r0, #10
 8004eca:	f7fe f8b7 	bl	800303c <xQueueGenericCreate>
 8004ece:	4602      	mov	r2, r0
 8004ed0:	4b07      	ldr	r3, [pc, #28]	; (8004ef0 <prvCheckForValidListAndQueue+0x54>)
 8004ed2:	601a      	str	r2, [r3, #0]
 8004ed4:	4b06      	ldr	r3, [pc, #24]	; (8004ef0 <prvCheckForValidListAndQueue+0x54>)
 8004ed6:	681b      	ldr	r3, [r3, #0]
 8004ed8:	2b00      	cmp	r3, #0
 8004eda:	d005      	beq.n	8004ee8 <prvCheckForValidListAndQueue+0x4c>
 8004edc:	4b04      	ldr	r3, [pc, #16]	; (8004ef0 <prvCheckForValidListAndQueue+0x54>)
 8004ede:	681b      	ldr	r3, [r3, #0]
 8004ee0:	4908      	ldr	r1, [pc, #32]	; (8004f04 <prvCheckForValidListAndQueue+0x68>)
 8004ee2:	4618      	mov	r0, r3
 8004ee4:	f7fe fd30 	bl	8003948 <vQueueAddToRegistry>
 8004ee8:	f000 f9e2 	bl	80052b0 <vPortExitCritical>
 8004eec:	bf00      	nop
 8004eee:	bd80      	pop	{r7, pc}
 8004ef0:	20000168 	.word	0x20000168
 8004ef4:	20000138 	.word	0x20000138
 8004ef8:	2000014c 	.word	0x2000014c
 8004efc:	20000160 	.word	0x20000160
 8004f00:	20000164 	.word	0x20000164
 8004f04:	08007338 	.word	0x08007338

08004f08 <pxPortInitialiseStack>:
 8004f08:	b480      	push	{r7}
 8004f0a:	b085      	sub	sp, #20
 8004f0c:	af00      	add	r7, sp, #0
 8004f0e:	60f8      	str	r0, [r7, #12]
 8004f10:	60b9      	str	r1, [r7, #8]
 8004f12:	607a      	str	r2, [r7, #4]
 8004f14:	68fb      	ldr	r3, [r7, #12]
 8004f16:	3b04      	subs	r3, #4
 8004f18:	60fb      	str	r3, [r7, #12]
 8004f1a:	68fb      	ldr	r3, [r7, #12]
 8004f1c:	f04f 7280 	mov.w	r2, #16777216	; 0x1000000
 8004f20:	601a      	str	r2, [r3, #0]
 8004f22:	68fb      	ldr	r3, [r7, #12]
 8004f24:	3b04      	subs	r3, #4
 8004f26:	60fb      	str	r3, [r7, #12]
 8004f28:	68bb      	ldr	r3, [r7, #8]
 8004f2a:	f023 0201 	bic.w	r2, r3, #1
 8004f2e:	68fb      	ldr	r3, [r7, #12]
 8004f30:	601a      	str	r2, [r3, #0]
 8004f32:	68fb      	ldr	r3, [r7, #12]
 8004f34:	3b04      	subs	r3, #4
 8004f36:	60fb      	str	r3, [r7, #12]
 8004f38:	4a0c      	ldr	r2, [pc, #48]	; (8004f6c <pxPortInitialiseStack+0x64>)
 8004f3a:	68fb      	ldr	r3, [r7, #12]
 8004f3c:	601a      	str	r2, [r3, #0]
 8004f3e:	68fb      	ldr	r3, [r7, #12]
 8004f40:	3b14      	subs	r3, #20
 8004f42:	60fb      	str	r3, [r7, #12]
 8004f44:	687a      	ldr	r2, [r7, #4]
 8004f46:	68fb      	ldr	r3, [r7, #12]
 8004f48:	601a      	str	r2, [r3, #0]
 8004f4a:	68fb      	ldr	r3, [r7, #12]
 8004f4c:	3b04      	subs	r3, #4
 8004f4e:	60fb      	str	r3, [r7, #12]
 8004f50:	68fb      	ldr	r3, [r7, #12]
 8004f52:	f06f 0202 	mvn.w	r2, #2
 8004f56:	601a      	str	r2, [r3, #0]
 8004f58:	68fb      	ldr	r3, [r7, #12]
 8004f5a:	3b20      	subs	r3, #32
 8004f5c:	60fb      	str	r3, [r7, #12]
 8004f5e:	68fb      	ldr	r3, [r7, #12]
 8004f60:	4618      	mov	r0, r3
 8004f62:	3714      	adds	r7, #20
 8004f64:	46bd      	mov	sp, r7
 8004f66:	f85d 7b04 	ldr.w	r7, [sp], #4
 8004f6a:	4770      	bx	lr
 8004f6c:	08004f71 	.word	0x08004f71

08004f70 <prvTaskExitError>:
 8004f70:	b480      	push	{r7}
 8004f72:	b085      	sub	sp, #20
 8004f74:	af00      	add	r7, sp, #0
 8004f76:	2300      	movs	r3, #0
 8004f78:	607b      	str	r3, [r7, #4]
 8004f7a:	4b11      	ldr	r3, [pc, #68]	; (8004fc0 <prvTaskExitError+0x50>)
 8004f7c:	681b      	ldr	r3, [r3, #0]
 8004f7e:	f1b3 3fff 	cmp.w	r3, #4294967295
 8004f82:	d009      	beq.n	8004f98 <prvTaskExitError+0x28>
 8004f84:	f04f 0350 	mov.w	r3, #80	; 0x50
 8004f88:	f383 8811 	msr	BASEPRI, r3
 8004f8c:	f3bf 8f6f 	isb	sy
 8004f90:	f3bf 8f4f 	dsb	sy
 8004f94:	60fb      	str	r3, [r7, #12]
 8004f96:	e7fe      	b.n	8004f96 <prvTaskExitError+0x26>
 8004f98:	f04f 0350 	mov.w	r3, #80	; 0x50
 8004f9c:	f383 8811 	msr	BASEPRI, r3
 8004fa0:	f3bf 8f6f 	isb	sy
 8004fa4:	f3bf 8f4f 	dsb	sy
 8004fa8:	60bb      	str	r3, [r7, #8]
 8004faa:	bf00      	nop
 8004fac:	687b      	ldr	r3, [r7, #4]
 8004fae:	2b00      	cmp	r3, #0
 8004fb0:	d0fc      	beq.n	8004fac <prvTaskExitError+0x3c>
 8004fb2:	bf00      	nop
 8004fb4:	3714      	adds	r7, #20
 8004fb6:	46bd      	mov	sp, r7
 8004fb8:	f85d 7b04 	ldr.w	r7, [sp], #4
 8004fbc:	4770      	bx	lr
 8004fbe:	bf00      	nop
 8004fc0:	20000010 	.word	0x20000010
	...

08004fd0 <SVC_Handler>:
 8004fd0:	4b07      	ldr	r3, [pc, #28]	; (8004ff0 <pxCurrentTCBConst2>)
 8004fd2:	6819      	ldr	r1, [r3, #0]
 8004fd4:	6808      	ldr	r0, [r1, #0]
 8004fd6:	e8b0 4ff0 	ldmia.w	r0!, {r4, r5, r6, r7, r8, r9, sl, fp, lr}
 8004fda:	f380 8809 	msr	PSP, r0
 8004fde:	f3bf 8f6f 	isb	sy
 8004fe2:	f04f 0000 	mov.w	r0, #0
 8004fe6:	f380 8811 	msr	BASEPRI, r0
 8004fea:	4770      	bx	lr
 8004fec:	f3af 8000 	nop.w

08004ff0 <pxCurrentTCBConst2>:
 8004ff0:	20000034 	.word	0x20000034
 8004ff4:	bf00      	nop
 8004ff6:	bf00      	nop

08004ff8 <prvPortStartFirstTask>:
 8004ff8:	4808      	ldr	r0, [pc, #32]	; (800501c <prvPortStartFirstTask+0x24>)
 8004ffa:	6800      	ldr	r0, [r0, #0]
 8004ffc:	6800      	ldr	r0, [r0, #0]
 8004ffe:	f380 8808 	msr	MSP, r0
 8005002:	f04f 0000 	mov.w	r0, #0
 8005006:	f380 8814 	msr	CONTROL, r0
 800500a:	b662      	cpsie	i
 800500c:	b661      	cpsie	f
 800500e:	f3bf 8f4f 	dsb	sy
 8005012:	f3bf 8f6f 	isb	sy
 8005016:	df00      	svc	0
 8005018:	bf00      	nop
 800501a:	0000      	.short	0x0000
 800501c:	e000ed08 	.word	0xe000ed08
 8005020:	bf00      	nop
 8005022:	bf00      	nop

08005024 <xPortStartScheduler>:
 8005024:	b580      	push	{r7, lr}
 8005026:	b086      	sub	sp, #24
 8005028:	af00      	add	r7, sp, #0
 800502a:	4b44      	ldr	r3, [pc, #272]	; (800513c <xPortStartScheduler+0x118>)
 800502c:	681b      	ldr	r3, [r3, #0]
 800502e:	4a44      	ldr	r2, [pc, #272]	; (8005140 <xPortStartScheduler+0x11c>)
 8005030:	4293      	cmp	r3, r2
 8005032:	d109      	bne.n	8005048 <xPortStartScheduler+0x24>
 8005034:	f04f 0350 	mov.w	r3, #80	; 0x50
 8005038:	f383 8811 	msr	BASEPRI, r3
 800503c:	f3bf 8f6f 	isb	sy
 8005040:	f3bf 8f4f 	dsb	sy
 8005044:	613b      	str	r3, [r7, #16]
 8005046:	e7fe      	b.n	8005046 <xPortStartScheduler+0x22>
 8005048:	4b3c      	ldr	r3, [pc, #240]	; (800513c <xPortStartScheduler+0x118>)
 800504a:	681b      	ldr	r3, [r3, #0]
 800504c:	4a3d      	ldr	r2, [pc, #244]	; (8005144 <xPortStartScheduler+0x120>)
 800504e:	4293      	cmp	r3, r2
 8005050:	d109      	bne.n	8005066 <xPortStartScheduler+0x42>
 8005052:	f04f 0350 	mov.w	r3, #80	; 0x50
 8005056:	f383 8811 	msr	BASEPRI, r3
 800505a:	f3bf 8f6f 	isb	sy
 800505e:	f3bf 8f4f 	dsb	sy
 8005062:	60fb      	str	r3, [r7, #12]
 8005064:	e7fe      	b.n	8005064 <xPortStartScheduler+0x40>
 8005066:	4b38      	ldr	r3, [pc, #224]	; (8005148 <xPortStartScheduler+0x124>)
 8005068:	617b      	str	r3, [r7, #20]
 800506a:	697b      	ldr	r3, [r7, #20]
 800506c:	781b      	ldrb	r3, [r3, #0]
 800506e:	b2db      	uxtb	r3, r3
 8005070:	607b      	str	r3, [r7, #4]
 8005072:	697b      	ldr	r3, [r7, #20]
 8005074:	22ff      	movs	r2, #255	; 0xff
 8005076:	701a      	strb	r2, [r3, #0]
 8005078:	697b      	ldr	r3, [r7, #20]
 800507a:	781b      	ldrb	r3, [r3, #0]
 800507c:	b2db      	uxtb	r3, r3
 800507e:	70fb      	strb	r3, [r7, #3]
 8005080:	78fb      	ldrb	r3, [r7, #3]
 8005082:	b2db      	uxtb	r3, r3
 8005084:	f003 0350 	and.w	r3, r3, #80	; 0x50
 8005088:	b2da      	uxtb	r2, r3
 800508a:	4b30      	ldr	r3, [pc, #192]	; (800514c <xPortStartScheduler+0x128>)
 800508c:	701a      	strb	r2, [r3, #0]
 800508e:	4b30      	ldr	r3, [pc, #192]	; (8005150 <xPortStartScheduler+0x12c>)
 8005090:	2207      	movs	r2, #7
 8005092:	601a      	str	r2, [r3, #0]
 8005094:	e009      	b.n	80050aa <xPortStartScheduler+0x86>
 8005096:	4b2e      	ldr	r3, [pc, #184]	; (8005150 <xPortStartScheduler+0x12c>)
 8005098:	681b      	ldr	r3, [r3, #0]
 800509a:	3b01      	subs	r3, #1
 800509c:	4a2c      	ldr	r2, [pc, #176]	; (8005150 <xPortStartScheduler+0x12c>)
 800509e:	6013      	str	r3, [r2, #0]
 80050a0:	78fb      	ldrb	r3, [r7, #3]
 80050a2:	b2db      	uxtb	r3, r3
 80050a4:	005b      	lsls	r3, r3, #1
 80050a6:	b2db      	uxtb	r3, r3
 80050a8:	70fb      	strb	r3, [r7, #3]
 80050aa:	78fb      	ldrb	r3, [r7, #3]
 80050ac:	b2db      	uxtb	r3, r3
 80050ae:	f003 0380 	and.w	r3, r3, #128	; 0x80
 80050b2:	2b80      	cmp	r3, #128	; 0x80
 80050b4:	d0ef      	beq.n	8005096 <xPortStartScheduler+0x72>
 80050b6:	4b26      	ldr	r3, [pc, #152]	; (8005150 <xPortStartScheduler+0x12c>)
 80050b8:	681b      	ldr	r3, [r3, #0]
 80050ba:	f1c3 0307 	rsb	r3, r3, #7
 80050be:	2b04      	cmp	r3, #4
 80050c0:	d009      	beq.n	80050d6 <xPortStartScheduler+0xb2>
 80050c2:	f04f 0350 	mov.w	r3, #80	; 0x50
 80050c6:	f383 8811 	msr	BASEPRI, r3
 80050ca:	f3bf 8f6f 	isb	sy
 80050ce:	f3bf 8f4f 	dsb	sy
 80050d2:	60bb      	str	r3, [r7, #8]
 80050d4:	e7fe      	b.n	80050d4 <xPortStartScheduler+0xb0>
 80050d6:	4b1e      	ldr	r3, [pc, #120]	; (8005150 <xPortStartScheduler+0x12c>)
 80050d8:	681b      	ldr	r3, [r3, #0]
 80050da:	021b      	lsls	r3, r3, #8
 80050dc:	4a1c      	ldr	r2, [pc, #112]	; (8005150 <xPortStartScheduler+0x12c>)
 80050de:	6013      	str	r3, [r2, #0]
 80050e0:	4b1b      	ldr	r3, [pc, #108]	; (8005150 <xPortStartScheduler+0x12c>)
 80050e2:	681b      	ldr	r3, [r3, #0]
 80050e4:	f403 63e0 	and.w	r3, r3, #1792	; 0x700
 80050e8:	4a19      	ldr	r2, [pc, #100]	; (8005150 <xPortStartScheduler+0x12c>)
 80050ea:	6013      	str	r3, [r2, #0]
 80050ec:	687b      	ldr	r3, [r7, #4]
 80050ee:	b2da      	uxtb	r2, r3
 80050f0:	697b      	ldr	r3, [r7, #20]
 80050f2:	701a      	strb	r2, [r3, #0]
 80050f4:	4b17      	ldr	r3, [pc, #92]	; (8005154 <xPortStartScheduler+0x130>)
 80050f6:	681b      	ldr	r3, [r3, #0]
 80050f8:	4a16      	ldr	r2, [pc, #88]	; (8005154 <xPortStartScheduler+0x130>)
 80050fa:	f443 0370 	orr.w	r3, r3, #15728640	; 0xf00000
 80050fe:	6013      	str	r3, [r2, #0]
 8005100:	4b14      	ldr	r3, [pc, #80]	; (8005154 <xPortStartScheduler+0x130>)
 8005102:	681b      	ldr	r3, [r3, #0]
 8005104:	4a13      	ldr	r2, [pc, #76]	; (8005154 <xPortStartScheduler+0x130>)
 8005106:	f043 4370 	orr.w	r3, r3, #4026531840	; 0xf0000000
 800510a:	6013      	str	r3, [r2, #0]
 800510c:	f000 f954 	bl	80053b8 <vPortSetupTimerInterrupt>
 8005110:	4b11      	ldr	r3, [pc, #68]	; (8005158 <xPortStartScheduler+0x134>)
 8005112:	2200      	movs	r2, #0
 8005114:	601a      	str	r2, [r3, #0]
 8005116:	f000 f973 	bl	8005400 <vPortEnableVFP>
 800511a:	4b10      	ldr	r3, [pc, #64]	; (800515c <xPortStartScheduler+0x138>)
 800511c:	681b      	ldr	r3, [r3, #0]
 800511e:	4a0f      	ldr	r2, [pc, #60]	; (800515c <xPortStartScheduler+0x138>)
 8005120:	f043 4340 	orr.w	r3, r3, #3221225472	; 0xc0000000
 8005124:	6013      	str	r3, [r2, #0]
 8005126:	f7ff ff67 	bl	8004ff8 <prvPortStartFirstTask>
 800512a:	f7ff f875 	bl	8004218 <vTaskSwitchContext>
 800512e:	f7ff ff1f 	bl	8004f70 <prvTaskExitError>
 8005132:	2300      	movs	r3, #0
 8005134:	4618      	mov	r0, r3
 8005136:	3718      	adds	r7, #24
 8005138:	46bd      	mov	sp, r7
 800513a:	bd80      	pop	{r7, pc}
 800513c:	e000ed00 	.word	0xe000ed00
 8005140:	410fc271 	.word	0x410fc271
 8005144:	410fc270 	.word	0x410fc270
 8005148:	e000e400 	.word	0xe000e400
 800514c:	20000174 	.word	0x20000174
 8005150:	20000178 	.word	0x20000178
 8005154:	e000ed20 	.word	0xe000ed20
 8005158:	20000010 	.word	0x20000010
 800515c:	e000ef34 	.word	0xe000ef34

08005160 <vInitPrioGroupValue>:
 8005160:	b480      	push	{r7}
 8005162:	b087      	sub	sp, #28
 8005164:	af00      	add	r7, sp, #0
 8005166:	4b35      	ldr	r3, [pc, #212]	; (800523c <vInitPrioGroupValue+0xdc>)
 8005168:	681b      	ldr	r3, [r3, #0]
 800516a:	4a35      	ldr	r2, [pc, #212]	; (8005240 <vInitPrioGroupValue+0xe0>)
 800516c:	4293      	cmp	r3, r2
 800516e:	d109      	bne.n	8005184 <vInitPrioGroupValue+0x24>
 8005170:	f04f 0350 	mov.w	r3, #80	; 0x50
 8005174:	f383 8811 	msr	BASEPRI, r3
 8005178:	f3bf 8f6f 	isb	sy
 800517c:	f3bf 8f4f 	dsb	sy
 8005180:	613b      	str	r3, [r7, #16]
 8005182:	e7fe      	b.n	8005182 <vInitPrioGroupValue+0x22>
 8005184:	4b2d      	ldr	r3, [pc, #180]	; (800523c <vInitPrioGroupValue+0xdc>)
 8005186:	681b      	ldr	r3, [r3, #0]
 8005188:	4a2e      	ldr	r2, [pc, #184]	; (8005244 <vInitPrioGroupValue+0xe4>)
 800518a:	4293      	cmp	r3, r2
 800518c:	d109      	bne.n	80051a2 <vInitPrioGroupValue+0x42>
 800518e:	f04f 0350 	mov.w	r3, #80	; 0x50
 8005192:	f383 8811 	msr	BASEPRI, r3
 8005196:	f3bf 8f6f 	isb	sy
 800519a:	f3bf 8f4f 	dsb	sy
 800519e:	60fb      	str	r3, [r7, #12]
 80051a0:	e7fe      	b.n	80051a0 <vInitPrioGroupValue+0x40>
 80051a2:	4b29      	ldr	r3, [pc, #164]	; (8005248 <vInitPrioGroupValue+0xe8>)
 80051a4:	617b      	str	r3, [r7, #20]
 80051a6:	697b      	ldr	r3, [r7, #20]
 80051a8:	781b      	ldrb	r3, [r3, #0]
 80051aa:	b2db      	uxtb	r3, r3
 80051ac:	607b      	str	r3, [r7, #4]
 80051ae:	697b      	ldr	r3, [r7, #20]
 80051b0:	22ff      	movs	r2, #255	; 0xff
 80051b2:	701a      	strb	r2, [r3, #0]
 80051b4:	697b      	ldr	r3, [r7, #20]
 80051b6:	781b      	ldrb	r3, [r3, #0]
 80051b8:	b2db      	uxtb	r3, r3
 80051ba:	70fb      	strb	r3, [r7, #3]
 80051bc:	78fb      	ldrb	r3, [r7, #3]
 80051be:	b2db      	uxtb	r3, r3
 80051c0:	f003 0350 	and.w	r3, r3, #80	; 0x50
 80051c4:	b2da      	uxtb	r2, r3
 80051c6:	4b21      	ldr	r3, [pc, #132]	; (800524c <vInitPrioGroupValue+0xec>)
 80051c8:	701a      	strb	r2, [r3, #0]
 80051ca:	4b21      	ldr	r3, [pc, #132]	; (8005250 <vInitPrioGroupValue+0xf0>)
 80051cc:	2207      	movs	r2, #7
 80051ce:	601a      	str	r2, [r3, #0]
 80051d0:	e009      	b.n	80051e6 <vInitPrioGroupValue+0x86>
 80051d2:	4b1f      	ldr	r3, [pc, #124]	; (8005250 <vInitPrioGroupValue+0xf0>)
 80051d4:	681b      	ldr	r3, [r3, #0]
 80051d6:	3b01      	subs	r3, #1
 80051d8:	4a1d      	ldr	r2, [pc, #116]	; (8005250 <vInitPrioGroupValue+0xf0>)
 80051da:	6013      	str	r3, [r2, #0]
 80051dc:	78fb      	ldrb	r3, [r7, #3]
 80051de:	b2db      	uxtb	r3, r3
 80051e0:	005b      	lsls	r3, r3, #1
 80051e2:	b2db      	uxtb	r3, r3
 80051e4:	70fb      	strb	r3, [r7, #3]
 80051e6:	78fb      	ldrb	r3, [r7, #3]
 80051e8:	b2db      	uxtb	r3, r3
 80051ea:	f003 0380 	and.w	r3, r3, #128	; 0x80
 80051ee:	2b80      	cmp	r3, #128	; 0x80
 80051f0:	d0ef      	beq.n	80051d2 <vInitPrioGroupValue+0x72>
 80051f2:	4b17      	ldr	r3, [pc, #92]	; (8005250 <vInitPrioGroupValue+0xf0>)
 80051f4:	681b      	ldr	r3, [r3, #0]
 80051f6:	f1c3 0307 	rsb	r3, r3, #7
 80051fa:	2b04      	cmp	r3, #4
 80051fc:	d009      	beq.n	8005212 <vInitPrioGroupValue+0xb2>
 80051fe:	f04f 0350 	mov.w	r3, #80	; 0x50
 8005202:	f383 8811 	msr	BASEPRI, r3
 8005206:	f3bf 8f6f 	isb	sy
 800520a:	f3bf 8f4f 	dsb	sy
 800520e:	60bb      	str	r3, [r7, #8]
 8005210:	e7fe      	b.n	8005210 <vInitPrioGroupValue+0xb0>
 8005212:	4b0f      	ldr	r3, [pc, #60]	; (8005250 <vInitPrioGroupValue+0xf0>)
 8005214:	681b      	ldr	r3, [r3, #0]
 8005216:	021b      	lsls	r3, r3, #8
 8005218:	4a0d      	ldr	r2, [pc, #52]	; (8005250 <vInitPrioGroupValue+0xf0>)
 800521a:	6013      	str	r3, [r2, #0]
 800521c:	4b0c      	ldr	r3, [pc, #48]	; (8005250 <vInitPrioGroupValue+0xf0>)
 800521e:	681b      	ldr	r3, [r3, #0]
 8005220:	f403 63e0 	and.w	r3, r3, #1792	; 0x700
 8005224:	4a0a      	ldr	r2, [pc, #40]	; (8005250 <vInitPrioGroupValue+0xf0>)
 8005226:	6013      	str	r3, [r2, #0]
 8005228:	687b      	ldr	r3, [r7, #4]
 800522a:	b2da      	uxtb	r2, r3
 800522c:	697b      	ldr	r3, [r7, #20]
 800522e:	701a      	strb	r2, [r3, #0]
 8005230:	bf00      	nop
 8005232:	371c      	adds	r7, #28
 8005234:	46bd      	mov	sp, r7
 8005236:	f85d 7b04 	ldr.w	r7, [sp], #4
 800523a:	4770      	bx	lr
 800523c:	e000ed00 	.word	0xe000ed00
 8005240:	410fc271 	.word	0x410fc271
 8005244:	410fc270 	.word	0x410fc270
 8005248:	e000e400 	.word	0xe000e400
 800524c:	20000174 	.word	0x20000174
 8005250:	20000178 	.word	0x20000178

08005254 <vPortEnterCritical>:
 8005254:	b480      	push	{r7}
 8005256:	b083      	sub	sp, #12
 8005258:	af00      	add	r7, sp, #0
 800525a:	f04f 0350 	mov.w	r3, #80	; 0x50
 800525e:	f383 8811 	msr	BASEPRI, r3
 8005262:	f3bf 8f6f 	isb	sy
 8005266:	f3bf 8f4f 	dsb	sy
 800526a:	607b      	str	r3, [r7, #4]
 800526c:	4b0e      	ldr	r3, [pc, #56]	; (80052a8 <vPortEnterCritical+0x54>)
 800526e:	681b      	ldr	r3, [r3, #0]
 8005270:	3301      	adds	r3, #1
 8005272:	4a0d      	ldr	r2, [pc, #52]	; (80052a8 <vPortEnterCritical+0x54>)
 8005274:	6013      	str	r3, [r2, #0]
 8005276:	4b0c      	ldr	r3, [pc, #48]	; (80052a8 <vPortEnterCritical+0x54>)
 8005278:	681b      	ldr	r3, [r3, #0]
 800527a:	2b01      	cmp	r3, #1
 800527c:	d10e      	bne.n	800529c <vPortEnterCritical+0x48>
 800527e:	4b0b      	ldr	r3, [pc, #44]	; (80052ac <vPortEnterCritical+0x58>)
 8005280:	681b      	ldr	r3, [r3, #0]
 8005282:	b2db      	uxtb	r3, r3
 8005284:	2b00      	cmp	r3, #0
 8005286:	d009      	beq.n	800529c <vPortEnterCritical+0x48>
 8005288:	f04f 0350 	mov.w	r3, #80	; 0x50
 800528c:	f383 8811 	msr	BASEPRI, r3
 8005290:	f3bf 8f6f 	isb	sy
 8005294:	f3bf 8f4f 	dsb	sy
 8005298:	603b      	str	r3, [r7, #0]
 800529a:	e7fe      	b.n	800529a <vPortEnterCritical+0x46>
 800529c:	bf00      	nop
 800529e:	370c      	adds	r7, #12
 80052a0:	46bd      	mov	sp, r7
 80052a2:	f85d 7b04 	ldr.w	r7, [sp], #4
 80052a6:	4770      	bx	lr
 80052a8:	20000010 	.word	0x20000010
 80052ac:	e000ed04 	.word	0xe000ed04

080052b0 <vPortExitCritical>:
 80052b0:	b480      	push	{r7}
 80052b2:	b083      	sub	sp, #12
 80052b4:	af00      	add	r7, sp, #0
 80052b6:	4b11      	ldr	r3, [pc, #68]	; (80052fc <vPortExitCritical+0x4c>)
 80052b8:	681b      	ldr	r3, [r3, #0]
 80052ba:	2b00      	cmp	r3, #0
 80052bc:	d109      	bne.n	80052d2 <vPortExitCritical+0x22>
 80052be:	f04f 0350 	mov.w	r3, #80	; 0x50
 80052c2:	f383 8811 	msr	BASEPRI, r3
 80052c6:	f3bf 8f6f 	isb	sy
 80052ca:	f3bf 8f4f 	dsb	sy
 80052ce:	607b      	str	r3, [r7, #4]
 80052d0:	e7fe      	b.n	80052d0 <vPortExitCritical+0x20>
 80052d2:	4b0a      	ldr	r3, [pc, #40]	; (80052fc <vPortExitCritical+0x4c>)
 80052d4:	681b      	ldr	r3, [r3, #0]
 80052d6:	3b01      	subs	r3, #1
 80052d8:	4a08      	ldr	r2, [pc, #32]	; (80052fc <vPortExitCritical+0x4c>)
 80052da:	6013      	str	r3, [r2, #0]
 80052dc:	4b07      	ldr	r3, [pc, #28]	; (80052fc <vPortExitCritical+0x4c>)
 80052de:	681b      	ldr	r3, [r3, #0]
 80052e0:	2b00      	cmp	r3, #0
 80052e2:	d104      	bne.n	80052ee <vPortExitCritical+0x3e>
 80052e4:	2300      	movs	r3, #0
 80052e6:	603b      	str	r3, [r7, #0]
 80052e8:	683b      	ldr	r3, [r7, #0]
 80052ea:	f383 8811 	msr	BASEPRI, r3
 80052ee:	bf00      	nop
 80052f0:	370c      	adds	r7, #12
 80052f2:	46bd      	mov	sp, r7
 80052f4:	f85d 7b04 	ldr.w	r7, [sp], #4
 80052f8:	4770      	bx	lr
 80052fa:	bf00      	nop
 80052fc:	20000010 	.word	0x20000010

08005300 <PendSV_Handler>:
 8005300:	f3ef 8009 	mrs	r0, PSP
 8005304:	f3bf 8f6f 	isb	sy
 8005308:	4b15      	ldr	r3, [pc, #84]	; (8005360 <pxCurrentTCBConst>)
 800530a:	681a      	ldr	r2, [r3, #0]
 800530c:	f01e 0f10 	tst.w	lr, #16
 8005310:	bf08      	it	eq
 8005312:	ed20 8a10 	vstmdbeq	r0!, {s16-s31}
 8005316:	e920 4ff0 	stmdb	r0!, {r4, r5, r6, r7, r8, r9, sl, fp, lr}
 800531a:	6010      	str	r0, [r2, #0]
 800531c:	e92d 0009 	stmdb	sp!, {r0, r3}
 8005320:	f04f 0050 	mov.w	r0, #80	; 0x50
 8005324:	f380 8811 	msr	BASEPRI, r0
 8005328:	f3bf 8f4f 	dsb	sy
 800532c:	f3bf 8f6f 	isb	sy
 8005330:	f7fe ff72 	bl	8004218 <vTaskSwitchContext>
 8005334:	f04f 0000 	mov.w	r0, #0
 8005338:	f380 8811 	msr	BASEPRI, r0
 800533c:	bc09      	pop	{r0, r3}
 800533e:	6819      	ldr	r1, [r3, #0]
 8005340:	6808      	ldr	r0, [r1, #0]
 8005342:	e8b0 4ff0 	ldmia.w	r0!, {r4, r5, r6, r7, r8, r9, sl, fp, lr}
 8005346:	f01e 0f10 	tst.w	lr, #16
 800534a:	bf08      	it	eq
 800534c:	ecb0 8a10 	vldmiaeq	r0!, {s16-s31}
 8005350:	f380 8809 	msr	PSP, r0
 8005354:	f3bf 8f6f 	isb	sy
 8005358:	4770      	bx	lr
 800535a:	bf00      	nop
 800535c:	f3af 8000 	nop.w

08005360 <pxCurrentTCBConst>:
 8005360:	20000034 	.word	0x20000034
 8005364:	bf00      	nop
 8005366:	bf00      	nop

08005368 <SysTick_Handler>:
 8005368:	b580      	push	{r7, lr}
 800536a:	b082      	sub	sp, #8
 800536c:	af00      	add	r7, sp, #0
 800536e:	f04f 0350 	mov.w	r3, #80	; 0x50
 8005372:	f383 8811 	msr	BASEPRI, r3
 8005376:	f3bf 8f6f 	isb	sy
 800537a:	f3bf 8f4f 	dsb	sy
 800537e:	607b      	str	r3, [r7, #4]
 8005380:	f001 fc56 	bl	8006c30 <SEGGER_SYSVIEW_RecordEnterISR>
 8005384:	f7fe fe8c 	bl	80040a0 <xTaskIncrementTick>
 8005388:	4603      	mov	r3, r0
 800538a:	2b00      	cmp	r3, #0
 800538c:	d006      	beq.n	800539c <SysTick_Handler+0x34>
 800538e:	f001 fcad 	bl	8006cec <SEGGER_SYSVIEW_RecordExitISRToScheduler>
 8005392:	4b08      	ldr	r3, [pc, #32]	; (80053b4 <SysTick_Handler+0x4c>)
 8005394:	f04f 5280 	mov.w	r2, #268435456	; 0x10000000
 8005398:	601a      	str	r2, [r3, #0]
 800539a:	e001      	b.n	80053a0 <SysTick_Handler+0x38>
 800539c:	f001 fc8a 	bl	8006cb4 <SEGGER_SYSVIEW_RecordExitISR>
 80053a0:	2300      	movs	r3, #0
 80053a2:	603b      	str	r3, [r7, #0]
 80053a4:	683b      	ldr	r3, [r7, #0]
 80053a6:	f383 8811 	msr	BASEPRI, r3
 80053aa:	bf00      	nop
 80053ac:	3708      	adds	r7, #8
 80053ae:	46bd      	mov	sp, r7
 80053b0:	bd80      	pop	{r7, pc}
 80053b2:	bf00      	nop
 80053b4:	e000ed04 	.word	0xe000ed04

080053b8 <vPortSetupTimerInterrupt>:
 80053b8:	b480      	push	{r7}
 80053ba:	af00      	add	r7, sp, #0
 80053bc:	4b0b      	ldr	r3, [pc, #44]	; (80053ec <vPortSetupTimerInterrupt+0x34>)
 80053be:	2200      	movs	r2, #0
 80053c0:	601a      	str	r2, [r3, #0]
 80053c2:	4b0b      	ldr	r3, [pc, #44]	; (80053f0 <vPortSetupTimerInterrupt+0x38>)
 80053c4:	2200      	movs	r2, #0
 80053c6:	601a      	str	r2, [r3, #0]
 80053c8:	4b0a      	ldr	r3, [pc, #40]	; (80053f4 <vPortSetupTimerInterrupt+0x3c>)
 80053ca:	681b      	ldr	r3, [r3, #0]
 80053cc:	4a0a      	ldr	r2, [pc, #40]	; (80053f8 <vPortSetupTimerInterrupt+0x40>)
 80053ce:	fba2 2303 	umull	r2, r3, r2, r3
 80053d2:	099b      	lsrs	r3, r3, #6
 80053d4:	4a09      	ldr	r2, [pc, #36]	; (80053fc <vPortSetupTimerInterrupt+0x44>)
 80053d6:	3b01      	subs	r3, #1
 80053d8:	6013      	str	r3, [r2, #0]
 80053da:	4b04      	ldr	r3, [pc, #16]	; (80053ec <vPortSetupTimerInterrupt+0x34>)
 80053dc:	2207      	movs	r2, #7
 80053de:	601a      	str	r2, [r3, #0]
 80053e0:	bf00      	nop
 80053e2:	46bd      	mov	sp, r7
 80053e4:	f85d 7b04 	ldr.w	r7, [sp], #4
 80053e8:	4770      	bx	lr
 80053ea:	bf00      	nop
 80053ec:	e000e010 	.word	0xe000e010
 80053f0:	e000e018 	.word	0xe000e018
 80053f4:	20000008 	.word	0x20000008
 80053f8:	10624dd3 	.word	0x10624dd3
 80053fc:	e000e014 	.word	0xe000e014

08005400 <vPortEnableVFP>:
 8005400:	f8df 000c 	ldr.w	r0, [pc, #12]	; 8005410 <vPortEnableVFP+0x10>
 8005404:	6801      	ldr	r1, [r0, #0]
 8005406:	f441 0170 	orr.w	r1, r1, #15728640	; 0xf00000
 800540a:	6001      	str	r1, [r0, #0]
 800540c:	4770      	bx	lr
 800540e:	0000      	.short	0x0000
 8005410:	e000ed88 	.word	0xe000ed88
 8005414:	bf00      	nop
 8005416:	bf00      	nop

08005418 <vPortValidateInterruptPriority>:
 8005418:	b480      	push	{r7}
 800541a:	b085      	sub	sp, #20
 800541c:	af00      	add	r7, sp, #0
 800541e:	f3ef 8305 	mrs	r3, IPSR
 8005422:	60fb      	str	r3, [r7, #12]
 8005424:	68fb      	ldr	r3, [r7, #12]
 8005426:	2b0f      	cmp	r3, #15
 8005428:	d913      	bls.n	8005452 <vPortValidateInterruptPriority+0x3a>
 800542a:	4a16      	ldr	r2, [pc, #88]	; (8005484 <vPortValidateInterruptPriority+0x6c>)
 800542c:	68fb      	ldr	r3, [r7, #12]
 800542e:	4413      	add	r3, r2
 8005430:	781b      	ldrb	r3, [r3, #0]
 8005432:	72fb      	strb	r3, [r7, #11]
 8005434:	4b14      	ldr	r3, [pc, #80]	; (8005488 <vPortValidateInterruptPriority+0x70>)
 8005436:	781b      	ldrb	r3, [r3, #0]
 8005438:	7afa      	ldrb	r2, [r7, #11]
 800543a:	429a      	cmp	r2, r3
 800543c:	d209      	bcs.n	8005452 <vPortValidateInterruptPriority+0x3a>
 800543e:	f04f 0350 	mov.w	r3, #80	; 0x50
 8005442:	f383 8811 	msr	BASEPRI, r3
 8005446:	f3bf 8f6f 	isb	sy
 800544a:	f3bf 8f4f 	dsb	sy
 800544e:	607b      	str	r3, [r7, #4]
 8005450:	e7fe      	b.n	8005450 <vPortValidateInterruptPriority+0x38>
 8005452:	4b0e      	ldr	r3, [pc, #56]	; (800548c <vPortValidateInterruptPriority+0x74>)
 8005454:	681b      	ldr	r3, [r3, #0]
 8005456:	f403 62e0 	and.w	r2, r3, #1792	; 0x700
 800545a:	4b0d      	ldr	r3, [pc, #52]	; (8005490 <vPortValidateInterruptPriority+0x78>)
 800545c:	681b      	ldr	r3, [r3, #0]
 800545e:	429a      	cmp	r2, r3
 8005460:	d909      	bls.n	8005476 <vPortValidateInterruptPriority+0x5e>
 8005462:	f04f 0350 	mov.w	r3, #80	; 0x50
 8005466:	f383 8811 	msr	BASEPRI, r3
 800546a:	f3bf 8f6f 	isb	sy
 800546e:	f3bf 8f4f 	dsb	sy
 8005472:	603b      	str	r3, [r7, #0]
 8005474:	e7fe      	b.n	8005474 <vPortValidateInterruptPriority+0x5c>
 8005476:	bf00      	nop
 8005478:	3714      	adds	r7, #20
 800547a:	46bd      	mov	sp, r7
 800547c:	f85d 7b04 	ldr.w	r7, [sp], #4
 8005480:	4770      	bx	lr
 8005482:	bf00      	nop
 8005484:	e000e3f0 	.word	0xe000e3f0
 8005488:	20000174 	.word	0x20000174
 800548c:	e000ed0c 	.word	0xe000ed0c
 8005490:	20000178 	.word	0x20000178

08005494 <pvPortMalloc>:
 8005494:	b580      	push	{r7, lr}
 8005496:	b08a      	sub	sp, #40	; 0x28
 8005498:	af00      	add	r7, sp, #0
 800549a:	6078      	str	r0, [r7, #4]
 800549c:	2300      	movs	r3, #0
 800549e:	61fb      	str	r3, [r7, #28]
 80054a0:	f7fe fd2e 	bl	8003f00 <vTaskSuspendAll>
 80054a4:	4b63      	ldr	r3, [pc, #396]	; (8005634 <pvPortMalloc+0x1a0>)
 80054a6:	681b      	ldr	r3, [r3, #0]
 80054a8:	2b00      	cmp	r3, #0
 80054aa:	d101      	bne.n	80054b0 <pvPortMalloc+0x1c>
 80054ac:	f000 f92e 	bl	800570c <prvHeapInit>
 80054b0:	4b61      	ldr	r3, [pc, #388]	; (8005638 <pvPortMalloc+0x1a4>)
 80054b2:	681a      	ldr	r2, [r3, #0]
 80054b4:	687b      	ldr	r3, [r7, #4]
 80054b6:	4013      	ands	r3, r2
 80054b8:	2b00      	cmp	r3, #0
 80054ba:	f040 80a5 	bne.w	8005608 <pvPortMalloc+0x174>
 80054be:	687b      	ldr	r3, [r7, #4]
 80054c0:	2b00      	cmp	r3, #0
 80054c2:	d02c      	beq.n	800551e <pvPortMalloc+0x8a>
 80054c4:	2208      	movs	r2, #8
 80054c6:	687b      	ldr	r3, [r7, #4]
 80054c8:	4413      	add	r3, r2
 80054ca:	687a      	ldr	r2, [r7, #4]
 80054cc:	429a      	cmp	r2, r3
 80054ce:	d226      	bcs.n	800551e <pvPortMalloc+0x8a>
 80054d0:	2208      	movs	r2, #8
 80054d2:	687b      	ldr	r3, [r7, #4]
 80054d4:	4413      	add	r3, r2
 80054d6:	607b      	str	r3, [r7, #4]
 80054d8:	687b      	ldr	r3, [r7, #4]
 80054da:	f003 0307 	and.w	r3, r3, #7
 80054de:	2b00      	cmp	r3, #0
 80054e0:	d020      	beq.n	8005524 <pvPortMalloc+0x90>
 80054e2:	687b      	ldr	r3, [r7, #4]
 80054e4:	f023 0307 	bic.w	r3, r3, #7
 80054e8:	3308      	adds	r3, #8
 80054ea:	687a      	ldr	r2, [r7, #4]
 80054ec:	429a      	cmp	r2, r3
 80054ee:	d213      	bcs.n	8005518 <pvPortMalloc+0x84>
 80054f0:	687b      	ldr	r3, [r7, #4]
 80054f2:	f023 0307 	bic.w	r3, r3, #7
 80054f6:	3308      	adds	r3, #8
 80054f8:	607b      	str	r3, [r7, #4]
 80054fa:	687b      	ldr	r3, [r7, #4]
 80054fc:	f003 0307 	and.w	r3, r3, #7
 8005500:	2b00      	cmp	r3, #0
 8005502:	d00f      	beq.n	8005524 <pvPortMalloc+0x90>
 8005504:	f04f 0350 	mov.w	r3, #80	; 0x50
 8005508:	f383 8811 	msr	BASEPRI, r3
 800550c:	f3bf 8f6f 	isb	sy
 8005510:	f3bf 8f4f 	dsb	sy
 8005514:	617b      	str	r3, [r7, #20]
 8005516:	e7fe      	b.n	8005516 <pvPortMalloc+0x82>
 8005518:	2300      	movs	r3, #0
 800551a:	607b      	str	r3, [r7, #4]
 800551c:	e002      	b.n	8005524 <pvPortMalloc+0x90>
 800551e:	2300      	movs	r3, #0
 8005520:	607b      	str	r3, [r7, #4]
 8005522:	e000      	b.n	8005526 <pvPortMalloc+0x92>
 8005524:	bf00      	nop
 8005526:	687b      	ldr	r3, [r7, #4]
 8005528:	2b00      	cmp	r3, #0
 800552a:	d06d      	beq.n	8005608 <pvPortMalloc+0x174>
 800552c:	4b43      	ldr	r3, [pc, #268]	; (800563c <pvPortMalloc+0x1a8>)
 800552e:	681b      	ldr	r3, [r3, #0]
 8005530:	687a      	ldr	r2, [r7, #4]
 8005532:	429a      	cmp	r2, r3
 8005534:	d868      	bhi.n	8005608 <pvPortMalloc+0x174>
 8005536:	4b42      	ldr	r3, [pc, #264]	; (8005640 <pvPortMalloc+0x1ac>)
 8005538:	623b      	str	r3, [r7, #32]
 800553a:	4b41      	ldr	r3, [pc, #260]	; (8005640 <pvPortMalloc+0x1ac>)
 800553c:	681b      	ldr	r3, [r3, #0]
 800553e:	627b      	str	r3, [r7, #36]	; 0x24
 8005540:	e004      	b.n	800554c <pvPortMalloc+0xb8>
 8005542:	6a7b      	ldr	r3, [r7, #36]	; 0x24
 8005544:	623b      	str	r3, [r7, #32]
 8005546:	6a7b      	ldr	r3, [r7, #36]	; 0x24
 8005548:	681b      	ldr	r3, [r3, #0]
 800554a:	627b      	str	r3, [r7, #36]	; 0x24
 800554c:	6a7b      	ldr	r3, [r7, #36]	; 0x24
 800554e:	685b      	ldr	r3, [r3, #4]
 8005550:	687a      	ldr	r2, [r7, #4]
 8005552:	429a      	cmp	r2, r3
 8005554:	d903      	bls.n	800555e <pvPortMalloc+0xca>
 8005556:	6a7b      	ldr	r3, [r7, #36]	; 0x24
 8005558:	681b      	ldr	r3, [r3, #0]
 800555a:	2b00      	cmp	r3, #0
 800555c:	d1f1      	bne.n	8005542 <pvPortMalloc+0xae>
 800555e:	4b35      	ldr	r3, [pc, #212]	; (8005634 <pvPortMalloc+0x1a0>)
 8005560:	681b      	ldr	r3, [r3, #0]
 8005562:	6a7a      	ldr	r2, [r7, #36]	; 0x24
 8005564:	429a      	cmp	r2, r3
 8005566:	d04f      	beq.n	8005608 <pvPortMalloc+0x174>
 8005568:	6a3b      	ldr	r3, [r7, #32]
 800556a:	681b      	ldr	r3, [r3, #0]
 800556c:	2208      	movs	r2, #8
 800556e:	4413      	add	r3, r2
 8005570:	61fb      	str	r3, [r7, #28]
 8005572:	6a7b      	ldr	r3, [r7, #36]	; 0x24
 8005574:	681a      	ldr	r2, [r3, #0]
 8005576:	6a3b      	ldr	r3, [r7, #32]
 8005578:	601a      	str	r2, [r3, #0]
 800557a:	6a7b      	ldr	r3, [r7, #36]	; 0x24
 800557c:	685a      	ldr	r2, [r3, #4]
 800557e:	687b      	ldr	r3, [r7, #4]
 8005580:	1ad2      	subs	r2, r2, r3
 8005582:	2308      	movs	r3, #8
 8005584:	005b      	lsls	r3, r3, #1
 8005586:	429a      	cmp	r2, r3
 8005588:	d91e      	bls.n	80055c8 <pvPortMalloc+0x134>
 800558a:	6a7a      	ldr	r2, [r7, #36]	; 0x24
 800558c:	687b      	ldr	r3, [r7, #4]
 800558e:	4413      	add	r3, r2
 8005590:	61bb      	str	r3, [r7, #24]
 8005592:	69bb      	ldr	r3, [r7, #24]
 8005594:	f003 0307 	and.w	r3, r3, #7
 8005598:	2b00      	cmp	r3, #0
 800559a:	d009      	beq.n	80055b0 <pvPortMalloc+0x11c>
 800559c:	f04f 0350 	mov.w	r3, #80	; 0x50
 80055a0:	f383 8811 	msr	BASEPRI, r3
 80055a4:	f3bf 8f6f 	isb	sy
 80055a8:	f3bf 8f4f 	dsb	sy
 80055ac:	613b      	str	r3, [r7, #16]
 80055ae:	e7fe      	b.n	80055ae <pvPortMalloc+0x11a>
 80055b0:	6a7b      	ldr	r3, [r7, #36]	; 0x24
 80055b2:	685a      	ldr	r2, [r3, #4]
 80055b4:	687b      	ldr	r3, [r7, #4]
 80055b6:	1ad2      	subs	r2, r2, r3
 80055b8:	69bb      	ldr	r3, [r7, #24]
 80055ba:	605a      	str	r2, [r3, #4]
 80055bc:	6a7b      	ldr	r3, [r7, #36]	; 0x24
 80055be:	687a      	ldr	r2, [r7, #4]
 80055c0:	605a      	str	r2, [r3, #4]
 80055c2:	69b8      	ldr	r0, [r7, #24]
 80055c4:	f000 f904 	bl	80057d0 <prvInsertBlockIntoFreeList>
 80055c8:	4b1c      	ldr	r3, [pc, #112]	; (800563c <pvPortMalloc+0x1a8>)
 80055ca:	681a      	ldr	r2, [r3, #0]
 80055cc:	6a7b      	ldr	r3, [r7, #36]	; 0x24
 80055ce:	685b      	ldr	r3, [r3, #4]
 80055d0:	1ad3      	subs	r3, r2, r3
 80055d2:	4a1a      	ldr	r2, [pc, #104]	; (800563c <pvPortMalloc+0x1a8>)
 80055d4:	6013      	str	r3, [r2, #0]
 80055d6:	4b19      	ldr	r3, [pc, #100]	; (800563c <pvPortMalloc+0x1a8>)
 80055d8:	681a      	ldr	r2, [r3, #0]
 80055da:	4b1a      	ldr	r3, [pc, #104]	; (8005644 <pvPortMalloc+0x1b0>)
 80055dc:	681b      	ldr	r3, [r3, #0]
 80055de:	429a      	cmp	r2, r3
 80055e0:	d203      	bcs.n	80055ea <pvPortMalloc+0x156>
 80055e2:	4b16      	ldr	r3, [pc, #88]	; (800563c <pvPortMalloc+0x1a8>)
 80055e4:	681b      	ldr	r3, [r3, #0]
 80055e6:	4a17      	ldr	r2, [pc, #92]	; (8005644 <pvPortMalloc+0x1b0>)
 80055e8:	6013      	str	r3, [r2, #0]
 80055ea:	6a7b      	ldr	r3, [r7, #36]	; 0x24
 80055ec:	685a      	ldr	r2, [r3, #4]
 80055ee:	4b12      	ldr	r3, [pc, #72]	; (8005638 <pvPortMalloc+0x1a4>)
 80055f0:	681b      	ldr	r3, [r3, #0]
 80055f2:	431a      	orrs	r2, r3
 80055f4:	6a7b      	ldr	r3, [r7, #36]	; 0x24
 80055f6:	605a      	str	r2, [r3, #4]
 80055f8:	6a7b      	ldr	r3, [r7, #36]	; 0x24
 80055fa:	2200      	movs	r2, #0
 80055fc:	601a      	str	r2, [r3, #0]
 80055fe:	4b12      	ldr	r3, [pc, #72]	; (8005648 <pvPortMalloc+0x1b4>)
 8005600:	681b      	ldr	r3, [r3, #0]
 8005602:	3301      	adds	r3, #1
 8005604:	4a10      	ldr	r2, [pc, #64]	; (8005648 <pvPortMalloc+0x1b4>)
 8005606:	6013      	str	r3, [r2, #0]
 8005608:	f7fe fc88 	bl	8003f1c <xTaskResumeAll>
 800560c:	69fb      	ldr	r3, [r7, #28]
 800560e:	f003 0307 	and.w	r3, r3, #7
 8005612:	2b00      	cmp	r3, #0
 8005614:	d009      	beq.n	800562a <pvPortMalloc+0x196>
 8005616:	f04f 0350 	mov.w	r3, #80	; 0x50
 800561a:	f383 8811 	msr	BASEPRI, r3
 800561e:	f3bf 8f6f 	isb	sy
 8005622:	f3bf 8f4f 	dsb	sy
 8005626:	60fb      	str	r3, [r7, #12]
 8005628:	e7fe      	b.n	8005628 <pvPortMalloc+0x194>
 800562a:	69fb      	ldr	r3, [r7, #28]
 800562c:	4618      	mov	r0, r3
 800562e:	3728      	adds	r7, #40	; 0x28
 8005630:	46bd      	mov	sp, r7
 8005632:	bd80      	pop	{r7, pc}
 8005634:	20019184 	.word	0x20019184
 8005638:	20019198 	.word	0x20019198
 800563c:	20019188 	.word	0x20019188
 8005640:	2001917c 	.word	0x2001917c
 8005644:	2001918c 	.word	0x2001918c
 8005648:	20019190 	.word	0x20019190

0800564c <vPortFree>:
 800564c:	b580      	push	{r7, lr}
 800564e:	b086      	sub	sp, #24
 8005650:	af00      	add	r7, sp, #0
 8005652:	6078      	str	r0, [r7, #4]
 8005654:	687b      	ldr	r3, [r7, #4]
 8005656:	617b      	str	r3, [r7, #20]
 8005658:	687b      	ldr	r3, [r7, #4]
 800565a:	2b00      	cmp	r3, #0
 800565c:	d04b      	beq.n	80056f6 <vPortFree+0xaa>
 800565e:	2308      	movs	r3, #8
 8005660:	425b      	negs	r3, r3
 8005662:	697a      	ldr	r2, [r7, #20]
 8005664:	4413      	add	r3, r2
 8005666:	617b      	str	r3, [r7, #20]
 8005668:	697b      	ldr	r3, [r7, #20]
 800566a:	613b      	str	r3, [r7, #16]
 800566c:	693b      	ldr	r3, [r7, #16]
 800566e:	685a      	ldr	r2, [r3, #4]
 8005670:	4b23      	ldr	r3, [pc, #140]	; (8005700 <vPortFree+0xb4>)
 8005672:	681b      	ldr	r3, [r3, #0]
 8005674:	4013      	ands	r3, r2
 8005676:	2b00      	cmp	r3, #0
 8005678:	d109      	bne.n	800568e <vPortFree+0x42>
 800567a:	f04f 0350 	mov.w	r3, #80	; 0x50
 800567e:	f383 8811 	msr	BASEPRI, r3
 8005682:	f3bf 8f6f 	isb	sy
 8005686:	f3bf 8f4f 	dsb	sy
 800568a:	60fb      	str	r3, [r7, #12]
 800568c:	e7fe      	b.n	800568c <vPortFree+0x40>
 800568e:	693b      	ldr	r3, [r7, #16]
 8005690:	681b      	ldr	r3, [r3, #0]
 8005692:	2b00      	cmp	r3, #0
 8005694:	d009      	beq.n	80056aa <vPortFree+0x5e>
 8005696:	f04f 0350 	mov.w	r3, #80	; 0x50
 800569a:	f383 8811 	msr	BASEPRI, r3
 800569e:	f3bf 8f6f 	isb	sy
 80056a2:	f3bf 8f4f 	dsb	sy
 80056a6:	60bb      	str	r3, [r7, #8]
 80056a8:	e7fe      	b.n	80056a8 <vPortFree+0x5c>
 80056aa:	693b      	ldr	r3, [r7, #16]
 80056ac:	685a      	ldr	r2, [r3, #4]
 80056ae:	4b14      	ldr	r3, [pc, #80]	; (8005700 <vPortFree+0xb4>)
 80056b0:	681b      	ldr	r3, [r3, #0]
 80056b2:	4013      	ands	r3, r2
 80056b4:	2b00      	cmp	r3, #0
 80056b6:	d01e      	beq.n	80056f6 <vPortFree+0xaa>
 80056b8:	693b      	ldr	r3, [r7, #16]
 80056ba:	681b      	ldr	r3, [r3, #0]
 80056bc:	2b00      	cmp	r3, #0
 80056be:	d11a      	bne.n	80056f6 <vPortFree+0xaa>
 80056c0:	693b      	ldr	r3, [r7, #16]
 80056c2:	685a      	ldr	r2, [r3, #4]
 80056c4:	4b0e      	ldr	r3, [pc, #56]	; (8005700 <vPortFree+0xb4>)
 80056c6:	681b      	ldr	r3, [r3, #0]
 80056c8:	43db      	mvns	r3, r3
 80056ca:	401a      	ands	r2, r3
 80056cc:	693b      	ldr	r3, [r7, #16]
 80056ce:	605a      	str	r2, [r3, #4]
 80056d0:	f7fe fc16 	bl	8003f00 <vTaskSuspendAll>
 80056d4:	693b      	ldr	r3, [r7, #16]
 80056d6:	685a      	ldr	r2, [r3, #4]
 80056d8:	4b0a      	ldr	r3, [pc, #40]	; (8005704 <vPortFree+0xb8>)
 80056da:	681b      	ldr	r3, [r3, #0]
 80056dc:	4413      	add	r3, r2
 80056de:	4a09      	ldr	r2, [pc, #36]	; (8005704 <vPortFree+0xb8>)
 80056e0:	6013      	str	r3, [r2, #0]
 80056e2:	6938      	ldr	r0, [r7, #16]
 80056e4:	f000 f874 	bl	80057d0 <prvInsertBlockIntoFreeList>
 80056e8:	4b07      	ldr	r3, [pc, #28]	; (8005708 <vPortFree+0xbc>)
 80056ea:	681b      	ldr	r3, [r3, #0]
 80056ec:	3301      	adds	r3, #1
 80056ee:	4a06      	ldr	r2, [pc, #24]	; (8005708 <vPortFree+0xbc>)
 80056f0:	6013      	str	r3, [r2, #0]
 80056f2:	f7fe fc13 	bl	8003f1c <xTaskResumeAll>
 80056f6:	bf00      	nop
 80056f8:	3718      	adds	r7, #24
 80056fa:	46bd      	mov	sp, r7
 80056fc:	bd80      	pop	{r7, pc}
 80056fe:	bf00      	nop
 8005700:	20019198 	.word	0x20019198
 8005704:	20019188 	.word	0x20019188
 8005708:	20019194 	.word	0x20019194

0800570c <prvHeapInit>:
 800570c:	b480      	push	{r7}
 800570e:	b085      	sub	sp, #20
 8005710:	af00      	add	r7, sp, #0
 8005712:	f44f 33c8 	mov.w	r3, #102400	; 0x19000
 8005716:	60bb      	str	r3, [r7, #8]
 8005718:	4b27      	ldr	r3, [pc, #156]	; (80057b8 <prvHeapInit+0xac>)
 800571a:	60fb      	str	r3, [r7, #12]
 800571c:	68fb      	ldr	r3, [r7, #12]
 800571e:	f003 0307 	and.w	r3, r3, #7
 8005722:	2b00      	cmp	r3, #0
 8005724:	d00c      	beq.n	8005740 <prvHeapInit+0x34>
 8005726:	68fb      	ldr	r3, [r7, #12]
 8005728:	3307      	adds	r3, #7
 800572a:	60fb      	str	r3, [r7, #12]
 800572c:	68fb      	ldr	r3, [r7, #12]
 800572e:	f023 0307 	bic.w	r3, r3, #7
 8005732:	60fb      	str	r3, [r7, #12]
 8005734:	68ba      	ldr	r2, [r7, #8]
 8005736:	68fb      	ldr	r3, [r7, #12]
 8005738:	1ad3      	subs	r3, r2, r3
 800573a:	4a1f      	ldr	r2, [pc, #124]	; (80057b8 <prvHeapInit+0xac>)
 800573c:	4413      	add	r3, r2
 800573e:	60bb      	str	r3, [r7, #8]
 8005740:	68fb      	ldr	r3, [r7, #12]
 8005742:	607b      	str	r3, [r7, #4]
 8005744:	4a1d      	ldr	r2, [pc, #116]	; (80057bc <prvHeapInit+0xb0>)
 8005746:	687b      	ldr	r3, [r7, #4]
 8005748:	6013      	str	r3, [r2, #0]
 800574a:	4b1c      	ldr	r3, [pc, #112]	; (80057bc <prvHeapInit+0xb0>)
 800574c:	2200      	movs	r2, #0
 800574e:	605a      	str	r2, [r3, #4]
 8005750:	687b      	ldr	r3, [r7, #4]
 8005752:	68ba      	ldr	r2, [r7, #8]
 8005754:	4413      	add	r3, r2
 8005756:	60fb      	str	r3, [r7, #12]
 8005758:	2208      	movs	r2, #8
 800575a:	68fb      	ldr	r3, [r7, #12]
 800575c:	1a9b      	subs	r3, r3, r2
 800575e:	60fb      	str	r3, [r7, #12]
 8005760:	68fb      	ldr	r3, [r7, #12]
 8005762:	f023 0307 	bic.w	r3, r3, #7
 8005766:	60fb      	str	r3, [r7, #12]
 8005768:	68fb      	ldr	r3, [r7, #12]
 800576a:	4a15      	ldr	r2, [pc, #84]	; (80057c0 <prvHeapInit+0xb4>)
 800576c:	6013      	str	r3, [r2, #0]
 800576e:	4b14      	ldr	r3, [pc, #80]	; (80057c0 <prvHeapInit+0xb4>)
 8005770:	681b      	ldr	r3, [r3, #0]
 8005772:	2200      	movs	r2, #0
 8005774:	605a      	str	r2, [r3, #4]
 8005776:	4b12      	ldr	r3, [pc, #72]	; (80057c0 <prvHeapInit+0xb4>)
 8005778:	681b      	ldr	r3, [r3, #0]
 800577a:	2200      	movs	r2, #0
 800577c:	601a      	str	r2, [r3, #0]
 800577e:	687b      	ldr	r3, [r7, #4]
 8005780:	603b      	str	r3, [r7, #0]
 8005782:	683b      	ldr	r3, [r7, #0]
 8005784:	68fa      	ldr	r2, [r7, #12]
 8005786:	1ad2      	subs	r2, r2, r3
 8005788:	683b      	ldr	r3, [r7, #0]
 800578a:	605a      	str	r2, [r3, #4]
 800578c:	4b0c      	ldr	r3, [pc, #48]	; (80057c0 <prvHeapInit+0xb4>)
 800578e:	681a      	ldr	r2, [r3, #0]
 8005790:	683b      	ldr	r3, [r7, #0]
 8005792:	601a      	str	r2, [r3, #0]
 8005794:	683b      	ldr	r3, [r7, #0]
 8005796:	685b      	ldr	r3, [r3, #4]
 8005798:	4a0a      	ldr	r2, [pc, #40]	; (80057c4 <prvHeapInit+0xb8>)
 800579a:	6013      	str	r3, [r2, #0]
 800579c:	683b      	ldr	r3, [r7, #0]
 800579e:	685b      	ldr	r3, [r3, #4]
 80057a0:	4a09      	ldr	r2, [pc, #36]	; (80057c8 <prvHeapInit+0xbc>)
 80057a2:	6013      	str	r3, [r2, #0]
 80057a4:	4b09      	ldr	r3, [pc, #36]	; (80057cc <prvHeapInit+0xc0>)
 80057a6:	f04f 4200 	mov.w	r2, #2147483648	; 0x80000000
 80057aa:	601a      	str	r2, [r3, #0]
 80057ac:	bf00      	nop
 80057ae:	3714      	adds	r7, #20
 80057b0:	46bd      	mov	sp, r7
 80057b2:	f85d 7b04 	ldr.w	r7, [sp], #4
 80057b6:	4770      	bx	lr
 80057b8:	2000017c 	.word	0x2000017c
 80057bc:	2001917c 	.word	0x2001917c
 80057c0:	20019184 	.word	0x20019184
 80057c4:	2001918c 	.word	0x2001918c
 80057c8:	20019188 	.word	0x20019188
 80057cc:	20019198 	.word	0x20019198

080057d0 <prvInsertBlockIntoFreeList>:
 80057d0:	b480      	push	{r7}
 80057d2:	b085      	sub	sp, #20
 80057d4:	af00      	add	r7, sp, #0
 80057d6:	6078      	str	r0, [r7, #4]
 80057d8:	4b28      	ldr	r3, [pc, #160]	; (800587c <prvInsertBlockIntoFreeList+0xac>)
 80057da:	60fb      	str	r3, [r7, #12]
 80057dc:	e002      	b.n	80057e4 <prvInsertBlockIntoFreeList+0x14>
 80057de:	68fb      	ldr	r3, [r7, #12]
 80057e0:	681b      	ldr	r3, [r3, #0]
 80057e2:	60fb      	str	r3, [r7, #12]
 80057e4:	68fb      	ldr	r3, [r7, #12]
 80057e6:	681b      	ldr	r3, [r3, #0]
 80057e8:	687a      	ldr	r2, [r7, #4]
 80057ea:	429a      	cmp	r2, r3
 80057ec:	d8f7      	bhi.n	80057de <prvInsertBlockIntoFreeList+0xe>
 80057ee:	68fb      	ldr	r3, [r7, #12]
 80057f0:	60bb      	str	r3, [r7, #8]
 80057f2:	68fb      	ldr	r3, [r7, #12]
 80057f4:	685b      	ldr	r3, [r3, #4]
 80057f6:	68ba      	ldr	r2, [r7, #8]
 80057f8:	4413      	add	r3, r2
 80057fa:	687a      	ldr	r2, [r7, #4]
 80057fc:	429a      	cmp	r2, r3
 80057fe:	d108      	bne.n	8005812 <prvInsertBlockIntoFreeList+0x42>
 8005800:	68fb      	ldr	r3, [r7, #12]
 8005802:	685a      	ldr	r2, [r3, #4]
 8005804:	687b      	ldr	r3, [r7, #4]
 8005806:	685b      	ldr	r3, [r3, #4]
 8005808:	441a      	add	r2, r3
 800580a:	68fb      	ldr	r3, [r7, #12]
 800580c:	605a      	str	r2, [r3, #4]
 800580e:	68fb      	ldr	r3, [r7, #12]
 8005810:	607b      	str	r3, [r7, #4]
 8005812:	687b      	ldr	r3, [r7, #4]
 8005814:	60bb      	str	r3, [r7, #8]
 8005816:	687b      	ldr	r3, [r7, #4]
 8005818:	685b      	ldr	r3, [r3, #4]
 800581a:	68ba      	ldr	r2, [r7, #8]
 800581c:	441a      	add	r2, r3
 800581e:	68fb      	ldr	r3, [r7, #12]
 8005820:	681b      	ldr	r3, [r3, #0]
 8005822:	429a      	cmp	r2, r3
 8005824:	d118      	bne.n	8005858 <prvInsertBlockIntoFreeList+0x88>
 8005826:	68fb      	ldr	r3, [r7, #12]
 8005828:	681a      	ldr	r2, [r3, #0]
 800582a:	4b15      	ldr	r3, [pc, #84]	; (8005880 <prvInsertBlockIntoFreeList+0xb0>)
 800582c:	681b      	ldr	r3, [r3, #0]
 800582e:	429a      	cmp	r2, r3
 8005830:	d00d      	beq.n	800584e <prvInsertBlockIntoFreeList+0x7e>
 8005832:	687b      	ldr	r3, [r7, #4]
 8005834:	685a      	ldr	r2, [r3, #4]
 8005836:	68fb      	ldr	r3, [r7, #12]
 8005838:	681b      	ldr	r3, [r3, #0]
 800583a:	685b      	ldr	r3, [r3, #4]
 800583c:	441a      	add	r2, r3
 800583e:	687b      	ldr	r3, [r7, #4]
 8005840:	605a      	str	r2, [r3, #4]
 8005842:	68fb      	ldr	r3, [r7, #12]
 8005844:	681b      	ldr	r3, [r3, #0]
 8005846:	681a      	ldr	r2, [r3, #0]
 8005848:	687b      	ldr	r3, [r7, #4]
 800584a:	601a      	str	r2, [r3, #0]
 800584c:	e008      	b.n	8005860 <prvInsertBlockIntoFreeList+0x90>
 800584e:	4b0c      	ldr	r3, [pc, #48]	; (8005880 <prvInsertBlockIntoFreeList+0xb0>)
 8005850:	681a      	ldr	r2, [r3, #0]
 8005852:	687b      	ldr	r3, [r7, #4]
 8005854:	601a      	str	r2, [r3, #0]
 8005856:	e003      	b.n	8005860 <prvInsertBlockIntoFreeList+0x90>
 8005858:	68fb      	ldr	r3, [r7, #12]
 800585a:	681a      	ldr	r2, [r3, #0]
 800585c:	687b      	ldr	r3, [r7, #4]
 800585e:	601a      	str	r2, [r3, #0]
 8005860:	68fa      	ldr	r2, [r7, #12]
 8005862:	687b      	ldr	r3, [r7, #4]
 8005864:	429a      	cmp	r2, r3
 8005866:	d002      	beq.n	800586e <prvInsertBlockIntoFreeList+0x9e>
 8005868:	68fb      	ldr	r3, [r7, #12]
 800586a:	687a      	ldr	r2, [r7, #4]
 800586c:	601a      	str	r2, [r3, #0]
 800586e:	bf00      	nop
 8005870:	3714      	adds	r7, #20
 8005872:	46bd      	mov	sp, r7
 8005874:	f85d 7b04 	ldr.w	r7, [sp], #4
 8005878:	4770      	bx	lr
 800587a:	bf00      	nop
 800587c:	2001917c 	.word	0x2001917c
 8005880:	20019184 	.word	0x20019184

08005884 <_cbSendSystemDesc>:
 8005884:	b580      	push	{r7, lr}
 8005886:	af00      	add	r7, sp, #0
 8005888:	4803      	ldr	r0, [pc, #12]	; (8005898 <_cbSendSystemDesc+0x14>)
 800588a:	f001 f97d 	bl	8006b88 <SEGGER_SYSVIEW_SendSysDesc>
 800588e:	4803      	ldr	r0, [pc, #12]	; (800589c <_cbSendSystemDesc+0x18>)
 8005890:	f001 f97a 	bl	8006b88 <SEGGER_SYSVIEW_SendSysDesc>
 8005894:	bf00      	nop
 8005896:	bd80      	pop	{r7, pc}
 8005898:	08007340 	.word	0x08007340
 800589c:	08007384 	.word	0x08007384

080058a0 <SEGGER_SYSVIEW_Conf>:
 80058a0:	b580      	push	{r7, lr}
 80058a2:	af00      	add	r7, sp, #0
 80058a4:	4b06      	ldr	r3, [pc, #24]	; (80058c0 <SEGGER_SYSVIEW_Conf+0x20>)
 80058a6:	6818      	ldr	r0, [r3, #0]
 80058a8:	4b05      	ldr	r3, [pc, #20]	; (80058c0 <SEGGER_SYSVIEW_Conf+0x20>)
 80058aa:	6819      	ldr	r1, [r3, #0]
 80058ac:	4b05      	ldr	r3, [pc, #20]	; (80058c4 <SEGGER_SYSVIEW_Conf+0x24>)
 80058ae:	4a06      	ldr	r2, [pc, #24]	; (80058c8 <SEGGER_SYSVIEW_Conf+0x28>)
 80058b0:	f000 fce8 	bl	8006284 <SEGGER_SYSVIEW_Init>
 80058b4:	f04f 5080 	mov.w	r0, #268435456	; 0x10000000
 80058b8:	f000 fd28 	bl	800630c <SEGGER_SYSVIEW_SetRAMBase>
 80058bc:	bf00      	nop
 80058be:	bd80      	pop	{r7, pc}
 80058c0:	20000008 	.word	0x20000008
 80058c4:	08005885 	.word	0x08005885
 80058c8:	08007424 	.word	0x08007424

080058cc <_cbSendTaskList>:
 80058cc:	b5f0      	push	{r4, r5, r6, r7, lr}
 80058ce:	b085      	sub	sp, #20
 80058d0:	af02      	add	r7, sp, #8
 80058d2:	2300      	movs	r3, #0
 80058d4:	607b      	str	r3, [r7, #4]
 80058d6:	e034      	b.n	8005942 <_cbSendTaskList+0x76>
 80058d8:	491e      	ldr	r1, [pc, #120]	; (8005954 <_cbSendTaskList+0x88>)
 80058da:	687a      	ldr	r2, [r7, #4]
 80058dc:	4613      	mov	r3, r2
 80058de:	009b      	lsls	r3, r3, #2
 80058e0:	4413      	add	r3, r2
 80058e2:	009b      	lsls	r3, r3, #2
 80058e4:	440b      	add	r3, r1
 80058e6:	6818      	ldr	r0, [r3, #0]
 80058e8:	491a      	ldr	r1, [pc, #104]	; (8005954 <_cbSendTaskList+0x88>)
 80058ea:	687a      	ldr	r2, [r7, #4]
 80058ec:	4613      	mov	r3, r2
 80058ee:	009b      	lsls	r3, r3, #2
 80058f0:	4413      	add	r3, r2
 80058f2:	009b      	lsls	r3, r3, #2
 80058f4:	440b      	add	r3, r1
 80058f6:	3304      	adds	r3, #4
 80058f8:	681c      	ldr	r4, [r3, #0]
 80058fa:	4916      	ldr	r1, [pc, #88]	; (8005954 <_cbSendTaskList+0x88>)
 80058fc:	687a      	ldr	r2, [r7, #4]
 80058fe:	4613      	mov	r3, r2
 8005900:	009b      	lsls	r3, r3, #2
 8005902:	4413      	add	r3, r2
 8005904:	009b      	lsls	r3, r3, #2
 8005906:	440b      	add	r3, r1
 8005908:	3308      	adds	r3, #8
 800590a:	681d      	ldr	r5, [r3, #0]
 800590c:	4911      	ldr	r1, [pc, #68]	; (8005954 <_cbSendTaskList+0x88>)
 800590e:	687a      	ldr	r2, [r7, #4]
 8005910:	4613      	mov	r3, r2
 8005912:	009b      	lsls	r3, r3, #2
 8005914:	4413      	add	r3, r2
 8005916:	009b      	lsls	r3, r3, #2
 8005918:	440b      	add	r3, r1
 800591a:	330c      	adds	r3, #12
 800591c:	681e      	ldr	r6, [r3, #0]
 800591e:	490d      	ldr	r1, [pc, #52]	; (8005954 <_cbSendTaskList+0x88>)
 8005920:	687a      	ldr	r2, [r7, #4]
 8005922:	4613      	mov	r3, r2
 8005924:	009b      	lsls	r3, r3, #2
 8005926:	4413      	add	r3, r2
 8005928:	009b      	lsls	r3, r3, #2
 800592a:	440b      	add	r3, r1
 800592c:	3310      	adds	r3, #16
 800592e:	681b      	ldr	r3, [r3, #0]
 8005930:	9300      	str	r3, [sp, #0]
 8005932:	4633      	mov	r3, r6
 8005934:	462a      	mov	r2, r5
 8005936:	4621      	mov	r1, r4
 8005938:	f000 f8b4 	bl	8005aa4 <SYSVIEW_SendTaskInfo>
 800593c:	687b      	ldr	r3, [r7, #4]
 800593e:	3301      	adds	r3, #1
 8005940:	607b      	str	r3, [r7, #4]
 8005942:	4b05      	ldr	r3, [pc, #20]	; (8005958 <_cbSendTaskList+0x8c>)
 8005944:	681b      	ldr	r3, [r3, #0]
 8005946:	687a      	ldr	r2, [r7, #4]
 8005948:	429a      	cmp	r2, r3
 800594a:	d3c5      	bcc.n	80058d8 <_cbSendTaskList+0xc>
 800594c:	bf00      	nop
 800594e:	370c      	adds	r7, #12
 8005950:	46bd      	mov	sp, r7
 8005952:	bdf0      	pop	{r4, r5, r6, r7, pc}
 8005954:	2001919c 	.word	0x2001919c
 8005958:	2001923c 	.word	0x2001923c

0800595c <_cbGetTime>:
 800595c:	b5f0      	push	{r4, r5, r6, r7, lr}
 800595e:	b083      	sub	sp, #12
 8005960:	af00      	add	r7, sp, #0
 8005962:	f7fe fb8b 	bl	800407c <xTaskGetTickCountFromISR>
 8005966:	4603      	mov	r3, r0
 8005968:	f04f 0400 	mov.w	r4, #0
 800596c:	e9c7 3400 	strd	r3, r4, [r7]
 8005970:	e9d7 5600 	ldrd	r5, r6, [r7]
 8005974:	462b      	mov	r3, r5
 8005976:	4634      	mov	r4, r6
 8005978:	f04f 0100 	mov.w	r1, #0
 800597c:	f04f 0200 	mov.w	r2, #0
 8005980:	0162      	lsls	r2, r4, #5
 8005982:	ea42 62d3 	orr.w	r2, r2, r3, lsr #27
 8005986:	0159      	lsls	r1, r3, #5
 8005988:	460b      	mov	r3, r1
 800598a:	4614      	mov	r4, r2
 800598c:	1b5b      	subs	r3, r3, r5
 800598e:	eb64 0406 	sbc.w	r4, r4, r6
 8005992:	f04f 0100 	mov.w	r1, #0
 8005996:	f04f 0200 	mov.w	r2, #0
 800599a:	00a2      	lsls	r2, r4, #2
 800599c:	ea42 7293 	orr.w	r2, r2, r3, lsr #30
 80059a0:	0099      	lsls	r1, r3, #2
 80059a2:	460b      	mov	r3, r1
 80059a4:	4614      	mov	r4, r2
 80059a6:	195b      	adds	r3, r3, r5
 80059a8:	eb44 0406 	adc.w	r4, r4, r6
 80059ac:	f04f 0100 	mov.w	r1, #0
 80059b0:	f04f 0200 	mov.w	r2, #0
 80059b4:	00e2      	lsls	r2, r4, #3
 80059b6:	ea42 7253 	orr.w	r2, r2, r3, lsr #29
 80059ba:	00d9      	lsls	r1, r3, #3
 80059bc:	460b      	mov	r3, r1
 80059be:	4614      	mov	r4, r2
 80059c0:	e9c7 3400 	strd	r3, r4, [r7]
 80059c4:	e9d7 3400 	ldrd	r3, r4, [r7]
 80059c8:	4618      	mov	r0, r3
 80059ca:	4621      	mov	r1, r4
 80059cc:	370c      	adds	r7, #12
 80059ce:	46bd      	mov	sp, r7
 80059d0:	bdf0      	pop	{r4, r5, r6, r7, pc}
	...

080059d4 <SYSVIEW_AddTask>:
 80059d4:	b580      	push	{r7, lr}
 80059d6:	b086      	sub	sp, #24
 80059d8:	af02      	add	r7, sp, #8
 80059da:	60f8      	str	r0, [r7, #12]
 80059dc:	60b9      	str	r1, [r7, #8]
 80059de:	607a      	str	r2, [r7, #4]
 80059e0:	603b      	str	r3, [r7, #0]
 80059e2:	2205      	movs	r2, #5
 80059e4:	492b      	ldr	r1, [pc, #172]	; (8005a94 <SYSVIEW_AddTask+0xc0>)
 80059e6:	68b8      	ldr	r0, [r7, #8]
 80059e8:	f001 fc4a 	bl	8007280 <memcmp>
 80059ec:	4603      	mov	r3, r0
 80059ee:	2b00      	cmp	r3, #0
 80059f0:	d04b      	beq.n	8005a8a <SYSVIEW_AddTask+0xb6>
 80059f2:	4b29      	ldr	r3, [pc, #164]	; (8005a98 <SYSVIEW_AddTask+0xc4>)
 80059f4:	681b      	ldr	r3, [r3, #0]
 80059f6:	2b07      	cmp	r3, #7
 80059f8:	d903      	bls.n	8005a02 <SYSVIEW_AddTask+0x2e>
 80059fa:	4828      	ldr	r0, [pc, #160]	; (8005a9c <SYSVIEW_AddTask+0xc8>)
 80059fc:	f001 fbc0 	bl	8007180 <SEGGER_SYSVIEW_Warn>
 8005a00:	e044      	b.n	8005a8c <SYSVIEW_AddTask+0xb8>
 8005a02:	4b25      	ldr	r3, [pc, #148]	; (8005a98 <SYSVIEW_AddTask+0xc4>)
 8005a04:	681a      	ldr	r2, [r3, #0]
 8005a06:	4926      	ldr	r1, [pc, #152]	; (8005aa0 <SYSVIEW_AddTask+0xcc>)
 8005a08:	4613      	mov	r3, r2
 8005a0a:	009b      	lsls	r3, r3, #2
 8005a0c:	4413      	add	r3, r2
 8005a0e:	009b      	lsls	r3, r3, #2
 8005a10:	440b      	add	r3, r1
 8005a12:	68fa      	ldr	r2, [r7, #12]
 8005a14:	601a      	str	r2, [r3, #0]
 8005a16:	4b20      	ldr	r3, [pc, #128]	; (8005a98 <SYSVIEW_AddTask+0xc4>)
 8005a18:	681a      	ldr	r2, [r3, #0]
 8005a1a:	4921      	ldr	r1, [pc, #132]	; (8005aa0 <SYSVIEW_AddTask+0xcc>)
 8005a1c:	4613      	mov	r3, r2
 8005a1e:	009b      	lsls	r3, r3, #2
 8005a20:	4413      	add	r3, r2
 8005a22:	009b      	lsls	r3, r3, #2
 8005a24:	440b      	add	r3, r1
 8005a26:	3304      	adds	r3, #4
 8005a28:	68ba      	ldr	r2, [r7, #8]
 8005a2a:	601a      	str	r2, [r3, #0]
 8005a2c:	4b1a      	ldr	r3, [pc, #104]	; (8005a98 <SYSVIEW_AddTask+0xc4>)
 8005a2e:	681a      	ldr	r2, [r3, #0]
 8005a30:	491b      	ldr	r1, [pc, #108]	; (8005aa0 <SYSVIEW_AddTask+0xcc>)
 8005a32:	4613      	mov	r3, r2
 8005a34:	009b      	lsls	r3, r3, #2
 8005a36:	4413      	add	r3, r2
 8005a38:	009b      	lsls	r3, r3, #2
 8005a3a:	440b      	add	r3, r1
 8005a3c:	3308      	adds	r3, #8
 8005a3e:	687a      	ldr	r2, [r7, #4]
 8005a40:	601a      	str	r2, [r3, #0]
 8005a42:	4b15      	ldr	r3, [pc, #84]	; (8005a98 <SYSVIEW_AddTask+0xc4>)
 8005a44:	681a      	ldr	r2, [r3, #0]
 8005a46:	4916      	ldr	r1, [pc, #88]	; (8005aa0 <SYSVIEW_AddTask+0xcc>)
 8005a48:	4613      	mov	r3, r2
 8005a4a:	009b      	lsls	r3, r3, #2
 8005a4c:	4413      	add	r3, r2
 8005a4e:	009b      	lsls	r3, r3, #2
 8005a50:	440b      	add	r3, r1
 8005a52:	330c      	adds	r3, #12
 8005a54:	683a      	ldr	r2, [r7, #0]
 8005a56:	601a      	str	r2, [r3, #0]
 8005a58:	4b0f      	ldr	r3, [pc, #60]	; (8005a98 <SYSVIEW_AddTask+0xc4>)
 8005a5a:	681a      	ldr	r2, [r3, #0]
 8005a5c:	4910      	ldr	r1, [pc, #64]	; (8005aa0 <SYSVIEW_AddTask+0xcc>)
 8005a5e:	4613      	mov	r3, r2
 8005a60:	009b      	lsls	r3, r3, #2
 8005a62:	4413      	add	r3, r2
 8005a64:	009b      	lsls	r3, r3, #2
 8005a66:	440b      	add	r3, r1
 8005a68:	3310      	adds	r3, #16
 8005a6a:	69ba      	ldr	r2, [r7, #24]
 8005a6c:	601a      	str	r2, [r3, #0]
 8005a6e:	4b0a      	ldr	r3, [pc, #40]	; (8005a98 <SYSVIEW_AddTask+0xc4>)
 8005a70:	681b      	ldr	r3, [r3, #0]
 8005a72:	3301      	adds	r3, #1
 8005a74:	4a08      	ldr	r2, [pc, #32]	; (8005a98 <SYSVIEW_AddTask+0xc4>)
 8005a76:	6013      	str	r3, [r2, #0]
 8005a78:	69bb      	ldr	r3, [r7, #24]
 8005a7a:	9300      	str	r3, [sp, #0]
 8005a7c:	683b      	ldr	r3, [r7, #0]
 8005a7e:	687a      	ldr	r2, [r7, #4]
 8005a80:	68b9      	ldr	r1, [r7, #8]
 8005a82:	68f8      	ldr	r0, [r7, #12]
 8005a84:	f000 f80e 	bl	8005aa4 <SYSVIEW_SendTaskInfo>
 8005a88:	e000      	b.n	8005a8c <SYSVIEW_AddTask+0xb8>
 8005a8a:	bf00      	nop
 8005a8c:	3710      	adds	r7, #16
 8005a8e:	46bd      	mov	sp, r7
 8005a90:	bd80      	pop	{r7, pc}
 8005a92:	bf00      	nop
 8005a94:	08007394 	.word	0x08007394
 8005a98:	2001923c 	.word	0x2001923c
 8005a9c:	0800739c 	.word	0x0800739c
 8005aa0:	2001919c 	.word	0x2001919c

08005aa4 <SYSVIEW_SendTaskInfo>:
 8005aa4:	b580      	push	{r7, lr}
 8005aa6:	b08a      	sub	sp, #40	; 0x28
 8005aa8:	af00      	add	r7, sp, #0
 8005aaa:	60f8      	str	r0, [r7, #12]
 8005aac:	60b9      	str	r1, [r7, #8]
 8005aae:	607a      	str	r2, [r7, #4]
 8005ab0:	603b      	str	r3, [r7, #0]
 8005ab2:	f107 0314 	add.w	r3, r7, #20
 8005ab6:	2214      	movs	r2, #20
 8005ab8:	2100      	movs	r1, #0
 8005aba:	4618      	mov	r0, r3
 8005abc:	f001 fbfa 	bl	80072b4 <memset>
 8005ac0:	68fb      	ldr	r3, [r7, #12]
 8005ac2:	617b      	str	r3, [r7, #20]
 8005ac4:	68bb      	ldr	r3, [r7, #8]
 8005ac6:	61bb      	str	r3, [r7, #24]
 8005ac8:	687b      	ldr	r3, [r7, #4]
 8005aca:	61fb      	str	r3, [r7, #28]
 8005acc:	683b      	ldr	r3, [r7, #0]
 8005ace:	623b      	str	r3, [r7, #32]
 8005ad0:	6b3b      	ldr	r3, [r7, #48]	; 0x30
 8005ad2:	627b      	str	r3, [r7, #36]	; 0x24
 8005ad4:	f107 0314 	add.w	r3, r7, #20
 8005ad8:	4618      	mov	r0, r3
 8005ada:	f000 ff5d 	bl	8006998 <SEGGER_SYSVIEW_SendTaskInfo>
 8005ade:	bf00      	nop
 8005ae0:	3728      	adds	r7, #40	; 0x28
 8005ae2:	46bd      	mov	sp, r7
 8005ae4:	bd80      	pop	{r7, pc}
	...

08005ae8 <_DoInit>:
 8005ae8:	b480      	push	{r7}
 8005aea:	b083      	sub	sp, #12
 8005aec:	af00      	add	r7, sp, #0
 8005aee:	4b24      	ldr	r3, [pc, #144]	; (8005b80 <_DoInit+0x98>)
 8005af0:	607b      	str	r3, [r7, #4]
 8005af2:	687b      	ldr	r3, [r7, #4]
 8005af4:	2203      	movs	r2, #3
 8005af6:	611a      	str	r2, [r3, #16]
 8005af8:	687b      	ldr	r3, [r7, #4]
 8005afa:	2203      	movs	r2, #3
 8005afc:	615a      	str	r2, [r3, #20]
 8005afe:	687b      	ldr	r3, [r7, #4]
 8005b00:	4a20      	ldr	r2, [pc, #128]	; (8005b84 <_DoInit+0x9c>)
 8005b02:	619a      	str	r2, [r3, #24]
 8005b04:	687b      	ldr	r3, [r7, #4]
 8005b06:	4a20      	ldr	r2, [pc, #128]	; (8005b88 <_DoInit+0xa0>)
 8005b08:	61da      	str	r2, [r3, #28]
 8005b0a:	687b      	ldr	r3, [r7, #4]
 8005b0c:	f44f 6280 	mov.w	r2, #1024	; 0x400
 8005b10:	621a      	str	r2, [r3, #32]
 8005b12:	687b      	ldr	r3, [r7, #4]
 8005b14:	2200      	movs	r2, #0
 8005b16:	629a      	str	r2, [r3, #40]	; 0x28
 8005b18:	687b      	ldr	r3, [r7, #4]
 8005b1a:	2200      	movs	r2, #0
 8005b1c:	625a      	str	r2, [r3, #36]	; 0x24
 8005b1e:	687b      	ldr	r3, [r7, #4]
 8005b20:	2200      	movs	r2, #0
 8005b22:	62da      	str	r2, [r3, #44]	; 0x2c
 8005b24:	687b      	ldr	r3, [r7, #4]
 8005b26:	4a17      	ldr	r2, [pc, #92]	; (8005b84 <_DoInit+0x9c>)
 8005b28:	661a      	str	r2, [r3, #96]	; 0x60
 8005b2a:	687b      	ldr	r3, [r7, #4]
 8005b2c:	4a17      	ldr	r2, [pc, #92]	; (8005b8c <_DoInit+0xa4>)
 8005b2e:	665a      	str	r2, [r3, #100]	; 0x64
 8005b30:	687b      	ldr	r3, [r7, #4]
 8005b32:	2210      	movs	r2, #16
 8005b34:	669a      	str	r2, [r3, #104]	; 0x68
 8005b36:	687b      	ldr	r3, [r7, #4]
 8005b38:	2200      	movs	r2, #0
 8005b3a:	671a      	str	r2, [r3, #112]	; 0x70
 8005b3c:	687b      	ldr	r3, [r7, #4]
 8005b3e:	2200      	movs	r2, #0
 8005b40:	66da      	str	r2, [r3, #108]	; 0x6c
 8005b42:	687b      	ldr	r3, [r7, #4]
 8005b44:	2200      	movs	r2, #0
 8005b46:	675a      	str	r2, [r3, #116]	; 0x74
 8005b48:	687b      	ldr	r3, [r7, #4]
 8005b4a:	3307      	adds	r3, #7
 8005b4c:	4a10      	ldr	r2, [pc, #64]	; (8005b90 <_DoInit+0xa8>)
 8005b4e:	6810      	ldr	r0, [r2, #0]
 8005b50:	6018      	str	r0, [r3, #0]
 8005b52:	f3bf 8f5f 	dmb	sy
 8005b56:	687b      	ldr	r3, [r7, #4]
 8005b58:	4a0e      	ldr	r2, [pc, #56]	; (8005b94 <_DoInit+0xac>)
 8005b5a:	6810      	ldr	r0, [r2, #0]
 8005b5c:	6018      	str	r0, [r3, #0]
 8005b5e:	8891      	ldrh	r1, [r2, #4]
 8005b60:	7992      	ldrb	r2, [r2, #6]
 8005b62:	8099      	strh	r1, [r3, #4]
 8005b64:	719a      	strb	r2, [r3, #6]
 8005b66:	f3bf 8f5f 	dmb	sy
 8005b6a:	687b      	ldr	r3, [r7, #4]
 8005b6c:	2220      	movs	r2, #32
 8005b6e:	719a      	strb	r2, [r3, #6]
 8005b70:	f3bf 8f5f 	dmb	sy
 8005b74:	bf00      	nop
 8005b76:	370c      	adds	r7, #12
 8005b78:	46bd      	mov	sp, r7
 8005b7a:	f85d 7b04 	ldr.w	r7, [sp], #4
 8005b7e:	4770      	bx	lr
 8005b80:	2001a870 	.word	0x2001a870
 8005b84:	080073ec 	.word	0x080073ec
 8005b88:	20019240 	.word	0x20019240
 8005b8c:	20019640 	.word	0x20019640
 8005b90:	080073f8 	.word	0x080073f8
 8005b94:	080073fc 	.word	0x080073fc

08005b98 <SEGGER_RTT_ReadNoLock>:
 8005b98:	b580      	push	{r7, lr}
 8005b9a:	b08c      	sub	sp, #48	; 0x30
 8005b9c:	af00      	add	r7, sp, #0
 8005b9e:	60f8      	str	r0, [r7, #12]
 8005ba0:	60b9      	str	r1, [r7, #8]
 8005ba2:	607a      	str	r2, [r7, #4]
 8005ba4:	4b3e      	ldr	r3, [pc, #248]	; (8005ca0 <SEGGER_RTT_ReadNoLock+0x108>)
 8005ba6:	623b      	str	r3, [r7, #32]
 8005ba8:	6a3b      	ldr	r3, [r7, #32]
 8005baa:	781b      	ldrb	r3, [r3, #0]
 8005bac:	b2db      	uxtb	r3, r3
 8005bae:	2b00      	cmp	r3, #0
 8005bb0:	d101      	bne.n	8005bb6 <SEGGER_RTT_ReadNoLock+0x1e>
 8005bb2:	f7ff ff99 	bl	8005ae8 <_DoInit>
 8005bb6:	68fa      	ldr	r2, [r7, #12]
 8005bb8:	4613      	mov	r3, r2
 8005bba:	005b      	lsls	r3, r3, #1
 8005bbc:	4413      	add	r3, r2
 8005bbe:	00db      	lsls	r3, r3, #3
 8005bc0:	3360      	adds	r3, #96	; 0x60
 8005bc2:	4a37      	ldr	r2, [pc, #220]	; (8005ca0 <SEGGER_RTT_ReadNoLock+0x108>)
 8005bc4:	4413      	add	r3, r2
 8005bc6:	61fb      	str	r3, [r7, #28]
 8005bc8:	68bb      	ldr	r3, [r7, #8]
 8005bca:	627b      	str	r3, [r7, #36]	; 0x24
 8005bcc:	69fb      	ldr	r3, [r7, #28]
 8005bce:	691b      	ldr	r3, [r3, #16]
 8005bd0:	62bb      	str	r3, [r7, #40]	; 0x28
 8005bd2:	69fb      	ldr	r3, [r7, #28]
 8005bd4:	68db      	ldr	r3, [r3, #12]
 8005bd6:	61bb      	str	r3, [r7, #24]
 8005bd8:	2300      	movs	r3, #0
 8005bda:	62fb      	str	r3, [r7, #44]	; 0x2c
 8005bdc:	6aba      	ldr	r2, [r7, #40]	; 0x28
 8005bde:	69bb      	ldr	r3, [r7, #24]
 8005be0:	429a      	cmp	r2, r3
 8005be2:	d92b      	bls.n	8005c3c <SEGGER_RTT_ReadNoLock+0xa4>
 8005be4:	69fb      	ldr	r3, [r7, #28]
 8005be6:	689a      	ldr	r2, [r3, #8]
 8005be8:	6abb      	ldr	r3, [r7, #40]	; 0x28
 8005bea:	1ad3      	subs	r3, r2, r3
 8005bec:	617b      	str	r3, [r7, #20]
 8005bee:	697a      	ldr	r2, [r7, #20]
 8005bf0:	687b      	ldr	r3, [r7, #4]
 8005bf2:	4293      	cmp	r3, r2
 8005bf4:	bf28      	it	cs
 8005bf6:	4613      	movcs	r3, r2
 8005bf8:	617b      	str	r3, [r7, #20]
 8005bfa:	69fb      	ldr	r3, [r7, #28]
 8005bfc:	685a      	ldr	r2, [r3, #4]
 8005bfe:	6abb      	ldr	r3, [r7, #40]	; 0x28
 8005c00:	4413      	add	r3, r2
 8005c02:	613b      	str	r3, [r7, #16]
 8005c04:	697a      	ldr	r2, [r7, #20]
 8005c06:	6939      	ldr	r1, [r7, #16]
 8005c08:	6a78      	ldr	r0, [r7, #36]	; 0x24
 8005c0a:	f001 fb48 	bl	800729e <memcpy>
 8005c0e:	6afa      	ldr	r2, [r7, #44]	; 0x2c
 8005c10:	697b      	ldr	r3, [r7, #20]
 8005c12:	4413      	add	r3, r2
 8005c14:	62fb      	str	r3, [r7, #44]	; 0x2c
 8005c16:	6a7a      	ldr	r2, [r7, #36]	; 0x24
 8005c18:	697b      	ldr	r3, [r7, #20]
 8005c1a:	4413      	add	r3, r2
 8005c1c:	627b      	str	r3, [r7, #36]	; 0x24
 8005c1e:	687a      	ldr	r2, [r7, #4]
 8005c20:	697b      	ldr	r3, [r7, #20]
 8005c22:	1ad3      	subs	r3, r2, r3
 8005c24:	607b      	str	r3, [r7, #4]
 8005c26:	6aba      	ldr	r2, [r7, #40]	; 0x28
 8005c28:	697b      	ldr	r3, [r7, #20]
 8005c2a:	4413      	add	r3, r2
 8005c2c:	62bb      	str	r3, [r7, #40]	; 0x28
 8005c2e:	69fb      	ldr	r3, [r7, #28]
 8005c30:	689b      	ldr	r3, [r3, #8]
 8005c32:	6aba      	ldr	r2, [r7, #40]	; 0x28
 8005c34:	429a      	cmp	r2, r3
 8005c36:	d101      	bne.n	8005c3c <SEGGER_RTT_ReadNoLock+0xa4>
 8005c38:	2300      	movs	r3, #0
 8005c3a:	62bb      	str	r3, [r7, #40]	; 0x28
 8005c3c:	69ba      	ldr	r2, [r7, #24]
 8005c3e:	6abb      	ldr	r3, [r7, #40]	; 0x28
 8005c40:	1ad3      	subs	r3, r2, r3
 8005c42:	617b      	str	r3, [r7, #20]
 8005c44:	697a      	ldr	r2, [r7, #20]
 8005c46:	687b      	ldr	r3, [r7, #4]
 8005c48:	4293      	cmp	r3, r2
 8005c4a:	bf28      	it	cs
 8005c4c:	4613      	movcs	r3, r2
 8005c4e:	617b      	str	r3, [r7, #20]
 8005c50:	697b      	ldr	r3, [r7, #20]
 8005c52:	2b00      	cmp	r3, #0
 8005c54:	d019      	beq.n	8005c8a <SEGGER_RTT_ReadNoLock+0xf2>
 8005c56:	69fb      	ldr	r3, [r7, #28]
 8005c58:	685a      	ldr	r2, [r3, #4]
 8005c5a:	6abb      	ldr	r3, [r7, #40]	; 0x28
 8005c5c:	4413      	add	r3, r2
 8005c5e:	613b      	str	r3, [r7, #16]
 8005c60:	697a      	ldr	r2, [r7, #20]
 8005c62:	6939      	ldr	r1, [r7, #16]
 8005c64:	6a78      	ldr	r0, [r7, #36]	; 0x24
 8005c66:	f001 fb1a 	bl	800729e <memcpy>
 8005c6a:	6afa      	ldr	r2, [r7, #44]	; 0x2c
 8005c6c:	697b      	ldr	r3, [r7, #20]
 8005c6e:	4413      	add	r3, r2
 8005c70:	62fb      	str	r3, [r7, #44]	; 0x2c
 8005c72:	6a7a      	ldr	r2, [r7, #36]	; 0x24
 8005c74:	697b      	ldr	r3, [r7, #20]
 8005c76:	4413      	add	r3, r2
 8005c78:	627b      	str	r3, [r7, #36]	; 0x24
 8005c7a:	687a      	ldr	r2, [r7, #4]
 8005c7c:	697b      	ldr	r3, [r7, #20]
 8005c7e:	1ad3      	subs	r3, r2, r3
 8005c80:	607b      	str	r3, [r7, #4]
 8005c82:	6aba      	ldr	r2, [r7, #40]	; 0x28
 8005c84:	697b      	ldr	r3, [r7, #20]
 8005c86:	4413      	add	r3, r2
 8005c88:	62bb      	str	r3, [r7, #40]	; 0x28
 8005c8a:	6afb      	ldr	r3, [r7, #44]	; 0x2c
 8005c8c:	2b00      	cmp	r3, #0
 8005c8e:	d002      	beq.n	8005c96 <SEGGER_RTT_ReadNoLock+0xfe>
 8005c90:	69fb      	ldr	r3, [r7, #28]
 8005c92:	6aba      	ldr	r2, [r7, #40]	; 0x28
 8005c94:	611a      	str	r2, [r3, #16]
 8005c96:	6afb      	ldr	r3, [r7, #44]	; 0x2c
 8005c98:	4618      	mov	r0, r3
 8005c9a:	3730      	adds	r7, #48	; 0x30
 8005c9c:	46bd      	mov	sp, r7
 8005c9e:	bd80      	pop	{r7, pc}
 8005ca0:	2001a870 	.word	0x2001a870

08005ca4 <SEGGER_RTT_AllocUpBuffer>:
 8005ca4:	b580      	push	{r7, lr}
 8005ca6:	b088      	sub	sp, #32
 8005ca8:	af00      	add	r7, sp, #0
 8005caa:	60f8      	str	r0, [r7, #12]
 8005cac:	60b9      	str	r1, [r7, #8]
 8005cae:	607a      	str	r2, [r7, #4]
 8005cb0:	603b      	str	r3, [r7, #0]
 8005cb2:	4b3d      	ldr	r3, [pc, #244]	; (8005da8 <SEGGER_RTT_AllocUpBuffer+0x104>)
 8005cb4:	61bb      	str	r3, [r7, #24]
 8005cb6:	69bb      	ldr	r3, [r7, #24]
 8005cb8:	781b      	ldrb	r3, [r3, #0]
 8005cba:	b2db      	uxtb	r3, r3
 8005cbc:	2b00      	cmp	r3, #0
 8005cbe:	d101      	bne.n	8005cc4 <SEGGER_RTT_AllocUpBuffer+0x20>
 8005cc0:	f7ff ff12 	bl	8005ae8 <_DoInit>
 8005cc4:	f3ef 8311 	mrs	r3, BASEPRI
 8005cc8:	f04f 0120 	mov.w	r1, #32
 8005ccc:	f381 8811 	msr	BASEPRI, r1
 8005cd0:	617b      	str	r3, [r7, #20]
 8005cd2:	4b35      	ldr	r3, [pc, #212]	; (8005da8 <SEGGER_RTT_AllocUpBuffer+0x104>)
 8005cd4:	613b      	str	r3, [r7, #16]
 8005cd6:	2300      	movs	r3, #0
 8005cd8:	61fb      	str	r3, [r7, #28]
 8005cda:	6939      	ldr	r1, [r7, #16]
 8005cdc:	69fb      	ldr	r3, [r7, #28]
 8005cde:	1c5a      	adds	r2, r3, #1
 8005ce0:	4613      	mov	r3, r2
 8005ce2:	005b      	lsls	r3, r3, #1
 8005ce4:	4413      	add	r3, r2
 8005ce6:	00db      	lsls	r3, r3, #3
 8005ce8:	440b      	add	r3, r1
 8005cea:	3304      	adds	r3, #4
 8005cec:	681b      	ldr	r3, [r3, #0]
 8005cee:	2b00      	cmp	r3, #0
 8005cf0:	d008      	beq.n	8005d04 <SEGGER_RTT_AllocUpBuffer+0x60>
 8005cf2:	69fb      	ldr	r3, [r7, #28]
 8005cf4:	3301      	adds	r3, #1
 8005cf6:	61fb      	str	r3, [r7, #28]
 8005cf8:	693b      	ldr	r3, [r7, #16]
 8005cfa:	691b      	ldr	r3, [r3, #16]
 8005cfc:	69fa      	ldr	r2, [r7, #28]
 8005cfe:	429a      	cmp	r2, r3
 8005d00:	dbeb      	blt.n	8005cda <SEGGER_RTT_AllocUpBuffer+0x36>
 8005d02:	e000      	b.n	8005d06 <SEGGER_RTT_AllocUpBuffer+0x62>
 8005d04:	bf00      	nop
 8005d06:	693b      	ldr	r3, [r7, #16]
 8005d08:	691b      	ldr	r3, [r3, #16]
 8005d0a:	69fa      	ldr	r2, [r7, #28]
 8005d0c:	429a      	cmp	r2, r3
 8005d0e:	da3f      	bge.n	8005d90 <SEGGER_RTT_AllocUpBuffer+0xec>
 8005d10:	6939      	ldr	r1, [r7, #16]
 8005d12:	69fb      	ldr	r3, [r7, #28]
 8005d14:	1c5a      	adds	r2, r3, #1
 8005d16:	4613      	mov	r3, r2
 8005d18:	005b      	lsls	r3, r3, #1
 8005d1a:	4413      	add	r3, r2
 8005d1c:	00db      	lsls	r3, r3, #3
 8005d1e:	440b      	add	r3, r1
 8005d20:	68fa      	ldr	r2, [r7, #12]
 8005d22:	601a      	str	r2, [r3, #0]
 8005d24:	6939      	ldr	r1, [r7, #16]
 8005d26:	69fb      	ldr	r3, [r7, #28]
 8005d28:	1c5a      	adds	r2, r3, #1
 8005d2a:	4613      	mov	r3, r2
 8005d2c:	005b      	lsls	r3, r3, #1
 8005d2e:	4413      	add	r3, r2
 8005d30:	00db      	lsls	r3, r3, #3
 8005d32:	440b      	add	r3, r1
 8005d34:	3304      	adds	r3, #4
 8005d36:	68ba      	ldr	r2, [r7, #8]
 8005d38:	601a      	str	r2, [r3, #0]
 8005d3a:	6939      	ldr	r1, [r7, #16]
 8005d3c:	69fa      	ldr	r2, [r7, #28]
 8005d3e:	4613      	mov	r3, r2
 8005d40:	005b      	lsls	r3, r3, #1
 8005d42:	4413      	add	r3, r2
 8005d44:	00db      	lsls	r3, r3, #3
 8005d46:	440b      	add	r3, r1
 8005d48:	3320      	adds	r3, #32
 8005d4a:	687a      	ldr	r2, [r7, #4]
 8005d4c:	601a      	str	r2, [r3, #0]
 8005d4e:	6939      	ldr	r1, [r7, #16]
 8005d50:	69fa      	ldr	r2, [r7, #28]
 8005d52:	4613      	mov	r3, r2
 8005d54:	005b      	lsls	r3, r3, #1
 8005d56:	4413      	add	r3, r2
 8005d58:	00db      	lsls	r3, r3, #3
 8005d5a:	440b      	add	r3, r1
 8005d5c:	3328      	adds	r3, #40	; 0x28
 8005d5e:	2200      	movs	r2, #0
 8005d60:	601a      	str	r2, [r3, #0]
 8005d62:	6939      	ldr	r1, [r7, #16]
 8005d64:	69fa      	ldr	r2, [r7, #28]
 8005d66:	4613      	mov	r3, r2
 8005d68:	005b      	lsls	r3, r3, #1
 8005d6a:	4413      	add	r3, r2
 8005d6c:	00db      	lsls	r3, r3, #3
 8005d6e:	440b      	add	r3, r1
 8005d70:	3324      	adds	r3, #36	; 0x24
 8005d72:	2200      	movs	r2, #0
 8005d74:	601a      	str	r2, [r3, #0]
 8005d76:	6939      	ldr	r1, [r7, #16]
 8005d78:	69fa      	ldr	r2, [r7, #28]
 8005d7a:	4613      	mov	r3, r2
 8005d7c:	005b      	lsls	r3, r3, #1
 8005d7e:	4413      	add	r3, r2
 8005d80:	00db      	lsls	r3, r3, #3
 8005d82:	440b      	add	r3, r1
 8005d84:	332c      	adds	r3, #44	; 0x2c
 8005d86:	683a      	ldr	r2, [r7, #0]
 8005d88:	601a      	str	r2, [r3, #0]
 8005d8a:	f3bf 8f5f 	dmb	sy
 8005d8e:	e002      	b.n	8005d96 <SEGGER_RTT_AllocUpBuffer+0xf2>
 8005d90:	f04f 33ff 	mov.w	r3, #4294967295
 8005d94:	61fb      	str	r3, [r7, #28]
 8005d96:	697b      	ldr	r3, [r7, #20]
 8005d98:	f383 8811 	msr	BASEPRI, r3
 8005d9c:	69fb      	ldr	r3, [r7, #28]
 8005d9e:	4618      	mov	r0, r3
 8005da0:	3720      	adds	r7, #32
 8005da2:	46bd      	mov	sp, r7
 8005da4:	bd80      	pop	{r7, pc}
 8005da6:	bf00      	nop
 8005da8:	2001a870 	.word	0x2001a870

08005dac <SEGGER_RTT_ConfigDownBuffer>:
 8005dac:	b580      	push	{r7, lr}
 8005dae:	b08a      	sub	sp, #40	; 0x28
 8005db0:	af00      	add	r7, sp, #0
 8005db2:	60f8      	str	r0, [r7, #12]
 8005db4:	60b9      	str	r1, [r7, #8]
 8005db6:	607a      	str	r2, [r7, #4]
 8005db8:	603b      	str	r3, [r7, #0]
 8005dba:	4b21      	ldr	r3, [pc, #132]	; (8005e40 <SEGGER_RTT_ConfigDownBuffer+0x94>)
 8005dbc:	623b      	str	r3, [r7, #32]
 8005dbe:	6a3b      	ldr	r3, [r7, #32]
 8005dc0:	781b      	ldrb	r3, [r3, #0]
 8005dc2:	b2db      	uxtb	r3, r3
 8005dc4:	2b00      	cmp	r3, #0
 8005dc6:	d101      	bne.n	8005dcc <SEGGER_RTT_ConfigDownBuffer+0x20>
 8005dc8:	f7ff fe8e 	bl	8005ae8 <_DoInit>
 8005dcc:	4b1c      	ldr	r3, [pc, #112]	; (8005e40 <SEGGER_RTT_ConfigDownBuffer+0x94>)
 8005dce:	61fb      	str	r3, [r7, #28]
 8005dd0:	68fb      	ldr	r3, [r7, #12]
 8005dd2:	2b02      	cmp	r3, #2
 8005dd4:	d82c      	bhi.n	8005e30 <SEGGER_RTT_ConfigDownBuffer+0x84>
 8005dd6:	f3ef 8311 	mrs	r3, BASEPRI
 8005dda:	f04f 0120 	mov.w	r1, #32
 8005dde:	f381 8811 	msr	BASEPRI, r1
 8005de2:	61bb      	str	r3, [r7, #24]
 8005de4:	68fa      	ldr	r2, [r7, #12]
 8005de6:	4613      	mov	r3, r2
 8005de8:	005b      	lsls	r3, r3, #1
 8005dea:	4413      	add	r3, r2
 8005dec:	00db      	lsls	r3, r3, #3
 8005dee:	3360      	adds	r3, #96	; 0x60
 8005df0:	69fa      	ldr	r2, [r7, #28]
 8005df2:	4413      	add	r3, r2
 8005df4:	617b      	str	r3, [r7, #20]
 8005df6:	68fb      	ldr	r3, [r7, #12]
 8005df8:	2b00      	cmp	r3, #0
 8005dfa:	d00e      	beq.n	8005e1a <SEGGER_RTT_ConfigDownBuffer+0x6e>
 8005dfc:	697b      	ldr	r3, [r7, #20]
 8005dfe:	68ba      	ldr	r2, [r7, #8]
 8005e00:	601a      	str	r2, [r3, #0]
 8005e02:	697b      	ldr	r3, [r7, #20]
 8005e04:	687a      	ldr	r2, [r7, #4]
 8005e06:	605a      	str	r2, [r3, #4]
 8005e08:	697b      	ldr	r3, [r7, #20]
 8005e0a:	683a      	ldr	r2, [r7, #0]
 8005e0c:	609a      	str	r2, [r3, #8]
 8005e0e:	697b      	ldr	r3, [r7, #20]
 8005e10:	2200      	movs	r2, #0
 8005e12:	611a      	str	r2, [r3, #16]
 8005e14:	697b      	ldr	r3, [r7, #20]
 8005e16:	2200      	movs	r2, #0
 8005e18:	60da      	str	r2, [r3, #12]
 8005e1a:	697b      	ldr	r3, [r7, #20]
 8005e1c:	6b3a      	ldr	r2, [r7, #48]	; 0x30
 8005e1e:	615a      	str	r2, [r3, #20]
 8005e20:	f3bf 8f5f 	dmb	sy
 8005e24:	69bb      	ldr	r3, [r7, #24]
 8005e26:	f383 8811 	msr	BASEPRI, r3
 8005e2a:	2300      	movs	r3, #0
 8005e2c:	627b      	str	r3, [r7, #36]	; 0x24
 8005e2e:	e002      	b.n	8005e36 <SEGGER_RTT_ConfigDownBuffer+0x8a>
 8005e30:	f04f 33ff 	mov.w	r3, #4294967295
 8005e34:	627b      	str	r3, [r7, #36]	; 0x24
 8005e36:	6a7b      	ldr	r3, [r7, #36]	; 0x24
 8005e38:	4618      	mov	r0, r3
 8005e3a:	3728      	adds	r7, #40	; 0x28
 8005e3c:	46bd      	mov	sp, r7
 8005e3e:	bd80      	pop	{r7, pc}
 8005e40:	2001a870 	.word	0x2001a870

08005e44 <_EncodeStr>:
 8005e44:	b480      	push	{r7}
 8005e46:	b087      	sub	sp, #28
 8005e48:	af00      	add	r7, sp, #0
 8005e4a:	60f8      	str	r0, [r7, #12]
 8005e4c:	60b9      	str	r1, [r7, #8]
 8005e4e:	607a      	str	r2, [r7, #4]
 8005e50:	2300      	movs	r3, #0
 8005e52:	613b      	str	r3, [r7, #16]
 8005e54:	68bb      	ldr	r3, [r7, #8]
 8005e56:	2b00      	cmp	r3, #0
 8005e58:	d00f      	beq.n	8005e7a <_EncodeStr+0x36>
 8005e5a:	e002      	b.n	8005e62 <_EncodeStr+0x1e>
 8005e5c:	693b      	ldr	r3, [r7, #16]
 8005e5e:	3301      	adds	r3, #1
 8005e60:	613b      	str	r3, [r7, #16]
 8005e62:	68ba      	ldr	r2, [r7, #8]
 8005e64:	693b      	ldr	r3, [r7, #16]
 8005e66:	4413      	add	r3, r2
 8005e68:	781b      	ldrb	r3, [r3, #0]
 8005e6a:	2b00      	cmp	r3, #0
 8005e6c:	d1f6      	bne.n	8005e5c <_EncodeStr+0x18>
 8005e6e:	693a      	ldr	r2, [r7, #16]
 8005e70:	687b      	ldr	r3, [r7, #4]
 8005e72:	429a      	cmp	r2, r3
 8005e74:	d901      	bls.n	8005e7a <_EncodeStr+0x36>
 8005e76:	687b      	ldr	r3, [r7, #4]
 8005e78:	613b      	str	r3, [r7, #16]
 8005e7a:	693b      	ldr	r3, [r7, #16]
 8005e7c:	2bfe      	cmp	r3, #254	; 0xfe
 8005e7e:	d806      	bhi.n	8005e8e <_EncodeStr+0x4a>
 8005e80:	68fb      	ldr	r3, [r7, #12]
 8005e82:	1c5a      	adds	r2, r3, #1
 8005e84:	60fa      	str	r2, [r7, #12]
 8005e86:	693a      	ldr	r2, [r7, #16]
 8005e88:	b2d2      	uxtb	r2, r2
 8005e8a:	701a      	strb	r2, [r3, #0]
 8005e8c:	e011      	b.n	8005eb2 <_EncodeStr+0x6e>
 8005e8e:	68fb      	ldr	r3, [r7, #12]
 8005e90:	1c5a      	adds	r2, r3, #1
 8005e92:	60fa      	str	r2, [r7, #12]
 8005e94:	22ff      	movs	r2, #255	; 0xff
 8005e96:	701a      	strb	r2, [r3, #0]
 8005e98:	68fb      	ldr	r3, [r7, #12]
 8005e9a:	1c5a      	adds	r2, r3, #1
 8005e9c:	60fa      	str	r2, [r7, #12]
 8005e9e:	693a      	ldr	r2, [r7, #16]
 8005ea0:	b2d2      	uxtb	r2, r2
 8005ea2:	701a      	strb	r2, [r3, #0]
 8005ea4:	693b      	ldr	r3, [r7, #16]
 8005ea6:	0a19      	lsrs	r1, r3, #8
 8005ea8:	68fb      	ldr	r3, [r7, #12]
 8005eaa:	1c5a      	adds	r2, r3, #1
 8005eac:	60fa      	str	r2, [r7, #12]
 8005eae:	b2ca      	uxtb	r2, r1
 8005eb0:	701a      	strb	r2, [r3, #0]
 8005eb2:	2300      	movs	r3, #0
 8005eb4:	617b      	str	r3, [r7, #20]
 8005eb6:	e00a      	b.n	8005ece <_EncodeStr+0x8a>
 8005eb8:	68ba      	ldr	r2, [r7, #8]
 8005eba:	1c53      	adds	r3, r2, #1
 8005ebc:	60bb      	str	r3, [r7, #8]
 8005ebe:	68fb      	ldr	r3, [r7, #12]
 8005ec0:	1c59      	adds	r1, r3, #1
 8005ec2:	60f9      	str	r1, [r7, #12]
 8005ec4:	7812      	ldrb	r2, [r2, #0]
 8005ec6:	701a      	strb	r2, [r3, #0]
 8005ec8:	697b      	ldr	r3, [r7, #20]
 8005eca:	3301      	adds	r3, #1
 8005ecc:	617b      	str	r3, [r7, #20]
 8005ece:	697a      	ldr	r2, [r7, #20]
 8005ed0:	693b      	ldr	r3, [r7, #16]
 8005ed2:	429a      	cmp	r2, r3
 8005ed4:	d3f0      	bcc.n	8005eb8 <_EncodeStr+0x74>
 8005ed6:	68fb      	ldr	r3, [r7, #12]
 8005ed8:	4618      	mov	r0, r3
 8005eda:	371c      	adds	r7, #28
 8005edc:	46bd      	mov	sp, r7
 8005ede:	f85d 7b04 	ldr.w	r7, [sp], #4
 8005ee2:	4770      	bx	lr

08005ee4 <_PreparePacket>:
 8005ee4:	b480      	push	{r7}
 8005ee6:	b083      	sub	sp, #12
 8005ee8:	af00      	add	r7, sp, #0
 8005eea:	6078      	str	r0, [r7, #4]
 8005eec:	687b      	ldr	r3, [r7, #4]
 8005eee:	3304      	adds	r3, #4
 8005ef0:	4618      	mov	r0, r3
 8005ef2:	370c      	adds	r7, #12
 8005ef4:	46bd      	mov	sp, r7
 8005ef6:	f85d 7b04 	ldr.w	r7, [sp], #4
 8005efa:	4770      	bx	lr

08005efc <_HandleIncomingPacket>:
 8005efc:	b580      	push	{r7, lr}
 8005efe:	b082      	sub	sp, #8
 8005f00:	af00      	add	r7, sp, #0
 8005f02:	4b33      	ldr	r3, [pc, #204]	; (8005fd0 <_HandleIncomingPacket+0xd4>)
 8005f04:	7e1b      	ldrb	r3, [r3, #24]
 8005f06:	4618      	mov	r0, r3
 8005f08:	1cfb      	adds	r3, r7, #3
 8005f0a:	2201      	movs	r2, #1
 8005f0c:	4619      	mov	r1, r3
 8005f0e:	f7ff fe43 	bl	8005b98 <SEGGER_RTT_ReadNoLock>
 8005f12:	4603      	mov	r3, r0
 8005f14:	607b      	str	r3, [r7, #4]
 8005f16:	687b      	ldr	r3, [r7, #4]
 8005f18:	2b00      	cmp	r3, #0
 8005f1a:	dd4d      	ble.n	8005fb8 <_HandleIncomingPacket+0xbc>
 8005f1c:	78fb      	ldrb	r3, [r7, #3]
 8005f1e:	2b05      	cmp	r3, #5
 8005f20:	d022      	beq.n	8005f68 <_HandleIncomingPacket+0x6c>
 8005f22:	2b05      	cmp	r3, #5
 8005f24:	dc0b      	bgt.n	8005f3e <_HandleIncomingPacket+0x42>
 8005f26:	2b02      	cmp	r3, #2
 8005f28:	d015      	beq.n	8005f56 <_HandleIncomingPacket+0x5a>
 8005f2a:	2b02      	cmp	r3, #2
 8005f2c:	dc02      	bgt.n	8005f34 <_HandleIncomingPacket+0x38>
 8005f2e:	2b01      	cmp	r3, #1
 8005f30:	d00e      	beq.n	8005f50 <_HandleIncomingPacket+0x54>
 8005f32:	e034      	b.n	8005f9e <_HandleIncomingPacket+0xa2>
 8005f34:	2b03      	cmp	r3, #3
 8005f36:	d011      	beq.n	8005f5c <_HandleIncomingPacket+0x60>
 8005f38:	2b04      	cmp	r3, #4
 8005f3a:	d012      	beq.n	8005f62 <_HandleIncomingPacket+0x66>
 8005f3c:	e02f      	b.n	8005f9e <_HandleIncomingPacket+0xa2>
 8005f3e:	2b07      	cmp	r3, #7
 8005f40:	d018      	beq.n	8005f74 <_HandleIncomingPacket+0x78>
 8005f42:	2b07      	cmp	r3, #7
 8005f44:	db13      	blt.n	8005f6e <_HandleIncomingPacket+0x72>
 8005f46:	2b7f      	cmp	r3, #127	; 0x7f
 8005f48:	d038      	beq.n	8005fbc <_HandleIncomingPacket+0xc0>
 8005f4a:	2b80      	cmp	r3, #128	; 0x80
 8005f4c:	d015      	beq.n	8005f7a <_HandleIncomingPacket+0x7e>
 8005f4e:	e026      	b.n	8005f9e <_HandleIncomingPacket+0xa2>
 8005f50:	f000 fba8 	bl	80066a4 <SEGGER_SYSVIEW_Start>
 8005f54:	e037      	b.n	8005fc6 <_HandleIncomingPacket+0xca>
 8005f56:	f000 fc5f 	bl	8006818 <SEGGER_SYSVIEW_Stop>
 8005f5a:	e034      	b.n	8005fc6 <_HandleIncomingPacket+0xca>
 8005f5c:	f000 fe38 	bl	8006bd0 <SEGGER_SYSVIEW_RecordSystime>
 8005f60:	e031      	b.n	8005fc6 <_HandleIncomingPacket+0xca>
 8005f62:	f000 fdfd 	bl	8006b60 <SEGGER_SYSVIEW_SendTaskList>
 8005f66:	e02e      	b.n	8005fc6 <_HandleIncomingPacket+0xca>
 8005f68:	f000 fc7c 	bl	8006864 <SEGGER_SYSVIEW_GetSysDesc>
 8005f6c:	e02b      	b.n	8005fc6 <_HandleIncomingPacket+0xca>
 8005f6e:	f001 f8c9 	bl	8007104 <SEGGER_SYSVIEW_SendNumModules>
 8005f72:	e028      	b.n	8005fc6 <_HandleIncomingPacket+0xca>
 8005f74:	f001 f8a8 	bl	80070c8 <SEGGER_SYSVIEW_SendModuleDescription>
 8005f78:	e025      	b.n	8005fc6 <_HandleIncomingPacket+0xca>
 8005f7a:	4b15      	ldr	r3, [pc, #84]	; (8005fd0 <_HandleIncomingPacket+0xd4>)
 8005f7c:	7e1b      	ldrb	r3, [r3, #24]
 8005f7e:	4618      	mov	r0, r3
 8005f80:	1cfb      	adds	r3, r7, #3
 8005f82:	2201      	movs	r2, #1
 8005f84:	4619      	mov	r1, r3
 8005f86:	f7ff fe07 	bl	8005b98 <SEGGER_RTT_ReadNoLock>
 8005f8a:	4603      	mov	r3, r0
 8005f8c:	607b      	str	r3, [r7, #4]
 8005f8e:	687b      	ldr	r3, [r7, #4]
 8005f90:	2b00      	cmp	r3, #0
 8005f92:	dd15      	ble.n	8005fc0 <_HandleIncomingPacket+0xc4>
 8005f94:	78fb      	ldrb	r3, [r7, #3]
 8005f96:	4618      	mov	r0, r3
 8005f98:	f001 f816 	bl	8006fc8 <SEGGER_SYSVIEW_SendModule>
 8005f9c:	e010      	b.n	8005fc0 <_HandleIncomingPacket+0xc4>
 8005f9e:	78fb      	ldrb	r3, [r7, #3]
 8005fa0:	b25b      	sxtb	r3, r3
 8005fa2:	2b00      	cmp	r3, #0
 8005fa4:	da0e      	bge.n	8005fc4 <_HandleIncomingPacket+0xc8>
 8005fa6:	4b0a      	ldr	r3, [pc, #40]	; (8005fd0 <_HandleIncomingPacket+0xd4>)
 8005fa8:	7e1b      	ldrb	r3, [r3, #24]
 8005faa:	4618      	mov	r0, r3
 8005fac:	1cfb      	adds	r3, r7, #3
 8005fae:	2201      	movs	r2, #1
 8005fb0:	4619      	mov	r1, r3
 8005fb2:	f7ff fdf1 	bl	8005b98 <SEGGER_RTT_ReadNoLock>
 8005fb6:	e005      	b.n	8005fc4 <_HandleIncomingPacket+0xc8>
 8005fb8:	bf00      	nop
 8005fba:	e004      	b.n	8005fc6 <_HandleIncomingPacket+0xca>
 8005fbc:	bf00      	nop
 8005fbe:	e002      	b.n	8005fc6 <_HandleIncomingPacket+0xca>
 8005fc0:	bf00      	nop
 8005fc2:	e000      	b.n	8005fc6 <_HandleIncomingPacket+0xca>
 8005fc4:	bf00      	nop
 8005fc6:	bf00      	nop
 8005fc8:	3708      	adds	r7, #8
 8005fca:	46bd      	mov	sp, r7
 8005fcc:	bd80      	pop	{r7, pc}
 8005fce:	bf00      	nop
 8005fd0:	2001a658 	.word	0x2001a658

08005fd4 <_TrySendOverflowPacket>:
 8005fd4:	b580      	push	{r7, lr}
 8005fd6:	b08c      	sub	sp, #48	; 0x30
 8005fd8:	af00      	add	r7, sp, #0
 8005fda:	2301      	movs	r3, #1
 8005fdc:	713b      	strb	r3, [r7, #4]
 8005fde:	1d3b      	adds	r3, r7, #4
 8005fe0:	3301      	adds	r3, #1
 8005fe2:	61fb      	str	r3, [r7, #28]
 8005fe4:	69fb      	ldr	r3, [r7, #28]
 8005fe6:	62fb      	str	r3, [r7, #44]	; 0x2c
 8005fe8:	4b31      	ldr	r3, [pc, #196]	; (80060b0 <_TrySendOverflowPacket+0xdc>)
 8005fea:	695b      	ldr	r3, [r3, #20]
 8005fec:	62bb      	str	r3, [r7, #40]	; 0x28
 8005fee:	e00b      	b.n	8006008 <_TrySendOverflowPacket+0x34>
 8005ff0:	6abb      	ldr	r3, [r7, #40]	; 0x28
 8005ff2:	b2da      	uxtb	r2, r3
 8005ff4:	6afb      	ldr	r3, [r7, #44]	; 0x2c
 8005ff6:	1c59      	adds	r1, r3, #1
 8005ff8:	62f9      	str	r1, [r7, #44]	; 0x2c
 8005ffa:	f062 027f 	orn	r2, r2, #127	; 0x7f
 8005ffe:	b2d2      	uxtb	r2, r2
 8006000:	701a      	strb	r2, [r3, #0]
 8006002:	6abb      	ldr	r3, [r7, #40]	; 0x28
 8006004:	09db      	lsrs	r3, r3, #7
 8006006:	62bb      	str	r3, [r7, #40]	; 0x28
 8006008:	6abb      	ldr	r3, [r7, #40]	; 0x28
 800600a:	2b7f      	cmp	r3, #127	; 0x7f
 800600c:	d8f0      	bhi.n	8005ff0 <_TrySendOverflowPacket+0x1c>
 800600e:	6afb      	ldr	r3, [r7, #44]	; 0x2c
 8006010:	1c5a      	adds	r2, r3, #1
 8006012:	62fa      	str	r2, [r7, #44]	; 0x2c
 8006014:	6aba      	ldr	r2, [r7, #40]	; 0x28
 8006016:	b2d2      	uxtb	r2, r2
 8006018:	701a      	strb	r2, [r3, #0]
 800601a:	6afb      	ldr	r3, [r7, #44]	; 0x2c
 800601c:	61fb      	str	r3, [r7, #28]
 800601e:	4b25      	ldr	r3, [pc, #148]	; (80060b4 <_TrySendOverflowPacket+0xe0>)
 8006020:	681b      	ldr	r3, [r3, #0]
 8006022:	61bb      	str	r3, [r7, #24]
 8006024:	4b22      	ldr	r3, [pc, #136]	; (80060b0 <_TrySendOverflowPacket+0xdc>)
 8006026:	68db      	ldr	r3, [r3, #12]
 8006028:	69ba      	ldr	r2, [r7, #24]
 800602a:	1ad3      	subs	r3, r2, r3
 800602c:	617b      	str	r3, [r7, #20]
 800602e:	69fb      	ldr	r3, [r7, #28]
 8006030:	627b      	str	r3, [r7, #36]	; 0x24
 8006032:	697b      	ldr	r3, [r7, #20]
 8006034:	623b      	str	r3, [r7, #32]
 8006036:	e00b      	b.n	8006050 <_TrySendOverflowPacket+0x7c>
 8006038:	6a3b      	ldr	r3, [r7, #32]
 800603a:	b2da      	uxtb	r2, r3
 800603c:	6a7b      	ldr	r3, [r7, #36]	; 0x24
 800603e:	1c59      	adds	r1, r3, #1
 8006040:	6279      	str	r1, [r7, #36]	; 0x24
 8006042:	f062 027f 	orn	r2, r2, #127	; 0x7f
 8006046:	b2d2      	uxtb	r2, r2
 8006048:	701a      	strb	r2, [r3, #0]
 800604a:	6a3b      	ldr	r3, [r7, #32]
 800604c:	09db      	lsrs	r3, r3, #7
 800604e:	623b      	str	r3, [r7, #32]
 8006050:	6a3b      	ldr	r3, [r7, #32]
 8006052:	2b7f      	cmp	r3, #127	; 0x7f
 8006054:	d8f0      	bhi.n	8006038 <_TrySendOverflowPacket+0x64>
 8006056:	6a7b      	ldr	r3, [r7, #36]	; 0x24
 8006058:	1c5a      	adds	r2, r3, #1
 800605a:	627a      	str	r2, [r7, #36]	; 0x24
 800605c:	6a3a      	ldr	r2, [r7, #32]
 800605e:	b2d2      	uxtb	r2, r2
 8006060:	701a      	strb	r2, [r3, #0]
 8006062:	6a7b      	ldr	r3, [r7, #36]	; 0x24
 8006064:	61fb      	str	r3, [r7, #28]
 8006066:	4b12      	ldr	r3, [pc, #72]	; (80060b0 <_TrySendOverflowPacket+0xdc>)
 8006068:	785b      	ldrb	r3, [r3, #1]
 800606a:	4618      	mov	r0, r3
 800606c:	69fa      	ldr	r2, [r7, #28]
 800606e:	1d3b      	adds	r3, r7, #4
 8006070:	1ad3      	subs	r3, r2, r3
 8006072:	461a      	mov	r2, r3
 8006074:	1d3b      	adds	r3, r7, #4
 8006076:	4619      	mov	r1, r3
 8006078:	f7fa f8aa 	bl	80001d0 <SEGGER_RTT_ASM_WriteSkipNoLock>
 800607c:	4603      	mov	r3, r0
 800607e:	613b      	str	r3, [r7, #16]
 8006080:	693b      	ldr	r3, [r7, #16]
 8006082:	2b00      	cmp	r3, #0
 8006084:	d009      	beq.n	800609a <_TrySendOverflowPacket+0xc6>
 8006086:	4a0a      	ldr	r2, [pc, #40]	; (80060b0 <_TrySendOverflowPacket+0xdc>)
 8006088:	69bb      	ldr	r3, [r7, #24]
 800608a:	60d3      	str	r3, [r2, #12]
 800608c:	4b08      	ldr	r3, [pc, #32]	; (80060b0 <_TrySendOverflowPacket+0xdc>)
 800608e:	781b      	ldrb	r3, [r3, #0]
 8006090:	3b01      	subs	r3, #1
 8006092:	b2da      	uxtb	r2, r3
 8006094:	4b06      	ldr	r3, [pc, #24]	; (80060b0 <_TrySendOverflowPacket+0xdc>)
 8006096:	701a      	strb	r2, [r3, #0]
 8006098:	e004      	b.n	80060a4 <_TrySendOverflowPacket+0xd0>
 800609a:	4b05      	ldr	r3, [pc, #20]	; (80060b0 <_TrySendOverflowPacket+0xdc>)
 800609c:	695b      	ldr	r3, [r3, #20]
 800609e:	3301      	adds	r3, #1
 80060a0:	4a03      	ldr	r2, [pc, #12]	; (80060b0 <_TrySendOverflowPacket+0xdc>)
 80060a2:	6153      	str	r3, [r2, #20]
 80060a4:	693b      	ldr	r3, [r7, #16]
 80060a6:	4618      	mov	r0, r3
 80060a8:	3730      	adds	r7, #48	; 0x30
 80060aa:	46bd      	mov	sp, r7
 80060ac:	bd80      	pop	{r7, pc}
 80060ae:	bf00      	nop
 80060b0:	2001a658 	.word	0x2001a658
 80060b4:	e0001004 	.word	0xe0001004

080060b8 <_SendPacket>:
 80060b8:	b580      	push	{r7, lr}
 80060ba:	b08a      	sub	sp, #40	; 0x28
 80060bc:	af00      	add	r7, sp, #0
 80060be:	60f8      	str	r0, [r7, #12]
 80060c0:	60b9      	str	r1, [r7, #8]
 80060c2:	607a      	str	r2, [r7, #4]
 80060c4:	4b6c      	ldr	r3, [pc, #432]	; (8006278 <_SendPacket+0x1c0>)
 80060c6:	781b      	ldrb	r3, [r3, #0]
 80060c8:	2b01      	cmp	r3, #1
 80060ca:	d010      	beq.n	80060ee <_SendPacket+0x36>
 80060cc:	4b6a      	ldr	r3, [pc, #424]	; (8006278 <_SendPacket+0x1c0>)
 80060ce:	781b      	ldrb	r3, [r3, #0]
 80060d0:	2b00      	cmp	r3, #0
 80060d2:	f000 80a3 	beq.w	800621c <_SendPacket+0x164>
 80060d6:	4b68      	ldr	r3, [pc, #416]	; (8006278 <_SendPacket+0x1c0>)
 80060d8:	781b      	ldrb	r3, [r3, #0]
 80060da:	2b02      	cmp	r3, #2
 80060dc:	d109      	bne.n	80060f2 <_SendPacket+0x3a>
 80060de:	f7ff ff79 	bl	8005fd4 <_TrySendOverflowPacket>
 80060e2:	4b65      	ldr	r3, [pc, #404]	; (8006278 <_SendPacket+0x1c0>)
 80060e4:	781b      	ldrb	r3, [r3, #0]
 80060e6:	2b01      	cmp	r3, #1
 80060e8:	f040 809a 	bne.w	8006220 <_SendPacket+0x168>
 80060ec:	e001      	b.n	80060f2 <_SendPacket+0x3a>
 80060ee:	bf00      	nop
 80060f0:	e000      	b.n	80060f4 <_SendPacket+0x3c>
 80060f2:	bf00      	nop
 80060f4:	687b      	ldr	r3, [r7, #4]
 80060f6:	2b1f      	cmp	r3, #31
 80060f8:	d809      	bhi.n	800610e <_SendPacket+0x56>
 80060fa:	4b5f      	ldr	r3, [pc, #380]	; (8006278 <_SendPacket+0x1c0>)
 80060fc:	69da      	ldr	r2, [r3, #28]
 80060fe:	687b      	ldr	r3, [r7, #4]
 8006100:	fa22 f303 	lsr.w	r3, r2, r3
 8006104:	f003 0301 	and.w	r3, r3, #1
 8006108:	2b00      	cmp	r3, #0
 800610a:	f040 808b 	bne.w	8006224 <_SendPacket+0x16c>
 800610e:	687b      	ldr	r3, [r7, #4]
 8006110:	2b17      	cmp	r3, #23
 8006112:	d807      	bhi.n	8006124 <_SendPacket+0x6c>
 8006114:	68fb      	ldr	r3, [r7, #12]
 8006116:	3b01      	subs	r3, #1
 8006118:	60fb      	str	r3, [r7, #12]
 800611a:	687b      	ldr	r3, [r7, #4]
 800611c:	b2da      	uxtb	r2, r3
 800611e:	68fb      	ldr	r3, [r7, #12]
 8006120:	701a      	strb	r2, [r3, #0]
 8006122:	e03d      	b.n	80061a0 <_SendPacket+0xe8>
 8006124:	68ba      	ldr	r2, [r7, #8]
 8006126:	68fb      	ldr	r3, [r7, #12]
 8006128:	1ad3      	subs	r3, r2, r3
 800612a:	61fb      	str	r3, [r7, #28]
 800612c:	69fb      	ldr	r3, [r7, #28]
 800612e:	2b7f      	cmp	r3, #127	; 0x7f
 8006130:	d912      	bls.n	8006158 <_SendPacket+0xa0>
 8006132:	69fb      	ldr	r3, [r7, #28]
 8006134:	09da      	lsrs	r2, r3, #7
 8006136:	68fb      	ldr	r3, [r7, #12]
 8006138:	3b01      	subs	r3, #1
 800613a:	60fb      	str	r3, [r7, #12]
 800613c:	b2d2      	uxtb	r2, r2
 800613e:	68fb      	ldr	r3, [r7, #12]
 8006140:	701a      	strb	r2, [r3, #0]
 8006142:	69fb      	ldr	r3, [r7, #28]
 8006144:	b2db      	uxtb	r3, r3
 8006146:	68fa      	ldr	r2, [r7, #12]
 8006148:	3a01      	subs	r2, #1
 800614a:	60fa      	str	r2, [r7, #12]
 800614c:	f063 037f 	orn	r3, r3, #127	; 0x7f
 8006150:	b2da      	uxtb	r2, r3
 8006152:	68fb      	ldr	r3, [r7, #12]
 8006154:	701a      	strb	r2, [r3, #0]
 8006156:	e006      	b.n	8006166 <_SendPacket+0xae>
 8006158:	68fb      	ldr	r3, [r7, #12]
 800615a:	3b01      	subs	r3, #1
 800615c:	60fb      	str	r3, [r7, #12]
 800615e:	69fb      	ldr	r3, [r7, #28]
 8006160:	b2da      	uxtb	r2, r3
 8006162:	68fb      	ldr	r3, [r7, #12]
 8006164:	701a      	strb	r2, [r3, #0]
 8006166:	687b      	ldr	r3, [r7, #4]
 8006168:	2b7f      	cmp	r3, #127	; 0x7f
 800616a:	d912      	bls.n	8006192 <_SendPacket+0xda>
 800616c:	687b      	ldr	r3, [r7, #4]
 800616e:	09da      	lsrs	r2, r3, #7
 8006170:	68fb      	ldr	r3, [r7, #12]
 8006172:	3b01      	subs	r3, #1
 8006174:	60fb      	str	r3, [r7, #12]
 8006176:	b2d2      	uxtb	r2, r2
 8006178:	68fb      	ldr	r3, [r7, #12]
 800617a:	701a      	strb	r2, [r3, #0]
 800617c:	687b      	ldr	r3, [r7, #4]
 800617e:	b2db      	uxtb	r3, r3
 8006180:	68fa      	ldr	r2, [r7, #12]
 8006182:	3a01      	subs	r2, #1
 8006184:	60fa      	str	r2, [r7, #12]
 8006186:	f063 037f 	orn	r3, r3, #127	; 0x7f
 800618a:	b2da      	uxtb	r2, r3
 800618c:	68fb      	ldr	r3, [r7, #12]
 800618e:	701a      	strb	r2, [r3, #0]
 8006190:	e006      	b.n	80061a0 <_SendPacket+0xe8>
 8006192:	68fb      	ldr	r3, [r7, #12]
 8006194:	3b01      	subs	r3, #1
 8006196:	60fb      	str	r3, [r7, #12]
 8006198:	687b      	ldr	r3, [r7, #4]
 800619a:	b2da      	uxtb	r2, r3
 800619c:	68fb      	ldr	r3, [r7, #12]
 800619e:	701a      	strb	r2, [r3, #0]
 80061a0:	4b36      	ldr	r3, [pc, #216]	; (800627c <_SendPacket+0x1c4>)
 80061a2:	681b      	ldr	r3, [r3, #0]
 80061a4:	61bb      	str	r3, [r7, #24]
 80061a6:	4b34      	ldr	r3, [pc, #208]	; (8006278 <_SendPacket+0x1c0>)
 80061a8:	68db      	ldr	r3, [r3, #12]
 80061aa:	69ba      	ldr	r2, [r7, #24]
 80061ac:	1ad3      	subs	r3, r2, r3
 80061ae:	617b      	str	r3, [r7, #20]
 80061b0:	68bb      	ldr	r3, [r7, #8]
 80061b2:	627b      	str	r3, [r7, #36]	; 0x24
 80061b4:	697b      	ldr	r3, [r7, #20]
 80061b6:	623b      	str	r3, [r7, #32]
 80061b8:	e00b      	b.n	80061d2 <_SendPacket+0x11a>
 80061ba:	6a3b      	ldr	r3, [r7, #32]
 80061bc:	b2da      	uxtb	r2, r3
 80061be:	6a7b      	ldr	r3, [r7, #36]	; 0x24
 80061c0:	1c59      	adds	r1, r3, #1
 80061c2:	6279      	str	r1, [r7, #36]	; 0x24
 80061c4:	f062 027f 	orn	r2, r2, #127	; 0x7f
 80061c8:	b2d2      	uxtb	r2, r2
 80061ca:	701a      	strb	r2, [r3, #0]
 80061cc:	6a3b      	ldr	r3, [r7, #32]
 80061ce:	09db      	lsrs	r3, r3, #7
 80061d0:	623b      	str	r3, [r7, #32]
 80061d2:	6a3b      	ldr	r3, [r7, #32]
 80061d4:	2b7f      	cmp	r3, #127	; 0x7f
 80061d6:	d8f0      	bhi.n	80061ba <_SendPacket+0x102>
 80061d8:	6a7b      	ldr	r3, [r7, #36]	; 0x24
 80061da:	1c5a      	adds	r2, r3, #1
 80061dc:	627a      	str	r2, [r7, #36]	; 0x24
 80061de:	6a3a      	ldr	r2, [r7, #32]
 80061e0:	b2d2      	uxtb	r2, r2
 80061e2:	701a      	strb	r2, [r3, #0]
 80061e4:	6a7b      	ldr	r3, [r7, #36]	; 0x24
 80061e6:	60bb      	str	r3, [r7, #8]
 80061e8:	4b23      	ldr	r3, [pc, #140]	; (8006278 <_SendPacket+0x1c0>)
 80061ea:	785b      	ldrb	r3, [r3, #1]
 80061ec:	4618      	mov	r0, r3
 80061ee:	68ba      	ldr	r2, [r7, #8]
 80061f0:	68fb      	ldr	r3, [r7, #12]
 80061f2:	1ad3      	subs	r3, r2, r3
 80061f4:	461a      	mov	r2, r3
 80061f6:	68f9      	ldr	r1, [r7, #12]
 80061f8:	f7f9 ffea 	bl	80001d0 <SEGGER_RTT_ASM_WriteSkipNoLock>
 80061fc:	4603      	mov	r3, r0
 80061fe:	613b      	str	r3, [r7, #16]
 8006200:	693b      	ldr	r3, [r7, #16]
 8006202:	2b00      	cmp	r3, #0
 8006204:	d003      	beq.n	800620e <_SendPacket+0x156>
 8006206:	4a1c      	ldr	r2, [pc, #112]	; (8006278 <_SendPacket+0x1c0>)
 8006208:	69bb      	ldr	r3, [r7, #24]
 800620a:	60d3      	str	r3, [r2, #12]
 800620c:	e00b      	b.n	8006226 <_SendPacket+0x16e>
 800620e:	4b1a      	ldr	r3, [pc, #104]	; (8006278 <_SendPacket+0x1c0>)
 8006210:	781b      	ldrb	r3, [r3, #0]
 8006212:	3301      	adds	r3, #1
 8006214:	b2da      	uxtb	r2, r3
 8006216:	4b18      	ldr	r3, [pc, #96]	; (8006278 <_SendPacket+0x1c0>)
 8006218:	701a      	strb	r2, [r3, #0]
 800621a:	e004      	b.n	8006226 <_SendPacket+0x16e>
 800621c:	bf00      	nop
 800621e:	e002      	b.n	8006226 <_SendPacket+0x16e>
 8006220:	bf00      	nop
 8006222:	e000      	b.n	8006226 <_SendPacket+0x16e>
 8006224:	bf00      	nop
 8006226:	4b14      	ldr	r3, [pc, #80]	; (8006278 <_SendPacket+0x1c0>)
 8006228:	7e1b      	ldrb	r3, [r3, #24]
 800622a:	4619      	mov	r1, r3
 800622c:	4a14      	ldr	r2, [pc, #80]	; (8006280 <_SendPacket+0x1c8>)
 800622e:	460b      	mov	r3, r1
 8006230:	005b      	lsls	r3, r3, #1
 8006232:	440b      	add	r3, r1
 8006234:	00db      	lsls	r3, r3, #3
 8006236:	4413      	add	r3, r2
 8006238:	336c      	adds	r3, #108	; 0x6c
 800623a:	681a      	ldr	r2, [r3, #0]
 800623c:	4b0e      	ldr	r3, [pc, #56]	; (8006278 <_SendPacket+0x1c0>)
 800623e:	7e1b      	ldrb	r3, [r3, #24]
 8006240:	4618      	mov	r0, r3
 8006242:	490f      	ldr	r1, [pc, #60]	; (8006280 <_SendPacket+0x1c8>)
 8006244:	4603      	mov	r3, r0
 8006246:	005b      	lsls	r3, r3, #1
 8006248:	4403      	add	r3, r0
 800624a:	00db      	lsls	r3, r3, #3
 800624c:	440b      	add	r3, r1
 800624e:	3370      	adds	r3, #112	; 0x70
 8006250:	681b      	ldr	r3, [r3, #0]
 8006252:	429a      	cmp	r2, r3
 8006254:	d00b      	beq.n	800626e <_SendPacket+0x1b6>
 8006256:	4b08      	ldr	r3, [pc, #32]	; (8006278 <_SendPacket+0x1c0>)
 8006258:	789b      	ldrb	r3, [r3, #2]
 800625a:	2b00      	cmp	r3, #0
 800625c:	d107      	bne.n	800626e <_SendPacket+0x1b6>
 800625e:	4b06      	ldr	r3, [pc, #24]	; (8006278 <_SendPacket+0x1c0>)
 8006260:	2201      	movs	r2, #1
 8006262:	709a      	strb	r2, [r3, #2]
 8006264:	f7ff fe4a 	bl	8005efc <_HandleIncomingPacket>
 8006268:	4b03      	ldr	r3, [pc, #12]	; (8006278 <_SendPacket+0x1c0>)
 800626a:	2200      	movs	r2, #0
 800626c:	709a      	strb	r2, [r3, #2]
 800626e:	bf00      	nop
 8006270:	3728      	adds	r7, #40	; 0x28
 8006272:	46bd      	mov	sp, r7
 8006274:	bd80      	pop	{r7, pc}
 8006276:	bf00      	nop
 8006278:	2001a658 	.word	0x2001a658
 800627c:	e0001004 	.word	0xe0001004
 8006280:	2001a870 	.word	0x2001a870

08006284 <SEGGER_SYSVIEW_Init>:
 8006284:	b580      	push	{r7, lr}
 8006286:	b086      	sub	sp, #24
 8006288:	af02      	add	r7, sp, #8
 800628a:	60f8      	str	r0, [r7, #12]
 800628c:	60b9      	str	r1, [r7, #8]
 800628e:	607a      	str	r2, [r7, #4]
 8006290:	603b      	str	r3, [r7, #0]
 8006292:	2300      	movs	r3, #0
 8006294:	f44f 5280 	mov.w	r2, #4096	; 0x1000
 8006298:	4917      	ldr	r1, [pc, #92]	; (80062f8 <SEGGER_SYSVIEW_Init+0x74>)
 800629a:	4818      	ldr	r0, [pc, #96]	; (80062fc <SEGGER_SYSVIEW_Init+0x78>)
 800629c:	f7ff fd02 	bl	8005ca4 <SEGGER_RTT_AllocUpBuffer>
 80062a0:	4603      	mov	r3, r0
 80062a2:	b2da      	uxtb	r2, r3
 80062a4:	4b16      	ldr	r3, [pc, #88]	; (8006300 <SEGGER_SYSVIEW_Init+0x7c>)
 80062a6:	705a      	strb	r2, [r3, #1]
 80062a8:	4b15      	ldr	r3, [pc, #84]	; (8006300 <SEGGER_SYSVIEW_Init+0x7c>)
 80062aa:	785a      	ldrb	r2, [r3, #1]
 80062ac:	4b14      	ldr	r3, [pc, #80]	; (8006300 <SEGGER_SYSVIEW_Init+0x7c>)
 80062ae:	761a      	strb	r2, [r3, #24]
 80062b0:	4b13      	ldr	r3, [pc, #76]	; (8006300 <SEGGER_SYSVIEW_Init+0x7c>)
 80062b2:	7e1b      	ldrb	r3, [r3, #24]
 80062b4:	4618      	mov	r0, r3
 80062b6:	2300      	movs	r3, #0
 80062b8:	9300      	str	r3, [sp, #0]
 80062ba:	2308      	movs	r3, #8
 80062bc:	4a11      	ldr	r2, [pc, #68]	; (8006304 <SEGGER_SYSVIEW_Init+0x80>)
 80062be:	490f      	ldr	r1, [pc, #60]	; (80062fc <SEGGER_SYSVIEW_Init+0x78>)
 80062c0:	f7ff fd74 	bl	8005dac <SEGGER_RTT_ConfigDownBuffer>
 80062c4:	4b0e      	ldr	r3, [pc, #56]	; (8006300 <SEGGER_SYSVIEW_Init+0x7c>)
 80062c6:	2200      	movs	r2, #0
 80062c8:	611a      	str	r2, [r3, #16]
 80062ca:	4b0f      	ldr	r3, [pc, #60]	; (8006308 <SEGGER_SYSVIEW_Init+0x84>)
 80062cc:	681b      	ldr	r3, [r3, #0]
 80062ce:	4a0c      	ldr	r2, [pc, #48]	; (8006300 <SEGGER_SYSVIEW_Init+0x7c>)
 80062d0:	60d3      	str	r3, [r2, #12]
 80062d2:	4a0b      	ldr	r2, [pc, #44]	; (8006300 <SEGGER_SYSVIEW_Init+0x7c>)
 80062d4:	687b      	ldr	r3, [r7, #4]
 80062d6:	6213      	str	r3, [r2, #32]
 80062d8:	4a09      	ldr	r2, [pc, #36]	; (8006300 <SEGGER_SYSVIEW_Init+0x7c>)
 80062da:	68fb      	ldr	r3, [r7, #12]
 80062dc:	6053      	str	r3, [r2, #4]
 80062de:	4a08      	ldr	r2, [pc, #32]	; (8006300 <SEGGER_SYSVIEW_Init+0x7c>)
 80062e0:	68bb      	ldr	r3, [r7, #8]
 80062e2:	6093      	str	r3, [r2, #8]
 80062e4:	4a06      	ldr	r2, [pc, #24]	; (8006300 <SEGGER_SYSVIEW_Init+0x7c>)
 80062e6:	683b      	ldr	r3, [r7, #0]
 80062e8:	6253      	str	r3, [r2, #36]	; 0x24
 80062ea:	4b05      	ldr	r3, [pc, #20]	; (8006300 <SEGGER_SYSVIEW_Init+0x7c>)
 80062ec:	2200      	movs	r2, #0
 80062ee:	701a      	strb	r2, [r3, #0]
 80062f0:	bf00      	nop
 80062f2:	3710      	adds	r7, #16
 80062f4:	46bd      	mov	sp, r7
 80062f6:	bd80      	pop	{r7, pc}
 80062f8:	20019650 	.word	0x20019650
 80062fc:	08007404 	.word	0x08007404
 8006300:	2001a658 	.word	0x2001a658
 8006304:	2001a650 	.word	0x2001a650
 8006308:	e0001004 	.word	0xe0001004

0800630c <SEGGER_SYSVIEW_SetRAMBase>:
 800630c:	b480      	push	{r7}
 800630e:	b083      	sub	sp, #12
 8006310:	af00      	add	r7, sp, #0
 8006312:	6078      	str	r0, [r7, #4]
 8006314:	4a04      	ldr	r2, [pc, #16]	; (8006328 <SEGGER_SYSVIEW_SetRAMBase+0x1c>)
 8006316:	687b      	ldr	r3, [r7, #4]
 8006318:	6113      	str	r3, [r2, #16]
 800631a:	bf00      	nop
 800631c:	370c      	adds	r7, #12
 800631e:	46bd      	mov	sp, r7
 8006320:	f85d 7b04 	ldr.w	r7, [sp], #4
 8006324:	4770      	bx	lr
 8006326:	bf00      	nop
 8006328:	2001a658 	.word	0x2001a658

0800632c <SEGGER_SYSVIEW_RecordVoid>:
 800632c:	b580      	push	{r7, lr}
 800632e:	b084      	sub	sp, #16
 8006330:	af00      	add	r7, sp, #0
 8006332:	6078      	str	r0, [r7, #4]
 8006334:	f3ef 8311 	mrs	r3, BASEPRI
 8006338:	f04f 0120 	mov.w	r1, #32
 800633c:	f381 8811 	msr	BASEPRI, r1
 8006340:	60fb      	str	r3, [r7, #12]
 8006342:	4808      	ldr	r0, [pc, #32]	; (8006364 <SEGGER_SYSVIEW_RecordVoid+0x38>)
 8006344:	f7ff fdce 	bl	8005ee4 <_PreparePacket>
 8006348:	60b8      	str	r0, [r7, #8]
 800634a:	687a      	ldr	r2, [r7, #4]
 800634c:	68b9      	ldr	r1, [r7, #8]
 800634e:	68b8      	ldr	r0, [r7, #8]
 8006350:	f7ff feb2 	bl	80060b8 <_SendPacket>
 8006354:	68fb      	ldr	r3, [r7, #12]
 8006356:	f383 8811 	msr	BASEPRI, r3
 800635a:	bf00      	nop
 800635c:	3710      	adds	r7, #16
 800635e:	46bd      	mov	sp, r7
 8006360:	bd80      	pop	{r7, pc}
 8006362:	bf00      	nop
 8006364:	2001a688 	.word	0x2001a688

08006368 <SEGGER_SYSVIEW_RecordU32>:
 8006368:	b580      	push	{r7, lr}
 800636a:	b088      	sub	sp, #32
 800636c:	af00      	add	r7, sp, #0
 800636e:	6078      	str	r0, [r7, #4]
 8006370:	6039      	str	r1, [r7, #0]
 8006372:	f3ef 8311 	mrs	r3, BASEPRI
 8006376:	f04f 0120 	mov.w	r1, #32
 800637a:	f381 8811 	msr	BASEPRI, r1
 800637e:	617b      	str	r3, [r7, #20]
 8006380:	4816      	ldr	r0, [pc, #88]	; (80063dc <SEGGER_SYSVIEW_RecordU32+0x74>)
 8006382:	f7ff fdaf 	bl	8005ee4 <_PreparePacket>
 8006386:	6138      	str	r0, [r7, #16]
 8006388:	693b      	ldr	r3, [r7, #16]
 800638a:	60fb      	str	r3, [r7, #12]
 800638c:	68fb      	ldr	r3, [r7, #12]
 800638e:	61fb      	str	r3, [r7, #28]
 8006390:	683b      	ldr	r3, [r7, #0]
 8006392:	61bb      	str	r3, [r7, #24]
 8006394:	e00b      	b.n	80063ae <SEGGER_SYSVIEW_RecordU32+0x46>
 8006396:	69bb      	ldr	r3, [r7, #24]
 8006398:	b2da      	uxtb	r2, r3
 800639a:	69fb      	ldr	r3, [r7, #28]
 800639c:	1c59      	adds	r1, r3, #1
 800639e:	61f9      	str	r1, [r7, #28]
 80063a0:	f062 027f 	orn	r2, r2, #127	; 0x7f
 80063a4:	b2d2      	uxtb	r2, r2
 80063a6:	701a      	strb	r2, [r3, #0]
 80063a8:	69bb      	ldr	r3, [r7, #24]
 80063aa:	09db      	lsrs	r3, r3, #7
 80063ac:	61bb      	str	r3, [r7, #24]
 80063ae:	69bb      	ldr	r3, [r7, #24]
 80063b0:	2b7f      	cmp	r3, #127	; 0x7f
 80063b2:	d8f0      	bhi.n	8006396 <SEGGER_SYSVIEW_RecordU32+0x2e>
 80063b4:	69fb      	ldr	r3, [r7, #28]
 80063b6:	1c5a      	adds	r2, r3, #1
 80063b8:	61fa      	str	r2, [r7, #28]
 80063ba:	69ba      	ldr	r2, [r7, #24]
 80063bc:	b2d2      	uxtb	r2, r2
 80063be:	701a      	strb	r2, [r3, #0]
 80063c0:	69fb      	ldr	r3, [r7, #28]
 80063c2:	60fb      	str	r3, [r7, #12]
 80063c4:	687a      	ldr	r2, [r7, #4]
 80063c6:	68f9      	ldr	r1, [r7, #12]
 80063c8:	6938      	ldr	r0, [r7, #16]
 80063ca:	f7ff fe75 	bl	80060b8 <_SendPacket>
 80063ce:	697b      	ldr	r3, [r7, #20]
 80063d0:	f383 8811 	msr	BASEPRI, r3
 80063d4:	bf00      	nop
 80063d6:	3720      	adds	r7, #32
 80063d8:	46bd      	mov	sp, r7
 80063da:	bd80      	pop	{r7, pc}
 80063dc:	2001a688 	.word	0x2001a688

080063e0 <SEGGER_SYSVIEW_RecordU32x2>:
 80063e0:	b580      	push	{r7, lr}
 80063e2:	b08c      	sub	sp, #48	; 0x30
 80063e4:	af00      	add	r7, sp, #0
 80063e6:	60f8      	str	r0, [r7, #12]
 80063e8:	60b9      	str	r1, [r7, #8]
 80063ea:	607a      	str	r2, [r7, #4]
 80063ec:	f3ef 8311 	mrs	r3, BASEPRI
 80063f0:	f04f 0120 	mov.w	r1, #32
 80063f4:	f381 8811 	msr	BASEPRI, r1
 80063f8:	61fb      	str	r3, [r7, #28]
 80063fa:	4825      	ldr	r0, [pc, #148]	; (8006490 <SEGGER_SYSVIEW_RecordU32x2+0xb0>)
 80063fc:	f7ff fd72 	bl	8005ee4 <_PreparePacket>
 8006400:	61b8      	str	r0, [r7, #24]
 8006402:	69bb      	ldr	r3, [r7, #24]
 8006404:	617b      	str	r3, [r7, #20]
 8006406:	697b      	ldr	r3, [r7, #20]
 8006408:	62fb      	str	r3, [r7, #44]	; 0x2c
 800640a:	68bb      	ldr	r3, [r7, #8]
 800640c:	62bb      	str	r3, [r7, #40]	; 0x28
 800640e:	e00b      	b.n	8006428 <SEGGER_SYSVIEW_RecordU32x2+0x48>
 8006410:	6abb      	ldr	r3, [r7, #40]	; 0x28
 8006412:	b2da      	uxtb	r2, r3
 8006414:	6afb      	ldr	r3, [r7, #44]	; 0x2c
 8006416:	1c59      	adds	r1, r3, #1
 8006418:	62f9      	str	r1, [r7, #44]	; 0x2c
 800641a:	f062 027f 	orn	r2, r2, #127	; 0x7f
 800641e:	b2d2      	uxtb	r2, r2
 8006420:	701a      	strb	r2, [r3, #0]
 8006422:	6abb      	ldr	r3, [r7, #40]	; 0x28
 8006424:	09db      	lsrs	r3, r3, #7
 8006426:	62bb      	str	r3, [r7, #40]	; 0x28
 8006428:	6abb      	ldr	r3, [r7, #40]	; 0x28
 800642a:	2b7f      	cmp	r3, #127	; 0x7f
 800642c:	d8f0      	bhi.n	8006410 <SEGGER_SYSVIEW_RecordU32x2+0x30>
 800642e:	6afb      	ldr	r3, [r7, #44]	; 0x2c
 8006430:	1c5a      	adds	r2, r3, #1
 8006432:	62fa      	str	r2, [r7, #44]	; 0x2c
 8006434:	6aba      	ldr	r2, [r7, #40]	; 0x28
 8006436:	b2d2      	uxtb	r2, r2
 8006438:	701a      	strb	r2, [r3, #0]
 800643a:	6afb      	ldr	r3, [r7, #44]	; 0x2c
 800643c:	617b      	str	r3, [r7, #20]
 800643e:	697b      	ldr	r3, [r7, #20]
 8006440:	627b      	str	r3, [r7, #36]	; 0x24
 8006442:	687b      	ldr	r3, [r7, #4]
 8006444:	623b      	str	r3, [r7, #32]
 8006446:	e00b      	b.n	8006460 <SEGGER_SYSVIEW_RecordU32x2+0x80>
 8006448:	6a3b      	ldr	r3, [r7, #32]
 800644a:	b2da      	uxtb	r2, r3
 800644c:	6a7b      	ldr	r3, [r7, #36]	; 0x24
 800644e:	1c59      	adds	r1, r3, #1
 8006450:	6279      	str	r1, [r7, #36]	; 0x24
 8006452:	f062 027f 	orn	r2, r2, #127	; 0x7f
 8006456:	b2d2      	uxtb	r2, r2
 8006458:	701a      	strb	r2, [r3, #0]
 800645a:	6a3b      	ldr	r3, [r7, #32]
 800645c:	09db      	lsrs	r3, r3, #7
 800645e:	623b      	str	r3, [r7, #32]
 8006460:	6a3b      	ldr	r3, [r7, #32]
 8006462:	2b7f      	cmp	r3, #127	; 0x7f
 8006464:	d8f0      	bhi.n	8006448 <SEGGER_SYSVIEW_RecordU32x2+0x68>
 8006466:	6a7b      	ldr	r3, [r7, #36]	; 0x24
 8006468:	1c5a      	adds	r2, r3, #1
 800646a:	627a      	str	r2, [r7, #36]	; 0x24
 800646c:	6a3a      	ldr	r2, [r7, #32]
 800646e:	b2d2      	uxtb	r2, r2
 8006470:	701a      	strb	r2, [r3, #0]
 8006472:	6a7b      	ldr	r3, [r7, #36]	; 0x24
 8006474:	617b      	str	r3, [r7, #20]
 8006476:	68fa      	ldr	r2, [r7, #12]
 8006478:	6979      	ldr	r1, [r7, #20]
 800647a:	69b8      	ldr	r0, [r7, #24]
 800647c:	f7ff fe1c 	bl	80060b8 <_SendPacket>
 8006480:	69fb      	ldr	r3, [r7, #28]
 8006482:	f383 8811 	msr	BASEPRI, r3
 8006486:	bf00      	nop
 8006488:	3730      	adds	r7, #48	; 0x30
 800648a:	46bd      	mov	sp, r7
 800648c:	bd80      	pop	{r7, pc}
 800648e:	bf00      	nop
 8006490:	2001a688 	.word	0x2001a688

08006494 <SEGGER_SYSVIEW_RecordU32x3>:
 8006494:	b580      	push	{r7, lr}
 8006496:	b08e      	sub	sp, #56	; 0x38
 8006498:	af00      	add	r7, sp, #0
 800649a:	60f8      	str	r0, [r7, #12]
 800649c:	60b9      	str	r1, [r7, #8]
 800649e:	607a      	str	r2, [r7, #4]
 80064a0:	603b      	str	r3, [r7, #0]
 80064a2:	f3ef 8311 	mrs	r3, BASEPRI
 80064a6:	f04f 0120 	mov.w	r1, #32
 80064aa:	f381 8811 	msr	BASEPRI, r1
 80064ae:	61fb      	str	r3, [r7, #28]
 80064b0:	4832      	ldr	r0, [pc, #200]	; (800657c <SEGGER_SYSVIEW_RecordU32x3+0xe8>)
 80064b2:	f7ff fd17 	bl	8005ee4 <_PreparePacket>
 80064b6:	61b8      	str	r0, [r7, #24]
 80064b8:	69bb      	ldr	r3, [r7, #24]
 80064ba:	617b      	str	r3, [r7, #20]
 80064bc:	697b      	ldr	r3, [r7, #20]
 80064be:	637b      	str	r3, [r7, #52]	; 0x34
 80064c0:	68bb      	ldr	r3, [r7, #8]
 80064c2:	633b      	str	r3, [r7, #48]	; 0x30
 80064c4:	e00b      	b.n	80064de <SEGGER_SYSVIEW_RecordU32x3+0x4a>
 80064c6:	6b3b      	ldr	r3, [r7, #48]	; 0x30
 80064c8:	b2da      	uxtb	r2, r3
 80064ca:	6b7b      	ldr	r3, [r7, #52]	; 0x34
 80064cc:	1c59      	adds	r1, r3, #1
 80064ce:	6379      	str	r1, [r7, #52]	; 0x34
 80064d0:	f062 027f 	orn	r2, r2, #127	; 0x7f
 80064d4:	b2d2      	uxtb	r2, r2
 80064d6:	701a      	strb	r2, [r3, #0]
 80064d8:	6b3b      	ldr	r3, [r7, #48]	; 0x30
 80064da:	09db      	lsrs	r3, r3, #7
 80064dc:	633b      	str	r3, [r7, #48]	; 0x30
 80064de:	6b3b      	ldr	r3, [r7, #48]	; 0x30
 80064e0:	2b7f      	cmp	r3, #127	; 0x7f
 80064e2:	d8f0      	bhi.n	80064c6 <SEGGER_SYSVIEW_RecordU32x3+0x32>
 80064e4:	6b7b      	ldr	r3, [r7, #52]	; 0x34
 80064e6:	1c5a      	adds	r2, r3, #1
 80064e8:	637a      	str	r2, [r7, #52]	; 0x34
 80064ea:	6b3a      	ldr	r2, [r7, #48]	; 0x30
 80064ec:	b2d2      	uxtb	r2, r2
 80064ee:	701a      	strb	r2, [r3, #0]
 80064f0:	6b7b      	ldr	r3, [r7, #52]	; 0x34
 80064f2:	617b      	str	r3, [r7, #20]
 80064f4:	697b      	ldr	r3, [r7, #20]
 80064f6:	62fb      	str	r3, [r7, #44]	; 0x2c
 80064f8:	687b      	ldr	r3, [r7, #4]
 80064fa:	62bb      	str	r3, [r7, #40]	; 0x28
 80064fc:	e00b      	b.n	8006516 <SEGGER_SYSVIEW_RecordU32x3+0x82>
 80064fe:	6abb      	ldr	r3, [r7, #40]	; 0x28
 8006500:	b2da      	uxtb	r2, r3
 8006502:	6afb      	ldr	r3, [r7, #44]	; 0x2c
 8006504:	1c59      	adds	r1, r3, #1
 8006506:	62f9      	str	r1, [r7, #44]	; 0x2c
 8006508:	f062 027f 	orn	r2, r2, #127	; 0x7f
 800650c:	b2d2      	uxtb	r2, r2
 800650e:	701a      	strb	r2, [r3, #0]
 8006510:	6abb      	ldr	r3, [r7, #40]	; 0x28
 8006512:	09db      	lsrs	r3, r3, #7
 8006514:	62bb      	str	r3, [r7, #40]	; 0x28
 8006516:	6abb      	ldr	r3, [r7, #40]	; 0x28
 8006518:	2b7f      	cmp	r3, #127	; 0x7f
 800651a:	d8f0      	bhi.n	80064fe <SEGGER_SYSVIEW_RecordU32x3+0x6a>
 800651c:	6afb      	ldr	r3, [r7, #44]	; 0x2c
 800651e:	1c5a      	adds	r2, r3, #1
 8006520:	62fa      	str	r2, [r7, #44]	; 0x2c
 8006522:	6aba      	ldr	r2, [r7, #40]	; 0x28
 8006524:	b2d2      	uxtb	r2, r2
 8006526:	701a      	strb	r2, [r3, #0]
 8006528:	6afb      	ldr	r3, [r7, #44]	; 0x2c
 800652a:	617b      	str	r3, [r7, #20]
 800652c:	697b      	ldr	r3, [r7, #20]
 800652e:	627b      	str	r3, [r7, #36]	; 0x24
 8006530:	683b      	ldr	r3, [r7, #0]
 8006532:	623b      	str	r3, [r7, #32]
 8006534:	e00b      	b.n	800654e <SEGGER_SYSVIEW_RecordU32x3+0xba>
 8006536:	6a3b      	ldr	r3, [r7, #32]
 8006538:	b2da      	uxtb	r2, r3
 800653a:	6a7b      	ldr	r3, [r7, #36]	; 0x24
 800653c:	1c59      	adds	r1, r3, #1
 800653e:	6279      	str	r1, [r7, #36]	; 0x24
 8006540:	f062 027f 	orn	r2, r2, #127	; 0x7f
 8006544:	b2d2      	uxtb	r2, r2
 8006546:	701a      	strb	r2, [r3, #0]
 8006548:	6a3b      	ldr	r3, [r7, #32]
 800654a:	09db      	lsrs	r3, r3, #7
 800654c:	623b      	str	r3, [r7, #32]
 800654e:	6a3b      	ldr	r3, [r7, #32]
 8006550:	2b7f      	cmp	r3, #127	; 0x7f
 8006552:	d8f0      	bhi.n	8006536 <SEGGER_SYSVIEW_RecordU32x3+0xa2>
 8006554:	6a7b      	ldr	r3, [r7, #36]	; 0x24
 8006556:	1c5a      	adds	r2, r3, #1
 8006558:	627a      	str	r2, [r7, #36]	; 0x24
 800655a:	6a3a      	ldr	r2, [r7, #32]
 800655c:	b2d2      	uxtb	r2, r2
 800655e:	701a      	strb	r2, [r3, #0]
 8006560:	6a7b      	ldr	r3, [r7, #36]	; 0x24
 8006562:	617b      	str	r3, [r7, #20]
 8006564:	68fa      	ldr	r2, [r7, #12]
 8006566:	6979      	ldr	r1, [r7, #20]
 8006568:	69b8      	ldr	r0, [r7, #24]
 800656a:	f7ff fda5 	bl	80060b8 <_SendPacket>
 800656e:	69fb      	ldr	r3, [r7, #28]
 8006570:	f383 8811 	msr	BASEPRI, r3
 8006574:	bf00      	nop
 8006576:	3738      	adds	r7, #56	; 0x38
 8006578:	46bd      	mov	sp, r7
 800657a:	bd80      	pop	{r7, pc}
 800657c:	2001a688 	.word	0x2001a688

08006580 <SEGGER_SYSVIEW_RecordU32x4>:
 8006580:	b580      	push	{r7, lr}
 8006582:	b090      	sub	sp, #64	; 0x40
 8006584:	af00      	add	r7, sp, #0
 8006586:	60f8      	str	r0, [r7, #12]
 8006588:	60b9      	str	r1, [r7, #8]
 800658a:	607a      	str	r2, [r7, #4]
 800658c:	603b      	str	r3, [r7, #0]
 800658e:	f3ef 8311 	mrs	r3, BASEPRI
 8006592:	f04f 0120 	mov.w	r1, #32
 8006596:	f381 8811 	msr	BASEPRI, r1
 800659a:	61fb      	str	r3, [r7, #28]
 800659c:	4840      	ldr	r0, [pc, #256]	; (80066a0 <SEGGER_SYSVIEW_RecordU32x4+0x120>)
 800659e:	f7ff fca1 	bl	8005ee4 <_PreparePacket>
 80065a2:	61b8      	str	r0, [r7, #24]
 80065a4:	69bb      	ldr	r3, [r7, #24]
 80065a6:	617b      	str	r3, [r7, #20]
 80065a8:	697b      	ldr	r3, [r7, #20]
 80065aa:	63fb      	str	r3, [r7, #60]	; 0x3c
 80065ac:	68bb      	ldr	r3, [r7, #8]
 80065ae:	63bb      	str	r3, [r7, #56]	; 0x38
 80065b0:	e00b      	b.n	80065ca <SEGGER_SYSVIEW_RecordU32x4+0x4a>
 80065b2:	6bbb      	ldr	r3, [r7, #56]	; 0x38
 80065b4:	b2da      	uxtb	r2, r3
 80065b6:	6bfb      	ldr	r3, [r7, #60]	; 0x3c
 80065b8:	1c59      	adds	r1, r3, #1
 80065ba:	63f9      	str	r1, [r7, #60]	; 0x3c
 80065bc:	f062 027f 	orn	r2, r2, #127	; 0x7f
 80065c0:	b2d2      	uxtb	r2, r2
 80065c2:	701a      	strb	r2, [r3, #0]
 80065c4:	6bbb      	ldr	r3, [r7, #56]	; 0x38
 80065c6:	09db      	lsrs	r3, r3, #7
 80065c8:	63bb      	str	r3, [r7, #56]	; 0x38
 80065ca:	6bbb      	ldr	r3, [r7, #56]	; 0x38
 80065cc:	2b7f      	cmp	r3, #127	; 0x7f
 80065ce:	d8f0      	bhi.n	80065b2 <SEGGER_SYSVIEW_RecordU32x4+0x32>
 80065d0:	6bfb      	ldr	r3, [r7, #60]	; 0x3c
 80065d2:	1c5a      	adds	r2, r3, #1
 80065d4:	63fa      	str	r2, [r7, #60]	; 0x3c
 80065d6:	6bba      	ldr	r2, [r7, #56]	; 0x38
 80065d8:	b2d2      	uxtb	r2, r2
 80065da:	701a      	strb	r2, [r3, #0]
 80065dc:	6bfb      	ldr	r3, [r7, #60]	; 0x3c
 80065de:	617b      	str	r3, [r7, #20]
 80065e0:	697b      	ldr	r3, [r7, #20]
 80065e2:	637b      	str	r3, [r7, #52]	; 0x34
 80065e4:	687b      	ldr	r3, [r7, #4]
 80065e6:	633b      	str	r3, [r7, #48]	; 0x30
 80065e8:	e00b      	b.n	8006602 <SEGGER_SYSVIEW_RecordU32x4+0x82>
 80065ea:	6b3b      	ldr	r3, [r7, #48]	; 0x30
 80065ec:	b2da      	uxtb	r2, r3
 80065ee:	6b7b      	ldr	r3, [r7, #52]	; 0x34
 80065f0:	1c59      	adds	r1, r3, #1
 80065f2:	6379      	str	r1, [r7, #52]	; 0x34
 80065f4:	f062 027f 	orn	r2, r2, #127	; 0x7f
 80065f8:	b2d2      	uxtb	r2, r2
 80065fa:	701a      	strb	r2, [r3, #0]
 80065fc:	6b3b      	ldr	r3, [r7, #48]	; 0x30
 80065fe:	09db      	lsrs	r3, r3, #7
 8006600:	633b      	str	r3, [r7, #48]	; 0x30
 8006602:	6b3b      	ldr	r3, [r7, #48]	; 0x30
 8006604:	2b7f      	cmp	r3, #127	; 0x7f
 8006606:	d8f0      	bhi.n	80065ea <SEGGER_SYSVIEW_RecordU32x4+0x6a>
 8006608:	6b7b      	ldr	r3, [r7, #52]	; 0x34
 800660a:	1c5a      	adds	r2, r3, #1
 800660c:	637a      	str	r2, [r7, #52]	; 0x34
 800660e:	6b3a      	ldr	r2, [r7, #48]	; 0x30
 8006610:	b2d2      	uxtb	r2, r2
 8006612:	701a      	strb	r2, [r3, #0]
 8006614:	6b7b      	ldr	r3, [r7, #52]	; 0x34
 8006616:	617b      	str	r3, [r7, #20]
 8006618:	697b      	ldr	r3, [r7, #20]
 800661a:	62fb      	str	r3, [r7, #44]	; 0x2c
 800661c:	683b      	ldr	r3, [r7, #0]
 800661e:	62bb      	str	r3, [r7, #40]	; 0x28
 8006620:	e00b      	b.n	800663a <SEGGER_SYSVIEW_RecordU32x4+0xba>
 8006622:	6abb      	ldr	r3, [r7, #40]	; 0x28
 8006624:	b2da      	uxtb	r2, r3
 8006626:	6afb      	ldr	r3, [r7, #44]	; 0x2c
 8006628:	1c59      	adds	r1, r3, #1
 800662a:	62f9      	str	r1, [r7, #44]	; 0x2c
 800662c:	f062 027f 	orn	r2, r2, #127	; 0x7f
 8006630:	b2d2      	uxtb	r2, r2
 8006632:	701a      	strb	r2, [r3, #0]
 8006634:	6abb      	ldr	r3, [r7, #40]	; 0x28
 8006636:	09db      	lsrs	r3, r3, #7
 8006638:	62bb      	str	r3, [r7, #40]	; 0x28
 800663a:	6abb      	ldr	r3, [r7, #40]	; 0x28
 800663c:	2b7f      	cmp	r3, #127	; 0x7f
 800663e:	d8f0      	bhi.n	8006622 <SEGGER_SYSVIEW_RecordU32x4+0xa2>
 8006640:	6afb      	ldr	r3, [r7, #44]	; 0x2c
 8006642:	1c5a      	adds	r2, r3, #1
 8006644:	62fa      	str	r2, [r7, #44]	; 0x2c
 8006646:	6aba      	ldr	r2, [r7, #40]	; 0x28
 8006648:	b2d2      	uxtb	r2, r2
 800664a:	701a      	strb	r2, [r3, #0]
 800664c:	6afb      	ldr	r3, [r7, #44]	; 0x2c
 800664e:	617b      	str	r3, [r7, #20]
 8006650:	697b      	ldr	r3, [r7, #20]
 8006652:	627b      	str	r3, [r7, #36]	; 0x24
 8006654:	6cbb      	ldr	r3, [r7, #72]	; 0x48
 8006656:	623b      	str	r3, [r7, #32]
 8006658:	e00b      	b.n	8006672 <SEGGER_SYSVIEW_RecordU32x4+0xf2>
 800665a:	6a3b      	ldr	r3, [r7, #32]
 800665c:	b2da      	uxtb	r2, r3
 800665e:	6a7b      	ldr	r3, [r7, #36]	; 0x24
 8006660:	1c59      	adds	r1, r3, #1
 8006662:	6279      	str	r1, [r7, #36]	; 0x24
 8006664:	f062 027f 	orn	r2, r2, #127	; 0x7f
 8006668:	b2d2      	uxtb	r2, r2
 800666a:	701a      	strb	r2, [r3, #0]
 800666c:	6a3b      	ldr	r3, [r7, #32]
 800666e:	09db      	lsrs	r3, r3, #7
 8006670:	623b      	str	r3, [r7, #32]
 8006672:	6a3b      	ldr	r3, [r7, #32]
 8006674:	2b7f      	cmp	r3, #127	; 0x7f
 8006676:	d8f0      	bhi.n	800665a <SEGGER_SYSVIEW_RecordU32x4+0xda>
 8006678:	6a7b      	ldr	r3, [r7, #36]	; 0x24
 800667a:	1c5a      	adds	r2, r3, #1
 800667c:	627a      	str	r2, [r7, #36]	; 0x24
 800667e:	6a3a      	ldr	r2, [r7, #32]
 8006680:	b2d2      	uxtb	r2, r2
 8006682:	701a      	strb	r2, [r3, #0]
 8006684:	6a7b      	ldr	r3, [r7, #36]	; 0x24
 8006686:	617b      	str	r3, [r7, #20]
 8006688:	68fa      	ldr	r2, [r7, #12]
 800668a:	6979      	ldr	r1, [r7, #20]
 800668c:	69b8      	ldr	r0, [r7, #24]
 800668e:	f7ff fd13 	bl	80060b8 <_SendPacket>
 8006692:	69fb      	ldr	r3, [r7, #28]
 8006694:	f383 8811 	msr	BASEPRI, r3
 8006698:	bf00      	nop
 800669a:	3740      	adds	r7, #64	; 0x40
 800669c:	46bd      	mov	sp, r7
 800669e:	bd80      	pop	{r7, pc}
 80066a0:	2001a688 	.word	0x2001a688

080066a4 <SEGGER_SYSVIEW_Start>:
 80066a4:	b580      	push	{r7, lr}
 80066a6:	b08c      	sub	sp, #48	; 0x30
 80066a8:	af00      	add	r7, sp, #0
 80066aa:	4b58      	ldr	r3, [pc, #352]	; (800680c <SEGGER_SYSVIEW_Start+0x168>)
 80066ac:	2201      	movs	r2, #1
 80066ae:	701a      	strb	r2, [r3, #0]
 80066b0:	f3ef 8311 	mrs	r3, BASEPRI
 80066b4:	f04f 0120 	mov.w	r1, #32
 80066b8:	f381 8811 	msr	BASEPRI, r1
 80066bc:	60fb      	str	r3, [r7, #12]
 80066be:	4b53      	ldr	r3, [pc, #332]	; (800680c <SEGGER_SYSVIEW_Start+0x168>)
 80066c0:	785b      	ldrb	r3, [r3, #1]
 80066c2:	220a      	movs	r2, #10
 80066c4:	4952      	ldr	r1, [pc, #328]	; (8006810 <SEGGER_SYSVIEW_Start+0x16c>)
 80066c6:	4618      	mov	r0, r3
 80066c8:	f7f9 fd82 	bl	80001d0 <SEGGER_RTT_ASM_WriteSkipNoLock>
 80066cc:	68fb      	ldr	r3, [r7, #12]
 80066ce:	f383 8811 	msr	BASEPRI, r3
 80066d2:	200a      	movs	r0, #10
 80066d4:	f7ff fe2a 	bl	800632c <SEGGER_SYSVIEW_RecordVoid>
 80066d8:	f3ef 8311 	mrs	r3, BASEPRI
 80066dc:	f04f 0120 	mov.w	r1, #32
 80066e0:	f381 8811 	msr	BASEPRI, r1
 80066e4:	60bb      	str	r3, [r7, #8]
 80066e6:	484b      	ldr	r0, [pc, #300]	; (8006814 <SEGGER_SYSVIEW_Start+0x170>)
 80066e8:	f7ff fbfc 	bl	8005ee4 <_PreparePacket>
 80066ec:	6078      	str	r0, [r7, #4]
 80066ee:	687b      	ldr	r3, [r7, #4]
 80066f0:	603b      	str	r3, [r7, #0]
 80066f2:	683b      	ldr	r3, [r7, #0]
 80066f4:	62fb      	str	r3, [r7, #44]	; 0x2c
 80066f6:	4b45      	ldr	r3, [pc, #276]	; (800680c <SEGGER_SYSVIEW_Start+0x168>)
 80066f8:	685b      	ldr	r3, [r3, #4]
 80066fa:	62bb      	str	r3, [r7, #40]	; 0x28
 80066fc:	e00b      	b.n	8006716 <SEGGER_SYSVIEW_Start+0x72>
 80066fe:	6abb      	ldr	r3, [r7, #40]	; 0x28
 8006700:	b2da      	uxtb	r2, r3
 8006702:	6afb      	ldr	r3, [r7, #44]	; 0x2c
 8006704:	1c59      	adds	r1, r3, #1
 8006706:	62f9      	str	r1, [r7, #44]	; 0x2c
 8006708:	f062 027f 	orn	r2, r2, #127	; 0x7f
 800670c:	b2d2      	uxtb	r2, r2
 800670e:	701a      	strb	r2, [r3, #0]
 8006710:	6abb      	ldr	r3, [r7, #40]	; 0x28
 8006712:	09db      	lsrs	r3, r3, #7
 8006714:	62bb      	str	r3, [r7, #40]	; 0x28
 8006716:	6abb      	ldr	r3, [r7, #40]	; 0x28
 8006718:	2b7f      	cmp	r3, #127	; 0x7f
 800671a:	d8f0      	bhi.n	80066fe <SEGGER_SYSVIEW_Start+0x5a>
 800671c:	6afb      	ldr	r3, [r7, #44]	; 0x2c
 800671e:	1c5a      	adds	r2, r3, #1
 8006720:	62fa      	str	r2, [r7, #44]	; 0x2c
 8006722:	6aba      	ldr	r2, [r7, #40]	; 0x28
 8006724:	b2d2      	uxtb	r2, r2
 8006726:	701a      	strb	r2, [r3, #0]
 8006728:	6afb      	ldr	r3, [r7, #44]	; 0x2c
 800672a:	603b      	str	r3, [r7, #0]
 800672c:	683b      	ldr	r3, [r7, #0]
 800672e:	627b      	str	r3, [r7, #36]	; 0x24
 8006730:	4b36      	ldr	r3, [pc, #216]	; (800680c <SEGGER_SYSVIEW_Start+0x168>)
 8006732:	689b      	ldr	r3, [r3, #8]
 8006734:	623b      	str	r3, [r7, #32]
 8006736:	e00b      	b.n	8006750 <SEGGER_SYSVIEW_Start+0xac>
 8006738:	6a3b      	ldr	r3, [r7, #32]
 800673a:	b2da      	uxtb	r2, r3
 800673c:	6a7b      	ldr	r3, [r7, #36]	; 0x24
 800673e:	1c59      	adds	r1, r3, #1
 8006740:	6279      	str	r1, [r7, #36]	; 0x24
 8006742:	f062 027f 	orn	r2, r2, #127	; 0x7f
 8006746:	b2d2      	uxtb	r2, r2
 8006748:	701a      	strb	r2, [r3, #0]
 800674a:	6a3b      	ldr	r3, [r7, #32]
 800674c:	09db      	lsrs	r3, r3, #7
 800674e:	623b      	str	r3, [r7, #32]
 8006750:	6a3b      	ldr	r3, [r7, #32]
 8006752:	2b7f      	cmp	r3, #127	; 0x7f
 8006754:	d8f0      	bhi.n	8006738 <SEGGER_SYSVIEW_Start+0x94>
 8006756:	6a7b      	ldr	r3, [r7, #36]	; 0x24
 8006758:	1c5a      	adds	r2, r3, #1
 800675a:	627a      	str	r2, [r7, #36]	; 0x24
 800675c:	6a3a      	ldr	r2, [r7, #32]
 800675e:	b2d2      	uxtb	r2, r2
 8006760:	701a      	strb	r2, [r3, #0]
 8006762:	6a7b      	ldr	r3, [r7, #36]	; 0x24
 8006764:	603b      	str	r3, [r7, #0]
 8006766:	683b      	ldr	r3, [r7, #0]
 8006768:	61fb      	str	r3, [r7, #28]
 800676a:	4b28      	ldr	r3, [pc, #160]	; (800680c <SEGGER_SYSVIEW_Start+0x168>)
 800676c:	691b      	ldr	r3, [r3, #16]
 800676e:	61bb      	str	r3, [r7, #24]
 8006770:	e00b      	b.n	800678a <SEGGER_SYSVIEW_Start+0xe6>
 8006772:	69bb      	ldr	r3, [r7, #24]
 8006774:	b2da      	uxtb	r2, r3
 8006776:	69fb      	ldr	r3, [r7, #28]
 8006778:	1c59      	adds	r1, r3, #1
 800677a:	61f9      	str	r1, [r7, #28]
 800677c:	f062 027f 	orn	r2, r2, #127	; 0x7f
 8006780:	b2d2      	uxtb	r2, r2
 8006782:	701a      	strb	r2, [r3, #0]
 8006784:	69bb      	ldr	r3, [r7, #24]
 8006786:	09db      	lsrs	r3, r3, #7
 8006788:	61bb      	str	r3, [r7, #24]
 800678a:	69bb      	ldr	r3, [r7, #24]
 800678c:	2b7f      	cmp	r3, #127	; 0x7f
 800678e:	d8f0      	bhi.n	8006772 <SEGGER_SYSVIEW_Start+0xce>
 8006790:	69fb      	ldr	r3, [r7, #28]
 8006792:	1c5a      	adds	r2, r3, #1
 8006794:	61fa      	str	r2, [r7, #28]
 8006796:	69ba      	ldr	r2, [r7, #24]
 8006798:	b2d2      	uxtb	r2, r2
 800679a:	701a      	strb	r2, [r3, #0]
 800679c:	69fb      	ldr	r3, [r7, #28]
 800679e:	603b      	str	r3, [r7, #0]
 80067a0:	683b      	ldr	r3, [r7, #0]
 80067a2:	617b      	str	r3, [r7, #20]
 80067a4:	2300      	movs	r3, #0
 80067a6:	613b      	str	r3, [r7, #16]
 80067a8:	e00b      	b.n	80067c2 <SEGGER_SYSVIEW_Start+0x11e>
 80067aa:	693b      	ldr	r3, [r7, #16]
 80067ac:	b2da      	uxtb	r2, r3
 80067ae:	697b      	ldr	r3, [r7, #20]
 80067b0:	1c59      	adds	r1, r3, #1
 80067b2:	6179      	str	r1, [r7, #20]
 80067b4:	f062 027f 	orn	r2, r2, #127	; 0x7f
 80067b8:	b2d2      	uxtb	r2, r2
 80067ba:	701a      	strb	r2, [r3, #0]
 80067bc:	693b      	ldr	r3, [r7, #16]
 80067be:	09db      	lsrs	r3, r3, #7
 80067c0:	613b      	str	r3, [r7, #16]
 80067c2:	693b      	ldr	r3, [r7, #16]
 80067c4:	2b7f      	cmp	r3, #127	; 0x7f
 80067c6:	d8f0      	bhi.n	80067aa <SEGGER_SYSVIEW_Start+0x106>
 80067c8:	697b      	ldr	r3, [r7, #20]
 80067ca:	1c5a      	adds	r2, r3, #1
 80067cc:	617a      	str	r2, [r7, #20]
 80067ce:	693a      	ldr	r2, [r7, #16]
 80067d0:	b2d2      	uxtb	r2, r2
 80067d2:	701a      	strb	r2, [r3, #0]
 80067d4:	697b      	ldr	r3, [r7, #20]
 80067d6:	603b      	str	r3, [r7, #0]
 80067d8:	2218      	movs	r2, #24
 80067da:	6839      	ldr	r1, [r7, #0]
 80067dc:	6878      	ldr	r0, [r7, #4]
 80067de:	f7ff fc6b 	bl	80060b8 <_SendPacket>
 80067e2:	68bb      	ldr	r3, [r7, #8]
 80067e4:	f383 8811 	msr	BASEPRI, r3
 80067e8:	4b08      	ldr	r3, [pc, #32]	; (800680c <SEGGER_SYSVIEW_Start+0x168>)
 80067ea:	6a5b      	ldr	r3, [r3, #36]	; 0x24
 80067ec:	2b00      	cmp	r3, #0
 80067ee:	d002      	beq.n	80067f6 <SEGGER_SYSVIEW_Start+0x152>
 80067f0:	4b06      	ldr	r3, [pc, #24]	; (800680c <SEGGER_SYSVIEW_Start+0x168>)
 80067f2:	6a5b      	ldr	r3, [r3, #36]	; 0x24
 80067f4:	4798      	blx	r3
 80067f6:	f000 f9eb 	bl	8006bd0 <SEGGER_SYSVIEW_RecordSystime>
 80067fa:	f000 f9b1 	bl	8006b60 <SEGGER_SYSVIEW_SendTaskList>
 80067fe:	f000 fc81 	bl	8007104 <SEGGER_SYSVIEW_SendNumModules>
 8006802:	bf00      	nop
 8006804:	3730      	adds	r7, #48	; 0x30
 8006806:	46bd      	mov	sp, r7
 8006808:	bd80      	pop	{r7, pc}
 800680a:	bf00      	nop
 800680c:	2001a658 	.word	0x2001a658
 8006810:	0800742c 	.word	0x0800742c
 8006814:	2001a688 	.word	0x2001a688

08006818 <SEGGER_SYSVIEW_Stop>:
 8006818:	b580      	push	{r7, lr}
 800681a:	b082      	sub	sp, #8
 800681c:	af00      	add	r7, sp, #0
 800681e:	f3ef 8311 	mrs	r3, BASEPRI
 8006822:	f04f 0120 	mov.w	r1, #32
 8006826:	f381 8811 	msr	BASEPRI, r1
 800682a:	607b      	str	r3, [r7, #4]
 800682c:	480b      	ldr	r0, [pc, #44]	; (800685c <SEGGER_SYSVIEW_Stop+0x44>)
 800682e:	f7ff fb59 	bl	8005ee4 <_PreparePacket>
 8006832:	6038      	str	r0, [r7, #0]
 8006834:	4b0a      	ldr	r3, [pc, #40]	; (8006860 <SEGGER_SYSVIEW_Stop+0x48>)
 8006836:	781b      	ldrb	r3, [r3, #0]
 8006838:	2b00      	cmp	r3, #0
 800683a:	d007      	beq.n	800684c <SEGGER_SYSVIEW_Stop+0x34>
 800683c:	220b      	movs	r2, #11
 800683e:	6839      	ldr	r1, [r7, #0]
 8006840:	6838      	ldr	r0, [r7, #0]
 8006842:	f7ff fc39 	bl	80060b8 <_SendPacket>
 8006846:	4b06      	ldr	r3, [pc, #24]	; (8006860 <SEGGER_SYSVIEW_Stop+0x48>)
 8006848:	2200      	movs	r2, #0
 800684a:	701a      	strb	r2, [r3, #0]
 800684c:	687b      	ldr	r3, [r7, #4]
 800684e:	f383 8811 	msr	BASEPRI, r3
 8006852:	bf00      	nop
 8006854:	3708      	adds	r7, #8
 8006856:	46bd      	mov	sp, r7
 8006858:	bd80      	pop	{r7, pc}
 800685a:	bf00      	nop
 800685c:	2001a688 	.word	0x2001a688
 8006860:	2001a658 	.word	0x2001a658

08006864 <SEGGER_SYSVIEW_GetSysDesc>:
 8006864:	b580      	push	{r7, lr}
 8006866:	b08c      	sub	sp, #48	; 0x30
 8006868:	af00      	add	r7, sp, #0
 800686a:	f3ef 8311 	mrs	r3, BASEPRI
 800686e:	f04f 0120 	mov.w	r1, #32
 8006872:	f381 8811 	msr	BASEPRI, r1
 8006876:	60fb      	str	r3, [r7, #12]
 8006878:	4845      	ldr	r0, [pc, #276]	; (8006990 <SEGGER_SYSVIEW_GetSysDesc+0x12c>)
 800687a:	f7ff fb33 	bl	8005ee4 <_PreparePacket>
 800687e:	60b8      	str	r0, [r7, #8]
 8006880:	68bb      	ldr	r3, [r7, #8]
 8006882:	607b      	str	r3, [r7, #4]
 8006884:	687b      	ldr	r3, [r7, #4]
 8006886:	62fb      	str	r3, [r7, #44]	; 0x2c
 8006888:	4b42      	ldr	r3, [pc, #264]	; (8006994 <SEGGER_SYSVIEW_GetSysDesc+0x130>)
 800688a:	685b      	ldr	r3, [r3, #4]
 800688c:	62bb      	str	r3, [r7, #40]	; 0x28
 800688e:	e00b      	b.n	80068a8 <SEGGER_SYSVIEW_GetSysDesc+0x44>
 8006890:	6abb      	ldr	r3, [r7, #40]	; 0x28
 8006892:	b2da      	uxtb	r2, r3
 8006894:	6afb      	ldr	r3, [r7, #44]	; 0x2c
 8006896:	1c59      	adds	r1, r3, #1
 8006898:	62f9      	str	r1, [r7, #44]	; 0x2c
 800689a:	f062 027f 	orn	r2, r2, #127	; 0x7f
 800689e:	b2d2      	uxtb	r2, r2
 80068a0:	701a      	strb	r2, [r3, #0]
 80068a2:	6abb      	ldr	r3, [r7, #40]	; 0x28
 80068a4:	09db      	lsrs	r3, r3, #7
 80068a6:	62bb      	str	r3, [r7, #40]	; 0x28
 80068a8:	6abb      	ldr	r3, [r7, #40]	; 0x28
 80068aa:	2b7f      	cmp	r3, #127	; 0x7f
 80068ac:	d8f0      	bhi.n	8006890 <SEGGER_SYSVIEW_GetSysDesc+0x2c>
 80068ae:	6afb      	ldr	r3, [r7, #44]	; 0x2c
 80068b0:	1c5a      	adds	r2, r3, #1
 80068b2:	62fa      	str	r2, [r7, #44]	; 0x2c
 80068b4:	6aba      	ldr	r2, [r7, #40]	; 0x28
 80068b6:	b2d2      	uxtb	r2, r2
 80068b8:	701a      	strb	r2, [r3, #0]
 80068ba:	6afb      	ldr	r3, [r7, #44]	; 0x2c
 80068bc:	607b      	str	r3, [r7, #4]
 80068be:	687b      	ldr	r3, [r7, #4]
 80068c0:	627b      	str	r3, [r7, #36]	; 0x24
 80068c2:	4b34      	ldr	r3, [pc, #208]	; (8006994 <SEGGER_SYSVIEW_GetSysDesc+0x130>)
 80068c4:	689b      	ldr	r3, [r3, #8]
 80068c6:	623b      	str	r3, [r7, #32]
 80068c8:	e00b      	b.n	80068e2 <SEGGER_SYSVIEW_GetSysDesc+0x7e>
 80068ca:	6a3b      	ldr	r3, [r7, #32]
 80068cc:	b2da      	uxtb	r2, r3
 80068ce:	6a7b      	ldr	r3, [r7, #36]	; 0x24
 80068d0:	1c59      	adds	r1, r3, #1
 80068d2:	6279      	str	r1, [r7, #36]	; 0x24
 80068d4:	f062 027f 	orn	r2, r2, #127	; 0x7f
 80068d8:	b2d2      	uxtb	r2, r2
 80068da:	701a      	strb	r2, [r3, #0]
 80068dc:	6a3b      	ldr	r3, [r7, #32]
 80068de:	09db      	lsrs	r3, r3, #7
 80068e0:	623b      	str	r3, [r7, #32]
 80068e2:	6a3b      	ldr	r3, [r7, #32]
 80068e4:	2b7f      	cmp	r3, #127	; 0x7f
 80068e6:	d8f0      	bhi.n	80068ca <SEGGER_SYSVIEW_GetSysDesc+0x66>
 80068e8:	6a7b      	ldr	r3, [r7, #36]	; 0x24
 80068ea:	1c5a      	adds	r2, r3, #1
 80068ec:	627a      	str	r2, [r7, #36]	; 0x24
 80068ee:	6a3a      	ldr	r2, [r7, #32]
 80068f0:	b2d2      	uxtb	r2, r2
 80068f2:	701a      	strb	r2, [r3, #0]
 80068f4:	6a7b      	ldr	r3, [r7, #36]	; 0x24
 80068f6:	607b      	str	r3, [r7, #4]
 80068f8:	687b      	ldr	r3, [r7, #4]
 80068fa:	61fb      	str	r3, [r7, #28]
 80068fc:	4b25      	ldr	r3, [pc, #148]	; (8006994 <SEGGER_SYSVIEW_GetSysDesc+0x130>)
 80068fe:	691b      	ldr	r3, [r3, #16]
 8006900:	61bb      	str	r3, [r7, #24]
 8006902:	e00b      	b.n	800691c <SEGGER_SYSVIEW_GetSysDesc+0xb8>
 8006904:	69bb      	ldr	r3, [r7, #24]
 8006906:	b2da      	uxtb	r2, r3
 8006908:	69fb      	ldr	r3, [r7, #28]
 800690a:	1c59      	adds	r1, r3, #1
 800690c:	61f9      	str	r1, [r7, #28]
 800690e:	f062 027f 	orn	r2, r2, #127	; 0x7f
 8006912:	b2d2      	uxtb	r2, r2
 8006914:	701a      	strb	r2, [r3, #0]
 8006916:	69bb      	ldr	r3, [r7, #24]
 8006918:	09db      	lsrs	r3, r3, #7
 800691a:	61bb      	str	r3, [r7, #24]
 800691c:	69bb      	ldr	r3, [r7, #24]
 800691e:	2b7f      	cmp	r3, #127	; 0x7f
 8006920:	d8f0      	bhi.n	8006904 <SEGGER_SYSVIEW_GetSysDesc+0xa0>
 8006922:	69fb      	ldr	r3, [r7, #28]
 8006924:	1c5a      	adds	r2, r3, #1
 8006926:	61fa      	str	r2, [r7, #28]
 8006928:	69ba      	ldr	r2, [r7, #24]
 800692a:	b2d2      	uxtb	r2, r2
 800692c:	701a      	strb	r2, [r3, #0]
 800692e:	69fb      	ldr	r3, [r7, #28]
 8006930:	607b      	str	r3, [r7, #4]
 8006932:	687b      	ldr	r3, [r7, #4]
 8006934:	617b      	str	r3, [r7, #20]
 8006936:	2300      	movs	r3, #0
 8006938:	613b      	str	r3, [r7, #16]
 800693a:	e00b      	b.n	8006954 <SEGGER_SYSVIEW_GetSysDesc+0xf0>
 800693c:	693b      	ldr	r3, [r7, #16]
 800693e:	b2da      	uxtb	r2, r3
 8006940:	697b      	ldr	r3, [r7, #20]
 8006942:	1c59      	adds	r1, r3, #1
 8006944:	6179      	str	r1, [r7, #20]
 8006946:	f062 027f 	orn	r2, r2, #127	; 0x7f
 800694a:	b2d2      	uxtb	r2, r2
 800694c:	701a      	strb	r2, [r3, #0]
 800694e:	693b      	ldr	r3, [r7, #16]
 8006950:	09db      	lsrs	r3, r3, #7
 8006952:	613b      	str	r3, [r7, #16]
 8006954:	693b      	ldr	r3, [r7, #16]
 8006956:	2b7f      	cmp	r3, #127	; 0x7f
 8006958:	d8f0      	bhi.n	800693c <SEGGER_SYSVIEW_GetSysDesc+0xd8>
 800695a:	697b      	ldr	r3, [r7, #20]
 800695c:	1c5a      	adds	r2, r3, #1
 800695e:	617a      	str	r2, [r7, #20]
 8006960:	693a      	ldr	r2, [r7, #16]
 8006962:	b2d2      	uxtb	r2, r2
 8006964:	701a      	strb	r2, [r3, #0]
 8006966:	697b      	ldr	r3, [r7, #20]
 8006968:	607b      	str	r3, [r7, #4]
 800696a:	2218      	movs	r2, #24
 800696c:	6879      	ldr	r1, [r7, #4]
 800696e:	68b8      	ldr	r0, [r7, #8]
 8006970:	f7ff fba2 	bl	80060b8 <_SendPacket>
 8006974:	68fb      	ldr	r3, [r7, #12]
 8006976:	f383 8811 	msr	BASEPRI, r3
 800697a:	4b06      	ldr	r3, [pc, #24]	; (8006994 <SEGGER_SYSVIEW_GetSysDesc+0x130>)
 800697c:	6a5b      	ldr	r3, [r3, #36]	; 0x24
 800697e:	2b00      	cmp	r3, #0
 8006980:	d002      	beq.n	8006988 <SEGGER_SYSVIEW_GetSysDesc+0x124>
 8006982:	4b04      	ldr	r3, [pc, #16]	; (8006994 <SEGGER_SYSVIEW_GetSysDesc+0x130>)
 8006984:	6a5b      	ldr	r3, [r3, #36]	; 0x24
 8006986:	4798      	blx	r3
 8006988:	bf00      	nop
 800698a:	3730      	adds	r7, #48	; 0x30
 800698c:	46bd      	mov	sp, r7
 800698e:	bd80      	pop	{r7, pc}
 8006990:	2001a688 	.word	0x2001a688
 8006994:	2001a658 	.word	0x2001a658

08006998 <SEGGER_SYSVIEW_SendTaskInfo>:
 8006998:	b580      	push	{r7, lr}
 800699a:	b092      	sub	sp, #72	; 0x48
 800699c:	af00      	add	r7, sp, #0
 800699e:	6078      	str	r0, [r7, #4]
 80069a0:	f3ef 8311 	mrs	r3, BASEPRI
 80069a4:	f04f 0120 	mov.w	r1, #32
 80069a8:	f381 8811 	msr	BASEPRI, r1
 80069ac:	617b      	str	r3, [r7, #20]
 80069ae:	486a      	ldr	r0, [pc, #424]	; (8006b58 <SEGGER_SYSVIEW_SendTaskInfo+0x1c0>)
 80069b0:	f7ff fa98 	bl	8005ee4 <_PreparePacket>
 80069b4:	6138      	str	r0, [r7, #16]
 80069b6:	693b      	ldr	r3, [r7, #16]
 80069b8:	60fb      	str	r3, [r7, #12]
 80069ba:	68fb      	ldr	r3, [r7, #12]
 80069bc:	647b      	str	r3, [r7, #68]	; 0x44
 80069be:	687b      	ldr	r3, [r7, #4]
 80069c0:	681a      	ldr	r2, [r3, #0]
 80069c2:	4b66      	ldr	r3, [pc, #408]	; (8006b5c <SEGGER_SYSVIEW_SendTaskInfo+0x1c4>)
 80069c4:	691b      	ldr	r3, [r3, #16]
 80069c6:	1ad3      	subs	r3, r2, r3
 80069c8:	643b      	str	r3, [r7, #64]	; 0x40
 80069ca:	e00b      	b.n	80069e4 <SEGGER_SYSVIEW_SendTaskInfo+0x4c>
 80069cc:	6c3b      	ldr	r3, [r7, #64]	; 0x40
 80069ce:	b2da      	uxtb	r2, r3
 80069d0:	6c7b      	ldr	r3, [r7, #68]	; 0x44
 80069d2:	1c59      	adds	r1, r3, #1
 80069d4:	6479      	str	r1, [r7, #68]	; 0x44
 80069d6:	f062 027f 	orn	r2, r2, #127	; 0x7f
 80069da:	b2d2      	uxtb	r2, r2
 80069dc:	701a      	strb	r2, [r3, #0]
 80069de:	6c3b      	ldr	r3, [r7, #64]	; 0x40
 80069e0:	09db      	lsrs	r3, r3, #7
 80069e2:	643b      	str	r3, [r7, #64]	; 0x40
 80069e4:	6c3b      	ldr	r3, [r7, #64]	; 0x40
 80069e6:	2b7f      	cmp	r3, #127	; 0x7f
 80069e8:	d8f0      	bhi.n	80069cc <SEGGER_SYSVIEW_SendTaskInfo+0x34>
 80069ea:	6c7b      	ldr	r3, [r7, #68]	; 0x44
 80069ec:	1c5a      	adds	r2, r3, #1
 80069ee:	647a      	str	r2, [r7, #68]	; 0x44
 80069f0:	6c3a      	ldr	r2, [r7, #64]	; 0x40
 80069f2:	b2d2      	uxtb	r2, r2
 80069f4:	701a      	strb	r2, [r3, #0]
 80069f6:	6c7b      	ldr	r3, [r7, #68]	; 0x44
 80069f8:	60fb      	str	r3, [r7, #12]
 80069fa:	68fb      	ldr	r3, [r7, #12]
 80069fc:	63fb      	str	r3, [r7, #60]	; 0x3c
 80069fe:	687b      	ldr	r3, [r7, #4]
 8006a00:	689b      	ldr	r3, [r3, #8]
 8006a02:	63bb      	str	r3, [r7, #56]	; 0x38
 8006a04:	e00b      	b.n	8006a1e <SEGGER_SYSVIEW_SendTaskInfo+0x86>
 8006a06:	6bbb      	ldr	r3, [r7, #56]	; 0x38
 8006a08:	b2da      	uxtb	r2, r3
 8006a0a:	6bfb      	ldr	r3, [r7, #60]	; 0x3c
 8006a0c:	1c59      	adds	r1, r3, #1
 8006a0e:	63f9      	str	r1, [r7, #60]	; 0x3c
 8006a10:	f062 027f 	orn	r2, r2, #127	; 0x7f
 8006a14:	b2d2      	uxtb	r2, r2
 8006a16:	701a      	strb	r2, [r3, #0]
 8006a18:	6bbb      	ldr	r3, [r7, #56]	; 0x38
 8006a1a:	09db      	lsrs	r3, r3, #7
 8006a1c:	63bb      	str	r3, [r7, #56]	; 0x38
 8006a1e:	6bbb      	ldr	r3, [r7, #56]	; 0x38
 8006a20:	2b7f      	cmp	r3, #127	; 0x7f
 8006a22:	d8f0      	bhi.n	8006a06 <SEGGER_SYSVIEW_SendTaskInfo+0x6e>
 8006a24:	6bfb      	ldr	r3, [r7, #60]	; 0x3c
 8006a26:	1c5a      	adds	r2, r3, #1
 8006a28:	63fa      	str	r2, [r7, #60]	; 0x3c
 8006a2a:	6bba      	ldr	r2, [r7, #56]	; 0x38
 8006a2c:	b2d2      	uxtb	r2, r2
 8006a2e:	701a      	strb	r2, [r3, #0]
 8006a30:	6bfb      	ldr	r3, [r7, #60]	; 0x3c
 8006a32:	60fb      	str	r3, [r7, #12]
 8006a34:	687b      	ldr	r3, [r7, #4]
 8006a36:	685b      	ldr	r3, [r3, #4]
 8006a38:	2220      	movs	r2, #32
 8006a3a:	4619      	mov	r1, r3
 8006a3c:	68f8      	ldr	r0, [r7, #12]
 8006a3e:	f7ff fa01 	bl	8005e44 <_EncodeStr>
 8006a42:	60f8      	str	r0, [r7, #12]
 8006a44:	2209      	movs	r2, #9
 8006a46:	68f9      	ldr	r1, [r7, #12]
 8006a48:	6938      	ldr	r0, [r7, #16]
 8006a4a:	f7ff fb35 	bl	80060b8 <_SendPacket>
 8006a4e:	693b      	ldr	r3, [r7, #16]
 8006a50:	60fb      	str	r3, [r7, #12]
 8006a52:	68fb      	ldr	r3, [r7, #12]
 8006a54:	637b      	str	r3, [r7, #52]	; 0x34
 8006a56:	687b      	ldr	r3, [r7, #4]
 8006a58:	681a      	ldr	r2, [r3, #0]
 8006a5a:	4b40      	ldr	r3, [pc, #256]	; (8006b5c <SEGGER_SYSVIEW_SendTaskInfo+0x1c4>)
 8006a5c:	691b      	ldr	r3, [r3, #16]
 8006a5e:	1ad3      	subs	r3, r2, r3
 8006a60:	633b      	str	r3, [r7, #48]	; 0x30
 8006a62:	e00b      	b.n	8006a7c <SEGGER_SYSVIEW_SendTaskInfo+0xe4>
 8006a64:	6b3b      	ldr	r3, [r7, #48]	; 0x30
 8006a66:	b2da      	uxtb	r2, r3
 8006a68:	6b7b      	ldr	r3, [r7, #52]	; 0x34
 8006a6a:	1c59      	adds	r1, r3, #1
 8006a6c:	6379      	str	r1, [r7, #52]	; 0x34
 8006a6e:	f062 027f 	orn	r2, r2, #127	; 0x7f
 8006a72:	b2d2      	uxtb	r2, r2
 8006a74:	701a      	strb	r2, [r3, #0]
 8006a76:	6b3b      	ldr	r3, [r7, #48]	; 0x30
 8006a78:	09db      	lsrs	r3, r3, #7
 8006a7a:	633b      	str	r3, [r7, #48]	; 0x30
 8006a7c:	6b3b      	ldr	r3, [r7, #48]	; 0x30
 8006a7e:	2b7f      	cmp	r3, #127	; 0x7f
 8006a80:	d8f0      	bhi.n	8006a64 <SEGGER_SYSVIEW_SendTaskInfo+0xcc>
 8006a82:	6b7b      	ldr	r3, [r7, #52]	; 0x34
 8006a84:	1c5a      	adds	r2, r3, #1
 8006a86:	637a      	str	r2, [r7, #52]	; 0x34
 8006a88:	6b3a      	ldr	r2, [r7, #48]	; 0x30
 8006a8a:	b2d2      	uxtb	r2, r2
 8006a8c:	701a      	strb	r2, [r3, #0]
 8006a8e:	6b7b      	ldr	r3, [r7, #52]	; 0x34
 8006a90:	60fb      	str	r3, [r7, #12]
 8006a92:	68fb      	ldr	r3, [r7, #12]
 8006a94:	62fb      	str	r3, [r7, #44]	; 0x2c
 8006a96:	687b      	ldr	r3, [r7, #4]
 8006a98:	68db      	ldr	r3, [r3, #12]
 8006a9a:	62bb      	str	r3, [r7, #40]	; 0x28
 8006a9c:	e00b      	b.n	8006ab6 <SEGGER_SYSVIEW_SendTaskInfo+0x11e>
 8006a9e:	6abb      	ldr	r3, [r7, #40]	; 0x28
 8006aa0:	b2da      	uxtb	r2, r3
 8006aa2:	6afb      	ldr	r3, [r7, #44]	; 0x2c
 8006aa4:	1c59      	adds	r1, r3, #1
 8006aa6:	62f9      	str	r1, [r7, #44]	; 0x2c
 8006aa8:	f062 027f 	orn	r2, r2, #127	; 0x7f
 8006aac:	b2d2      	uxtb	r2, r2
 8006aae:	701a      	strb	r2, [r3, #0]
 8006ab0:	6abb      	ldr	r3, [r7, #40]	; 0x28
 8006ab2:	09db      	lsrs	r3, r3, #7
 8006ab4:	62bb      	str	r3, [r7, #40]	; 0x28
 8006ab6:	6abb      	ldr	r3, [r7, #40]	; 0x28
 8006ab8:	2b7f      	cmp	r3, #127	; 0x7f
 8006aba:	d8f0      	bhi.n	8006a9e <SEGGER_SYSVIEW_SendTaskInfo+0x106>
 8006abc:	6afb      	ldr	r3, [r7, #44]	; 0x2c
 8006abe:	1c5a      	adds	r2, r3, #1
 8006ac0:	62fa      	str	r2, [r7, #44]	; 0x2c
 8006ac2:	6aba      	ldr	r2, [r7, #40]	; 0x28
 8006ac4:	b2d2      	uxtb	r2, r2
 8006ac6:	701a      	strb	r2, [r3, #0]
 8006ac8:	6afb      	ldr	r3, [r7, #44]	; 0x2c
 8006aca:	60fb      	str	r3, [r7, #12]
 8006acc:	68fb      	ldr	r3, [r7, #12]
 8006ace:	627b      	str	r3, [r7, #36]	; 0x24
 8006ad0:	687b      	ldr	r3, [r7, #4]
 8006ad2:	691b      	ldr	r3, [r3, #16]
 8006ad4:	623b      	str	r3, [r7, #32]
 8006ad6:	e00b      	b.n	8006af0 <SEGGER_SYSVIEW_SendTaskInfo+0x158>
 8006ad8:	6a3b      	ldr	r3, [r7, #32]
 8006ada:	b2da      	uxtb	r2, r3
 8006adc:	6a7b      	ldr	r3, [r7, #36]	; 0x24
 8006ade:	1c59      	adds	r1, r3, #1
 8006ae0:	6279      	str	r1, [r7, #36]	; 0x24
 8006ae2:	f062 027f 	orn	r2, r2, #127	; 0x7f
 8006ae6:	b2d2      	uxtb	r2, r2
 8006ae8:	701a      	strb	r2, [r3, #0]
 8006aea:	6a3b      	ldr	r3, [r7, #32]
 8006aec:	09db      	lsrs	r3, r3, #7
 8006aee:	623b      	str	r3, [r7, #32]
 8006af0:	6a3b      	ldr	r3, [r7, #32]
 8006af2:	2b7f      	cmp	r3, #127	; 0x7f
 8006af4:	d8f0      	bhi.n	8006ad8 <SEGGER_SYSVIEW_SendTaskInfo+0x140>
 8006af6:	6a7b      	ldr	r3, [r7, #36]	; 0x24
 8006af8:	1c5a      	adds	r2, r3, #1
 8006afa:	627a      	str	r2, [r7, #36]	; 0x24
 8006afc:	6a3a      	ldr	r2, [r7, #32]
 8006afe:	b2d2      	uxtb	r2, r2
 8006b00:	701a      	strb	r2, [r3, #0]
 8006b02:	6a7b      	ldr	r3, [r7, #36]	; 0x24
 8006b04:	60fb      	str	r3, [r7, #12]
 8006b06:	68fb      	ldr	r3, [r7, #12]
 8006b08:	61fb      	str	r3, [r7, #28]
 8006b0a:	2300      	movs	r3, #0
 8006b0c:	61bb      	str	r3, [r7, #24]
 8006b0e:	e00b      	b.n	8006b28 <SEGGER_SYSVIEW_SendTaskInfo+0x190>
 8006b10:	69bb      	ldr	r3, [r7, #24]
 8006b12:	b2da      	uxtb	r2, r3
 8006b14:	69fb      	ldr	r3, [r7, #28]
 8006b16:	1c59      	adds	r1, r3, #1
 8006b18:	61f9      	str	r1, [r7, #28]
 8006b1a:	f062 027f 	orn	r2, r2, #127	; 0x7f
 8006b1e:	b2d2      	uxtb	r2, r2
 8006b20:	701a      	strb	r2, [r3, #0]
 8006b22:	69bb      	ldr	r3, [r7, #24]
 8006b24:	09db      	lsrs	r3, r3, #7
 8006b26:	61bb      	str	r3, [r7, #24]
 8006b28:	69bb      	ldr	r3, [r7, #24]
 8006b2a:	2b7f      	cmp	r3, #127	; 0x7f
 8006b2c:	d8f0      	bhi.n	8006b10 <SEGGER_SYSVIEW_SendTaskInfo+0x178>
 8006b2e:	69fb      	ldr	r3, [r7, #28]
 8006b30:	1c5a      	adds	r2, r3, #1
 8006b32:	61fa      	str	r2, [r7, #28]
 8006b34:	69ba      	ldr	r2, [r7, #24]
 8006b36:	b2d2      	uxtb	r2, r2
 8006b38:	701a      	strb	r2, [r3, #0]
 8006b3a:	69fb      	ldr	r3, [r7, #28]
 8006b3c:	60fb      	str	r3, [r7, #12]
 8006b3e:	2215      	movs	r2, #21
 8006b40:	68f9      	ldr	r1, [r7, #12]
 8006b42:	6938      	ldr	r0, [r7, #16]
 8006b44:	f7ff fab8 	bl	80060b8 <_SendPacket>
 8006b48:	697b      	ldr	r3, [r7, #20]
 8006b4a:	f383 8811 	msr	BASEPRI, r3
 8006b4e:	bf00      	nop
 8006b50:	3748      	adds	r7, #72	; 0x48
 8006b52:	46bd      	mov	sp, r7
 8006b54:	bd80      	pop	{r7, pc}
 8006b56:	bf00      	nop
 8006b58:	2001a688 	.word	0x2001a688
 8006b5c:	2001a658 	.word	0x2001a658

08006b60 <SEGGER_SYSVIEW_SendTaskList>:
 8006b60:	b580      	push	{r7, lr}
 8006b62:	af00      	add	r7, sp, #0
 8006b64:	4b07      	ldr	r3, [pc, #28]	; (8006b84 <SEGGER_SYSVIEW_SendTaskList+0x24>)
 8006b66:	6a1b      	ldr	r3, [r3, #32]
 8006b68:	2b00      	cmp	r3, #0
 8006b6a:	d008      	beq.n	8006b7e <SEGGER_SYSVIEW_SendTaskList+0x1e>
 8006b6c:	4b05      	ldr	r3, [pc, #20]	; (8006b84 <SEGGER_SYSVIEW_SendTaskList+0x24>)
 8006b6e:	6a1b      	ldr	r3, [r3, #32]
 8006b70:	685b      	ldr	r3, [r3, #4]
 8006b72:	2b00      	cmp	r3, #0
 8006b74:	d003      	beq.n	8006b7e <SEGGER_SYSVIEW_SendTaskList+0x1e>
 8006b76:	4b03      	ldr	r3, [pc, #12]	; (8006b84 <SEGGER_SYSVIEW_SendTaskList+0x24>)
 8006b78:	6a1b      	ldr	r3, [r3, #32]
 8006b7a:	685b      	ldr	r3, [r3, #4]
 8006b7c:	4798      	blx	r3
 8006b7e:	bf00      	nop
 8006b80:	bd80      	pop	{r7, pc}
 8006b82:	bf00      	nop
 8006b84:	2001a658 	.word	0x2001a658

08006b88 <SEGGER_SYSVIEW_SendSysDesc>:
 8006b88:	b580      	push	{r7, lr}
 8006b8a:	b086      	sub	sp, #24
 8006b8c:	af00      	add	r7, sp, #0
 8006b8e:	6078      	str	r0, [r7, #4]
 8006b90:	f3ef 8311 	mrs	r3, BASEPRI
 8006b94:	f04f 0120 	mov.w	r1, #32
 8006b98:	f381 8811 	msr	BASEPRI, r1
 8006b9c:	617b      	str	r3, [r7, #20]
 8006b9e:	480b      	ldr	r0, [pc, #44]	; (8006bcc <SEGGER_SYSVIEW_SendSysDesc+0x44>)
 8006ba0:	f7ff f9a0 	bl	8005ee4 <_PreparePacket>
 8006ba4:	6138      	str	r0, [r7, #16]
 8006ba6:	2280      	movs	r2, #128	; 0x80
 8006ba8:	6879      	ldr	r1, [r7, #4]
 8006baa:	6938      	ldr	r0, [r7, #16]
 8006bac:	f7ff f94a 	bl	8005e44 <_EncodeStr>
 8006bb0:	60f8      	str	r0, [r7, #12]
 8006bb2:	220e      	movs	r2, #14
 8006bb4:	68f9      	ldr	r1, [r7, #12]
 8006bb6:	6938      	ldr	r0, [r7, #16]
 8006bb8:	f7ff fa7e 	bl	80060b8 <_SendPacket>
 8006bbc:	697b      	ldr	r3, [r7, #20]
 8006bbe:	f383 8811 	msr	BASEPRI, r3
 8006bc2:	bf00      	nop
 8006bc4:	3718      	adds	r7, #24
 8006bc6:	46bd      	mov	sp, r7
 8006bc8:	bd80      	pop	{r7, pc}
 8006bca:	bf00      	nop
 8006bcc:	2001a688 	.word	0x2001a688

08006bd0 <SEGGER_SYSVIEW_RecordSystime>:
 8006bd0:	b590      	push	{r4, r7, lr}
 8006bd2:	b083      	sub	sp, #12
 8006bd4:	af00      	add	r7, sp, #0
 8006bd6:	4b14      	ldr	r3, [pc, #80]	; (8006c28 <SEGGER_SYSVIEW_RecordSystime+0x58>)
 8006bd8:	6a1b      	ldr	r3, [r3, #32]
 8006bda:	2b00      	cmp	r3, #0
 8006bdc:	d019      	beq.n	8006c12 <SEGGER_SYSVIEW_RecordSystime+0x42>
 8006bde:	4b12      	ldr	r3, [pc, #72]	; (8006c28 <SEGGER_SYSVIEW_RecordSystime+0x58>)
 8006be0:	6a1b      	ldr	r3, [r3, #32]
 8006be2:	681b      	ldr	r3, [r3, #0]
 8006be4:	2b00      	cmp	r3, #0
 8006be6:	d014      	beq.n	8006c12 <SEGGER_SYSVIEW_RecordSystime+0x42>
 8006be8:	4b0f      	ldr	r3, [pc, #60]	; (8006c28 <SEGGER_SYSVIEW_RecordSystime+0x58>)
 8006bea:	6a1b      	ldr	r3, [r3, #32]
 8006bec:	681b      	ldr	r3, [r3, #0]
 8006bee:	4798      	blx	r3
 8006bf0:	e9c7 0100 	strd	r0, r1, [r7]
 8006bf4:	6838      	ldr	r0, [r7, #0]
 8006bf6:	e9d7 1200 	ldrd	r1, r2, [r7]
 8006bfa:	f04f 0300 	mov.w	r3, #0
 8006bfe:	f04f 0400 	mov.w	r4, #0
 8006c02:	0013      	movs	r3, r2
 8006c04:	2400      	movs	r4, #0
 8006c06:	461a      	mov	r2, r3
 8006c08:	4601      	mov	r1, r0
 8006c0a:	200d      	movs	r0, #13
 8006c0c:	f7ff fbe8 	bl	80063e0 <SEGGER_SYSVIEW_RecordU32x2>
 8006c10:	e005      	b.n	8006c1e <SEGGER_SYSVIEW_RecordSystime+0x4e>
 8006c12:	4b06      	ldr	r3, [pc, #24]	; (8006c2c <SEGGER_SYSVIEW_RecordSystime+0x5c>)
 8006c14:	681b      	ldr	r3, [r3, #0]
 8006c16:	4619      	mov	r1, r3
 8006c18:	200c      	movs	r0, #12
 8006c1a:	f7ff fba5 	bl	8006368 <SEGGER_SYSVIEW_RecordU32>
 8006c1e:	bf00      	nop
 8006c20:	370c      	adds	r7, #12
 8006c22:	46bd      	mov	sp, r7
 8006c24:	bd90      	pop	{r4, r7, pc}
 8006c26:	bf00      	nop
 8006c28:	2001a658 	.word	0x2001a658
 8006c2c:	e0001004 	.word	0xe0001004

08006c30 <SEGGER_SYSVIEW_RecordEnterISR>:
 8006c30:	b580      	push	{r7, lr}
 8006c32:	b086      	sub	sp, #24
 8006c34:	af00      	add	r7, sp, #0
 8006c36:	f3ef 8311 	mrs	r3, BASEPRI
 8006c3a:	f04f 0120 	mov.w	r1, #32
 8006c3e:	f381 8811 	msr	BASEPRI, r1
 8006c42:	60fb      	str	r3, [r7, #12]
 8006c44:	4819      	ldr	r0, [pc, #100]	; (8006cac <SEGGER_SYSVIEW_RecordEnterISR+0x7c>)
 8006c46:	f7ff f94d 	bl	8005ee4 <_PreparePacket>
 8006c4a:	60b8      	str	r0, [r7, #8]
 8006c4c:	68bb      	ldr	r3, [r7, #8]
 8006c4e:	607b      	str	r3, [r7, #4]
 8006c50:	4b17      	ldr	r3, [pc, #92]	; (8006cb0 <SEGGER_SYSVIEW_RecordEnterISR+0x80>)
 8006c52:	681b      	ldr	r3, [r3, #0]
 8006c54:	f3c3 0308 	ubfx	r3, r3, #0, #9
 8006c58:	603b      	str	r3, [r7, #0]
 8006c5a:	687b      	ldr	r3, [r7, #4]
 8006c5c:	617b      	str	r3, [r7, #20]
 8006c5e:	683b      	ldr	r3, [r7, #0]
 8006c60:	613b      	str	r3, [r7, #16]
 8006c62:	e00b      	b.n	8006c7c <SEGGER_SYSVIEW_RecordEnterISR+0x4c>
 8006c64:	693b      	ldr	r3, [r7, #16]
 8006c66:	b2da      	uxtb	r2, r3
 8006c68:	697b      	ldr	r3, [r7, #20]
 8006c6a:	1c59      	adds	r1, r3, #1
 8006c6c:	6179      	str	r1, [r7, #20]
 8006c6e:	f062 027f 	orn	r2, r2, #127	; 0x7f
 8006c72:	b2d2      	uxtb	r2, r2
 8006c74:	701a      	strb	r2, [r3, #0]
 8006c76:	693b      	ldr	r3, [r7, #16]
 8006c78:	09db      	lsrs	r3, r3, #7
 8006c7a:	613b      	str	r3, [r7, #16]
 8006c7c:	693b      	ldr	r3, [r7, #16]
 8006c7e:	2b7f      	cmp	r3, #127	; 0x7f
 8006c80:	d8f0      	bhi.n	8006c64 <SEGGER_SYSVIEW_RecordEnterISR+0x34>
 8006c82:	697b      	ldr	r3, [r7, #20]
 8006c84:	1c5a      	adds	r2, r3, #1
 8006c86:	617a      	str	r2, [r7, #20]
 8006c88:	693a      	ldr	r2, [r7, #16]
 8006c8a:	b2d2      	uxtb	r2, r2
 8006c8c:	701a      	strb	r2, [r3, #0]
 8006c8e:	697b      	ldr	r3, [r7, #20]
 8006c90:	607b      	str	r3, [r7, #4]
 8006c92:	2202      	movs	r2, #2
 8006c94:	6879      	ldr	r1, [r7, #4]
 8006c96:	68b8      	ldr	r0, [r7, #8]
 8006c98:	f7ff fa0e 	bl	80060b8 <_SendPacket>
 8006c9c:	68fb      	ldr	r3, [r7, #12]
 8006c9e:	f383 8811 	msr	BASEPRI, r3
 8006ca2:	bf00      	nop
 8006ca4:	3718      	adds	r7, #24
 8006ca6:	46bd      	mov	sp, r7
 8006ca8:	bd80      	pop	{r7, pc}
 8006caa:	bf00      	nop
 8006cac:	2001a688 	.word	0x2001a688
 8006cb0:	e000ed04 	.word	0xe000ed04

08006cb4 <SEGGER_SYSVIEW_RecordExitISR>:
 8006cb4:	b580      	push	{r7, lr}
 8006cb6:	b082      	sub	sp, #8
 8006cb8:	af00      	add	r7, sp, #0
 8006cba:	f3ef 8311 	mrs	r3, BASEPRI
 8006cbe:	f04f 0120 	mov.w	r1, #32
 8006cc2:	f381 8811 	msr	BASEPRI, r1
 8006cc6:	607b      	str	r3, [r7, #4]
 8006cc8:	4807      	ldr	r0, [pc, #28]	; (8006ce8 <SEGGER_SYSVIEW_RecordExitISR+0x34>)
 8006cca:	f7ff f90b 	bl	8005ee4 <_PreparePacket>
 8006cce:	6038      	str	r0, [r7, #0]
 8006cd0:	2203      	movs	r2, #3
 8006cd2:	6839      	ldr	r1, [r7, #0]
 8006cd4:	6838      	ldr	r0, [r7, #0]
 8006cd6:	f7ff f9ef 	bl	80060b8 <_SendPacket>
 8006cda:	687b      	ldr	r3, [r7, #4]
 8006cdc:	f383 8811 	msr	BASEPRI, r3
 8006ce0:	bf00      	nop
 8006ce2:	3708      	adds	r7, #8
 8006ce4:	46bd      	mov	sp, r7
 8006ce6:	bd80      	pop	{r7, pc}
 8006ce8:	2001a688 	.word	0x2001a688

08006cec <SEGGER_SYSVIEW_RecordExitISRToScheduler>:
 8006cec:	b580      	push	{r7, lr}
 8006cee:	b082      	sub	sp, #8
 8006cf0:	af00      	add	r7, sp, #0
 8006cf2:	f3ef 8311 	mrs	r3, BASEPRI
 8006cf6:	f04f 0120 	mov.w	r1, #32
 8006cfa:	f381 8811 	msr	BASEPRI, r1
 8006cfe:	607b      	str	r3, [r7, #4]
 8006d00:	4807      	ldr	r0, [pc, #28]	; (8006d20 <SEGGER_SYSVIEW_RecordExitISRToScheduler+0x34>)
 8006d02:	f7ff f8ef 	bl	8005ee4 <_PreparePacket>
 8006d06:	6038      	str	r0, [r7, #0]
 8006d08:	2212      	movs	r2, #18
 8006d0a:	6839      	ldr	r1, [r7, #0]
 8006d0c:	6838      	ldr	r0, [r7, #0]
 8006d0e:	f7ff f9d3 	bl	80060b8 <_SendPacket>
 8006d12:	687b      	ldr	r3, [r7, #4]
 8006d14:	f383 8811 	msr	BASEPRI, r3
 8006d18:	bf00      	nop
 8006d1a:	3708      	adds	r7, #8
 8006d1c:	46bd      	mov	sp, r7
 8006d1e:	bd80      	pop	{r7, pc}
 8006d20:	2001a688 	.word	0x2001a688

08006d24 <SEGGER_SYSVIEW_OnIdle>:
 8006d24:	b580      	push	{r7, lr}
 8006d26:	b082      	sub	sp, #8
 8006d28:	af00      	add	r7, sp, #0
 8006d2a:	f3ef 8311 	mrs	r3, BASEPRI
 8006d2e:	f04f 0120 	mov.w	r1, #32
 8006d32:	f381 8811 	msr	BASEPRI, r1
 8006d36:	607b      	str	r3, [r7, #4]
 8006d38:	4807      	ldr	r0, [pc, #28]	; (8006d58 <SEGGER_SYSVIEW_OnIdle+0x34>)
 8006d3a:	f7ff f8d3 	bl	8005ee4 <_PreparePacket>
 8006d3e:	6038      	str	r0, [r7, #0]
 8006d40:	2211      	movs	r2, #17
 8006d42:	6839      	ldr	r1, [r7, #0]
 8006d44:	6838      	ldr	r0, [r7, #0]
 8006d46:	f7ff f9b7 	bl	80060b8 <_SendPacket>
 8006d4a:	687b      	ldr	r3, [r7, #4]
 8006d4c:	f383 8811 	msr	BASEPRI, r3
 8006d50:	bf00      	nop
 8006d52:	3708      	adds	r7, #8
 8006d54:	46bd      	mov	sp, r7
 8006d56:	bd80      	pop	{r7, pc}
 8006d58:	2001a688 	.word	0x2001a688

08006d5c <SEGGER_SYSVIEW_OnTaskCreate>:
 8006d5c:	b580      	push	{r7, lr}
 8006d5e:	b088      	sub	sp, #32
 8006d60:	af00      	add	r7, sp, #0
 8006d62:	6078      	str	r0, [r7, #4]
 8006d64:	f3ef 8311 	mrs	r3, BASEPRI
 8006d68:	f04f 0120 	mov.w	r1, #32
 8006d6c:	f381 8811 	msr	BASEPRI, r1
 8006d70:	617b      	str	r3, [r7, #20]
 8006d72:	4819      	ldr	r0, [pc, #100]	; (8006dd8 <SEGGER_SYSVIEW_OnTaskCreate+0x7c>)
 8006d74:	f7ff f8b6 	bl	8005ee4 <_PreparePacket>
 8006d78:	6138      	str	r0, [r7, #16]
 8006d7a:	693b      	ldr	r3, [r7, #16]
 8006d7c:	60fb      	str	r3, [r7, #12]
 8006d7e:	4b17      	ldr	r3, [pc, #92]	; (8006ddc <SEGGER_SYSVIEW_OnTaskCreate+0x80>)
 8006d80:	691b      	ldr	r3, [r3, #16]
 8006d82:	687a      	ldr	r2, [r7, #4]
 8006d84:	1ad3      	subs	r3, r2, r3
 8006d86:	607b      	str	r3, [r7, #4]
 8006d88:	68fb      	ldr	r3, [r7, #12]
 8006d8a:	61fb      	str	r3, [r7, #28]
 8006d8c:	687b      	ldr	r3, [r7, #4]
 8006d8e:	61bb      	str	r3, [r7, #24]
 8006d90:	e00b      	b.n	8006daa <SEGGER_SYSVIEW_OnTaskCreate+0x4e>
 8006d92:	69bb      	ldr	r3, [r7, #24]
 8006d94:	b2da      	uxtb	r2, r3
 8006d96:	69fb      	ldr	r3, [r7, #28]
 8006d98:	1c59      	adds	r1, r3, #1
 8006d9a:	61f9      	str	r1, [r7, #28]
 8006d9c:	f062 027f 	orn	r2, r2, #127	; 0x7f
 8006da0:	b2d2      	uxtb	r2, r2
 8006da2:	701a      	strb	r2, [r3, #0]
 8006da4:	69bb      	ldr	r3, [r7, #24]
 8006da6:	09db      	lsrs	r3, r3, #7
 8006da8:	61bb      	str	r3, [r7, #24]
 8006daa:	69bb      	ldr	r3, [r7, #24]
 8006dac:	2b7f      	cmp	r3, #127	; 0x7f
 8006dae:	d8f0      	bhi.n	8006d92 <SEGGER_SYSVIEW_OnTaskCreate+0x36>
 8006db0:	69fb      	ldr	r3, [r7, #28]
 8006db2:	1c5a      	adds	r2, r3, #1
 8006db4:	61fa      	str	r2, [r7, #28]
 8006db6:	69ba      	ldr	r2, [r7, #24]
 8006db8:	b2d2      	uxtb	r2, r2
 8006dba:	701a      	strb	r2, [r3, #0]
 8006dbc:	69fb      	ldr	r3, [r7, #28]
 8006dbe:	60fb      	str	r3, [r7, #12]
 8006dc0:	2208      	movs	r2, #8
 8006dc2:	68f9      	ldr	r1, [r7, #12]
 8006dc4:	6938      	ldr	r0, [r7, #16]
 8006dc6:	f7ff f977 	bl	80060b8 <_SendPacket>
 8006dca:	697b      	ldr	r3, [r7, #20]
 8006dcc:	f383 8811 	msr	BASEPRI, r3
 8006dd0:	bf00      	nop
 8006dd2:	3720      	adds	r7, #32
 8006dd4:	46bd      	mov	sp, r7
 8006dd6:	bd80      	pop	{r7, pc}
 8006dd8:	2001a688 	.word	0x2001a688
 8006ddc:	2001a658 	.word	0x2001a658

08006de0 <SEGGER_SYSVIEW_OnTaskStartExec>:
 8006de0:	b580      	push	{r7, lr}
 8006de2:	b088      	sub	sp, #32
 8006de4:	af00      	add	r7, sp, #0
 8006de6:	6078      	str	r0, [r7, #4]
 8006de8:	f3ef 8311 	mrs	r3, BASEPRI
 8006dec:	f04f 0120 	mov.w	r1, #32
 8006df0:	f381 8811 	msr	BASEPRI, r1
 8006df4:	617b      	str	r3, [r7, #20]
 8006df6:	4819      	ldr	r0, [pc, #100]	; (8006e5c <SEGGER_SYSVIEW_OnTaskStartExec+0x7c>)
 8006df8:	f7ff f874 	bl	8005ee4 <_PreparePacket>
 8006dfc:	6138      	str	r0, [r7, #16]
 8006dfe:	693b      	ldr	r3, [r7, #16]
 8006e00:	60fb      	str	r3, [r7, #12]
 8006e02:	4b17      	ldr	r3, [pc, #92]	; (8006e60 <SEGGER_SYSVIEW_OnTaskStartExec+0x80>)
 8006e04:	691b      	ldr	r3, [r3, #16]
 8006e06:	687a      	ldr	r2, [r7, #4]
 8006e08:	1ad3      	subs	r3, r2, r3
 8006e0a:	607b      	str	r3, [r7, #4]
 8006e0c:	68fb      	ldr	r3, [r7, #12]
 8006e0e:	61fb      	str	r3, [r7, #28]
 8006e10:	687b      	ldr	r3, [r7, #4]
 8006e12:	61bb      	str	r3, [r7, #24]
 8006e14:	e00b      	b.n	8006e2e <SEGGER_SYSVIEW_OnTaskStartExec+0x4e>
 8006e16:	69bb      	ldr	r3, [r7, #24]
 8006e18:	b2da      	uxtb	r2, r3
 8006e1a:	69fb      	ldr	r3, [r7, #28]
 8006e1c:	1c59      	adds	r1, r3, #1
 8006e1e:	61f9      	str	r1, [r7, #28]
 8006e20:	f062 027f 	orn	r2, r2, #127	; 0x7f
 8006e24:	b2d2      	uxtb	r2, r2
 8006e26:	701a      	strb	r2, [r3, #0]
 8006e28:	69bb      	ldr	r3, [r7, #24]
 8006e2a:	09db      	lsrs	r3, r3, #7
 8006e2c:	61bb      	str	r3, [r7, #24]
 8006e2e:	69bb      	ldr	r3, [r7, #24]
 8006e30:	2b7f      	cmp	r3, #127	; 0x7f
 8006e32:	d8f0      	bhi.n	8006e16 <SEGGER_SYSVIEW_OnTaskStartExec+0x36>
 8006e34:	69fb      	ldr	r3, [r7, #28]
 8006e36:	1c5a      	adds	r2, r3, #1
 8006e38:	61fa      	str	r2, [r7, #28]
 8006e3a:	69ba      	ldr	r2, [r7, #24]
 8006e3c:	b2d2      	uxtb	r2, r2
 8006e3e:	701a      	strb	r2, [r3, #0]
 8006e40:	69fb      	ldr	r3, [r7, #28]
 8006e42:	60fb      	str	r3, [r7, #12]
 8006e44:	2204      	movs	r2, #4
 8006e46:	68f9      	ldr	r1, [r7, #12]
 8006e48:	6938      	ldr	r0, [r7, #16]
 8006e4a:	f7ff f935 	bl	80060b8 <_SendPacket>
 8006e4e:	697b      	ldr	r3, [r7, #20]
 8006e50:	f383 8811 	msr	BASEPRI, r3
 8006e54:	bf00      	nop
 8006e56:	3720      	adds	r7, #32
 8006e58:	46bd      	mov	sp, r7
 8006e5a:	bd80      	pop	{r7, pc}
 8006e5c:	2001a688 	.word	0x2001a688
 8006e60:	2001a658 	.word	0x2001a658

08006e64 <SEGGER_SYSVIEW_OnTaskStartReady>:
 8006e64:	b580      	push	{r7, lr}
 8006e66:	b088      	sub	sp, #32
 8006e68:	af00      	add	r7, sp, #0
 8006e6a:	6078      	str	r0, [r7, #4]
 8006e6c:	f3ef 8311 	mrs	r3, BASEPRI
 8006e70:	f04f 0120 	mov.w	r1, #32
 8006e74:	f381 8811 	msr	BASEPRI, r1
 8006e78:	617b      	str	r3, [r7, #20]
 8006e7a:	4819      	ldr	r0, [pc, #100]	; (8006ee0 <SEGGER_SYSVIEW_OnTaskStartReady+0x7c>)
 8006e7c:	f7ff f832 	bl	8005ee4 <_PreparePacket>
 8006e80:	6138      	str	r0, [r7, #16]
 8006e82:	693b      	ldr	r3, [r7, #16]
 8006e84:	60fb      	str	r3, [r7, #12]
 8006e86:	4b17      	ldr	r3, [pc, #92]	; (8006ee4 <SEGGER_SYSVIEW_OnTaskStartReady+0x80>)
 8006e88:	691b      	ldr	r3, [r3, #16]
 8006e8a:	687a      	ldr	r2, [r7, #4]
 8006e8c:	1ad3      	subs	r3, r2, r3
 8006e8e:	607b      	str	r3, [r7, #4]
 8006e90:	68fb      	ldr	r3, [r7, #12]
 8006e92:	61fb      	str	r3, [r7, #28]
 8006e94:	687b      	ldr	r3, [r7, #4]
 8006e96:	61bb      	str	r3, [r7, #24]
 8006e98:	e00b      	b.n	8006eb2 <SEGGER_SYSVIEW_OnTaskStartReady+0x4e>
 8006e9a:	69bb      	ldr	r3, [r7, #24]
 8006e9c:	b2da      	uxtb	r2, r3
 8006e9e:	69fb      	ldr	r3, [r7, #28]
 8006ea0:	1c59      	adds	r1, r3, #1
 8006ea2:	61f9      	str	r1, [r7, #28]
 8006ea4:	f062 027f 	orn	r2, r2, #127	; 0x7f
 8006ea8:	b2d2      	uxtb	r2, r2
 8006eaa:	701a      	strb	r2, [r3, #0]
 8006eac:	69bb      	ldr	r3, [r7, #24]
 8006eae:	09db      	lsrs	r3, r3, #7
 8006eb0:	61bb      	str	r3, [r7, #24]
 8006eb2:	69bb      	ldr	r3, [r7, #24]
 8006eb4:	2b7f      	cmp	r3, #127	; 0x7f
 8006eb6:	d8f0      	bhi.n	8006e9a <SEGGER_SYSVIEW_OnTaskStartReady+0x36>
 8006eb8:	69fb      	ldr	r3, [r7, #28]
 8006eba:	1c5a      	adds	r2, r3, #1
 8006ebc:	61fa      	str	r2, [r7, #28]
 8006ebe:	69ba      	ldr	r2, [r7, #24]
 8006ec0:	b2d2      	uxtb	r2, r2
 8006ec2:	701a      	strb	r2, [r3, #0]
 8006ec4:	69fb      	ldr	r3, [r7, #28]
 8006ec6:	60fb      	str	r3, [r7, #12]
 8006ec8:	2206      	movs	r2, #6
 8006eca:	68f9      	ldr	r1, [r7, #12]
 8006ecc:	6938      	ldr	r0, [r7, #16]
 8006ece:	f7ff f8f3 	bl	80060b8 <_SendPacket>
 8006ed2:	697b      	ldr	r3, [r7, #20]
 8006ed4:	f383 8811 	msr	BASEPRI, r3
 8006ed8:	bf00      	nop
 8006eda:	3720      	adds	r7, #32
 8006edc:	46bd      	mov	sp, r7
 8006ede:	bd80      	pop	{r7, pc}
 8006ee0:	2001a688 	.word	0x2001a688
 8006ee4:	2001a658 	.word	0x2001a658

08006ee8 <SEGGER_SYSVIEW_OnTaskStopReady>:
 8006ee8:	b580      	push	{r7, lr}
 8006eea:	b08a      	sub	sp, #40	; 0x28
 8006eec:	af00      	add	r7, sp, #0
 8006eee:	6078      	str	r0, [r7, #4]
 8006ef0:	6039      	str	r1, [r7, #0]
 8006ef2:	f3ef 8311 	mrs	r3, BASEPRI
 8006ef6:	f04f 0120 	mov.w	r1, #32
 8006efa:	f381 8811 	msr	BASEPRI, r1
 8006efe:	617b      	str	r3, [r7, #20]
 8006f00:	4827      	ldr	r0, [pc, #156]	; (8006fa0 <SEGGER_SYSVIEW_OnTaskStopReady+0xb8>)
 8006f02:	f7fe ffef 	bl	8005ee4 <_PreparePacket>
 8006f06:	6138      	str	r0, [r7, #16]
 8006f08:	693b      	ldr	r3, [r7, #16]
 8006f0a:	60fb      	str	r3, [r7, #12]
 8006f0c:	4b25      	ldr	r3, [pc, #148]	; (8006fa4 <SEGGER_SYSVIEW_OnTaskStopReady+0xbc>)
 8006f0e:	691b      	ldr	r3, [r3, #16]
 8006f10:	687a      	ldr	r2, [r7, #4]
 8006f12:	1ad3      	subs	r3, r2, r3
 8006f14:	607b      	str	r3, [r7, #4]
 8006f16:	68fb      	ldr	r3, [r7, #12]
 8006f18:	627b      	str	r3, [r7, #36]	; 0x24
 8006f1a:	687b      	ldr	r3, [r7, #4]
 8006f1c:	623b      	str	r3, [r7, #32]
 8006f1e:	e00b      	b.n	8006f38 <SEGGER_SYSVIEW_OnTaskStopReady+0x50>
 8006f20:	6a3b      	ldr	r3, [r7, #32]
 8006f22:	b2da      	uxtb	r2, r3
 8006f24:	6a7b      	ldr	r3, [r7, #36]	; 0x24
 8006f26:	1c59      	adds	r1, r3, #1
 8006f28:	6279      	str	r1, [r7, #36]	; 0x24
 8006f2a:	f062 027f 	orn	r2, r2, #127	; 0x7f
 8006f2e:	b2d2      	uxtb	r2, r2
 8006f30:	701a      	strb	r2, [r3, #0]
 8006f32:	6a3b      	ldr	r3, [r7, #32]
 8006f34:	09db      	lsrs	r3, r3, #7
 8006f36:	623b      	str	r3, [r7, #32]
 8006f38:	6a3b      	ldr	r3, [r7, #32]
 8006f3a:	2b7f      	cmp	r3, #127	; 0x7f
 8006f3c:	d8f0      	bhi.n	8006f20 <SEGGER_SYSVIEW_OnTaskStopReady+0x38>
 8006f3e:	6a7b      	ldr	r3, [r7, #36]	; 0x24
 8006f40:	1c5a      	adds	r2, r3, #1
 8006f42:	627a      	str	r2, [r7, #36]	; 0x24
 8006f44:	6a3a      	ldr	r2, [r7, #32]
 8006f46:	b2d2      	uxtb	r2, r2
 8006f48:	701a      	strb	r2, [r3, #0]
 8006f4a:	6a7b      	ldr	r3, [r7, #36]	; 0x24
 8006f4c:	60fb      	str	r3, [r7, #12]
 8006f4e:	68fb      	ldr	r3, [r7, #12]
 8006f50:	61fb      	str	r3, [r7, #28]
 8006f52:	683b      	ldr	r3, [r7, #0]
 8006f54:	61bb      	str	r3, [r7, #24]
 8006f56:	e00b      	b.n	8006f70 <SEGGER_SYSVIEW_OnTaskStopReady+0x88>
 8006f58:	69bb      	ldr	r3, [r7, #24]
 8006f5a:	b2da      	uxtb	r2, r3
 8006f5c:	69fb      	ldr	r3, [r7, #28]
 8006f5e:	1c59      	adds	r1, r3, #1
 8006f60:	61f9      	str	r1, [r7, #28]
 8006f62:	f062 027f 	orn	r2, r2, #127	; 0x7f
 8006f66:	b2d2      	uxtb	r2, r2
 8006f68:	701a      	strb	r2, [r3, #0]
 8006f6a:	69bb      	ldr	r3, [r7, #24]
 8006f6c:	09db      	lsrs	r3, r3, #7
 8006f6e:	61bb      	str	r3, [r7, #24]
 8006f70:	69bb      	ldr	r3, [r7, #24]
 8006f72:	2b7f      	cmp	r3, #127	; 0x7f
 8006f74:	d8f0      	bhi.n	8006f58 <SEGGER_SYSVIEW_OnTaskStopReady+0x70>
 8006f76:	69fb      	ldr	r3, [r7, #28]
 8006f78:	1c5a      	adds	r2, r3, #1
 8006f7a:	61fa      	str	r2, [r7, #28]
 8006f7c:	69ba      	ldr	r2, [r7, #24]
 8006f7e:	b2d2      	uxtb	r2, r2
 8006f80:	701a      	strb	r2, [r3, #0]
 8006f82:	69fb      	ldr	r3, [r7, #28]
 8006f84:	60fb      	str	r3, [r7, #12]
 8006f86:	2207      	movs	r2, #7
 8006f88:	68f9      	ldr	r1, [r7, #12]
 8006f8a:	6938      	ldr	r0, [r7, #16]
 8006f8c:	f7ff f894 	bl	80060b8 <_SendPacket>
 8006f90:	697b      	ldr	r3, [r7, #20]
 8006f92:	f383 8811 	msr	BASEPRI, r3
 8006f96:	bf00      	nop
 8006f98:	3728      	adds	r7, #40	; 0x28
 8006f9a:	46bd      	mov	sp, r7
 8006f9c:	bd80      	pop	{r7, pc}
 8006f9e:	bf00      	nop
 8006fa0:	2001a688 	.word	0x2001a688
 8006fa4:	2001a658 	.word	0x2001a658

08006fa8 <SEGGER_SYSVIEW_ShrinkId>:
 8006fa8:	b480      	push	{r7}
 8006faa:	b083      	sub	sp, #12
 8006fac:	af00      	add	r7, sp, #0
 8006fae:	6078      	str	r0, [r7, #4]
 8006fb0:	4b04      	ldr	r3, [pc, #16]	; (8006fc4 <SEGGER_SYSVIEW_ShrinkId+0x1c>)
 8006fb2:	691b      	ldr	r3, [r3, #16]
 8006fb4:	687a      	ldr	r2, [r7, #4]
 8006fb6:	1ad3      	subs	r3, r2, r3
 8006fb8:	4618      	mov	r0, r3
 8006fba:	370c      	adds	r7, #12
 8006fbc:	46bd      	mov	sp, r7
 8006fbe:	f85d 7b04 	ldr.w	r7, [sp], #4
 8006fc2:	4770      	bx	lr
 8006fc4:	2001a658 	.word	0x2001a658

08006fc8 <SEGGER_SYSVIEW_SendModule>:
 8006fc8:	b580      	push	{r7, lr}
 8006fca:	b08c      	sub	sp, #48	; 0x30
 8006fcc:	af00      	add	r7, sp, #0
 8006fce:	4603      	mov	r3, r0
 8006fd0:	71fb      	strb	r3, [r7, #7]
 8006fd2:	4b3b      	ldr	r3, [pc, #236]	; (80070c0 <SEGGER_SYSVIEW_SendModule+0xf8>)
 8006fd4:	681b      	ldr	r3, [r3, #0]
 8006fd6:	2b00      	cmp	r3, #0
 8006fd8:	d06d      	beq.n	80070b6 <SEGGER_SYSVIEW_SendModule+0xee>
 8006fda:	4b39      	ldr	r3, [pc, #228]	; (80070c0 <SEGGER_SYSVIEW_SendModule+0xf8>)
 8006fdc:	681b      	ldr	r3, [r3, #0]
 8006fde:	62fb      	str	r3, [r7, #44]	; 0x2c
 8006fe0:	2300      	movs	r3, #0
 8006fe2:	62bb      	str	r3, [r7, #40]	; 0x28
 8006fe4:	e008      	b.n	8006ff8 <SEGGER_SYSVIEW_SendModule+0x30>
 8006fe6:	6afb      	ldr	r3, [r7, #44]	; 0x2c
 8006fe8:	691b      	ldr	r3, [r3, #16]
 8006fea:	62fb      	str	r3, [r7, #44]	; 0x2c
 8006fec:	6afb      	ldr	r3, [r7, #44]	; 0x2c
 8006fee:	2b00      	cmp	r3, #0
 8006ff0:	d007      	beq.n	8007002 <SEGGER_SYSVIEW_SendModule+0x3a>
 8006ff2:	6abb      	ldr	r3, [r7, #40]	; 0x28
 8006ff4:	3301      	adds	r3, #1
 8006ff6:	62bb      	str	r3, [r7, #40]	; 0x28
 8006ff8:	79fb      	ldrb	r3, [r7, #7]
 8006ffa:	6aba      	ldr	r2, [r7, #40]	; 0x28
 8006ffc:	429a      	cmp	r2, r3
 8006ffe:	d3f2      	bcc.n	8006fe6 <SEGGER_SYSVIEW_SendModule+0x1e>
 8007000:	e000      	b.n	8007004 <SEGGER_SYSVIEW_SendModule+0x3c>
 8007002:	bf00      	nop
 8007004:	6afb      	ldr	r3, [r7, #44]	; 0x2c
 8007006:	2b00      	cmp	r3, #0
 8007008:	d055      	beq.n	80070b6 <SEGGER_SYSVIEW_SendModule+0xee>
 800700a:	f3ef 8311 	mrs	r3, BASEPRI
 800700e:	f04f 0120 	mov.w	r1, #32
 8007012:	f381 8811 	msr	BASEPRI, r1
 8007016:	617b      	str	r3, [r7, #20]
 8007018:	482a      	ldr	r0, [pc, #168]	; (80070c4 <SEGGER_SYSVIEW_SendModule+0xfc>)
 800701a:	f7fe ff63 	bl	8005ee4 <_PreparePacket>
 800701e:	6138      	str	r0, [r7, #16]
 8007020:	693b      	ldr	r3, [r7, #16]
 8007022:	60fb      	str	r3, [r7, #12]
 8007024:	68fb      	ldr	r3, [r7, #12]
 8007026:	627b      	str	r3, [r7, #36]	; 0x24
 8007028:	79fb      	ldrb	r3, [r7, #7]
 800702a:	623b      	str	r3, [r7, #32]
 800702c:	e00b      	b.n	8007046 <SEGGER_SYSVIEW_SendModule+0x7e>
 800702e:	6a3b      	ldr	r3, [r7, #32]
 8007030:	b2da      	uxtb	r2, r3
 8007032:	6a7b      	ldr	r3, [r7, #36]	; 0x24
 8007034:	1c59      	adds	r1, r3, #1
 8007036:	6279      	str	r1, [r7, #36]	; 0x24
 8007038:	f062 027f 	orn	r2, r2, #127	; 0x7f
 800703c:	b2d2      	uxtb	r2, r2
 800703e:	701a      	strb	r2, [r3, #0]
 8007040:	6a3b      	ldr	r3, [r7, #32]
 8007042:	09db      	lsrs	r3, r3, #7
 8007044:	623b      	str	r3, [r7, #32]
 8007046:	6a3b      	ldr	r3, [r7, #32]
 8007048:	2b7f      	cmp	r3, #127	; 0x7f
 800704a:	d8f0      	bhi.n	800702e <SEGGER_SYSVIEW_SendModule+0x66>
 800704c:	6a7b      	ldr	r3, [r7, #36]	; 0x24
 800704e:	1c5a      	adds	r2, r3, #1
 8007050:	627a      	str	r2, [r7, #36]	; 0x24
 8007052:	6a3a      	ldr	r2, [r7, #32]
 8007054:	b2d2      	uxtb	r2, r2
 8007056:	701a      	strb	r2, [r3, #0]
 8007058:	6a7b      	ldr	r3, [r7, #36]	; 0x24
 800705a:	60fb      	str	r3, [r7, #12]
 800705c:	68fb      	ldr	r3, [r7, #12]
 800705e:	61fb      	str	r3, [r7, #28]
 8007060:	6afb      	ldr	r3, [r7, #44]	; 0x2c
 8007062:	689b      	ldr	r3, [r3, #8]
 8007064:	61bb      	str	r3, [r7, #24]
 8007066:	e00b      	b.n	8007080 <SEGGER_SYSVIEW_SendModule+0xb8>
 8007068:	69bb      	ldr	r3, [r7, #24]
 800706a:	b2da      	uxtb	r2, r3
 800706c:	69fb      	ldr	r3, [r7, #28]
 800706e:	1c59      	adds	r1, r3, #1
 8007070:	61f9      	str	r1, [r7, #28]
 8007072:	f062 027f 	orn	r2, r2, #127	; 0x7f
 8007076:	b2d2      	uxtb	r2, r2
 8007078:	701a      	strb	r2, [r3, #0]
 800707a:	69bb      	ldr	r3, [r7, #24]
 800707c:	09db      	lsrs	r3, r3, #7
 800707e:	61bb      	str	r3, [r7, #24]
 8007080:	69bb      	ldr	r3, [r7, #24]
 8007082:	2b7f      	cmp	r3, #127	; 0x7f
 8007084:	d8f0      	bhi.n	8007068 <SEGGER_SYSVIEW_SendModule+0xa0>
 8007086:	69fb      	ldr	r3, [r7, #28]
 8007088:	1c5a      	adds	r2, r3, #1
 800708a:	61fa      	str	r2, [r7, #28]
 800708c:	69ba      	ldr	r2, [r7, #24]
 800708e:	b2d2      	uxtb	r2, r2
 8007090:	701a      	strb	r2, [r3, #0]
 8007092:	69fb      	ldr	r3, [r7, #28]
 8007094:	60fb      	str	r3, [r7, #12]
 8007096:	6afb      	ldr	r3, [r7, #44]	; 0x2c
 8007098:	681b      	ldr	r3, [r3, #0]
 800709a:	2280      	movs	r2, #128	; 0x80
 800709c:	4619      	mov	r1, r3
 800709e:	68f8      	ldr	r0, [r7, #12]
 80070a0:	f7fe fed0 	bl	8005e44 <_EncodeStr>
 80070a4:	60f8      	str	r0, [r7, #12]
 80070a6:	2216      	movs	r2, #22
 80070a8:	68f9      	ldr	r1, [r7, #12]
 80070aa:	6938      	ldr	r0, [r7, #16]
 80070ac:	f7ff f804 	bl	80060b8 <_SendPacket>
 80070b0:	697b      	ldr	r3, [r7, #20]
 80070b2:	f383 8811 	msr	BASEPRI, r3
 80070b6:	bf00      	nop
 80070b8:	3730      	adds	r7, #48	; 0x30
 80070ba:	46bd      	mov	sp, r7
 80070bc:	bd80      	pop	{r7, pc}
 80070be:	bf00      	nop
 80070c0:	2001a680 	.word	0x2001a680
 80070c4:	2001a688 	.word	0x2001a688

080070c8 <SEGGER_SYSVIEW_SendModuleDescription>:
 80070c8:	b580      	push	{r7, lr}
 80070ca:	b082      	sub	sp, #8
 80070cc:	af00      	add	r7, sp, #0
 80070ce:	4b0c      	ldr	r3, [pc, #48]	; (8007100 <SEGGER_SYSVIEW_SendModuleDescription+0x38>)
 80070d0:	681b      	ldr	r3, [r3, #0]
 80070d2:	2b00      	cmp	r3, #0
 80070d4:	d00f      	beq.n	80070f6 <SEGGER_SYSVIEW_SendModuleDescription+0x2e>
 80070d6:	4b0a      	ldr	r3, [pc, #40]	; (8007100 <SEGGER_SYSVIEW_SendModuleDescription+0x38>)
 80070d8:	681b      	ldr	r3, [r3, #0]
 80070da:	607b      	str	r3, [r7, #4]
 80070dc:	687b      	ldr	r3, [r7, #4]
 80070de:	68db      	ldr	r3, [r3, #12]
 80070e0:	2b00      	cmp	r3, #0
 80070e2:	d002      	beq.n	80070ea <SEGGER_SYSVIEW_SendModuleDescription+0x22>
 80070e4:	687b      	ldr	r3, [r7, #4]
 80070e6:	68db      	ldr	r3, [r3, #12]
 80070e8:	4798      	blx	r3
 80070ea:	687b      	ldr	r3, [r7, #4]
 80070ec:	691b      	ldr	r3, [r3, #16]
 80070ee:	607b      	str	r3, [r7, #4]
 80070f0:	687b      	ldr	r3, [r7, #4]
 80070f2:	2b00      	cmp	r3, #0
 80070f4:	d1f2      	bne.n	80070dc <SEGGER_SYSVIEW_SendModuleDescription+0x14>
 80070f6:	bf00      	nop
 80070f8:	3708      	adds	r7, #8
 80070fa:	46bd      	mov	sp, r7
 80070fc:	bd80      	pop	{r7, pc}
 80070fe:	bf00      	nop
 8007100:	2001a680 	.word	0x2001a680

08007104 <SEGGER_SYSVIEW_SendNumModules>:
 8007104:	b580      	push	{r7, lr}
 8007106:	b086      	sub	sp, #24
 8007108:	af00      	add	r7, sp, #0
 800710a:	f3ef 8311 	mrs	r3, BASEPRI
 800710e:	f04f 0120 	mov.w	r1, #32
 8007112:	f381 8811 	msr	BASEPRI, r1
 8007116:	60fb      	str	r3, [r7, #12]
 8007118:	4817      	ldr	r0, [pc, #92]	; (8007178 <SEGGER_SYSVIEW_SendNumModules+0x74>)
 800711a:	f7fe fee3 	bl	8005ee4 <_PreparePacket>
 800711e:	60b8      	str	r0, [r7, #8]
 8007120:	68bb      	ldr	r3, [r7, #8]
 8007122:	607b      	str	r3, [r7, #4]
 8007124:	687b      	ldr	r3, [r7, #4]
 8007126:	617b      	str	r3, [r7, #20]
 8007128:	4b14      	ldr	r3, [pc, #80]	; (800717c <SEGGER_SYSVIEW_SendNumModules+0x78>)
 800712a:	781b      	ldrb	r3, [r3, #0]
 800712c:	613b      	str	r3, [r7, #16]
 800712e:	e00b      	b.n	8007148 <SEGGER_SYSVIEW_SendNumModules+0x44>
 8007130:	693b      	ldr	r3, [r7, #16]
 8007132:	b2da      	uxtb	r2, r3
 8007134:	697b      	ldr	r3, [r7, #20]
 8007136:	1c59      	adds	r1, r3, #1
 8007138:	6179      	str	r1, [r7, #20]
 800713a:	f062 027f 	orn	r2, r2, #127	; 0x7f
 800713e:	b2d2      	uxtb	r2, r2
 8007140:	701a      	strb	r2, [r3, #0]
 8007142:	693b      	ldr	r3, [r7, #16]
 8007144:	09db      	lsrs	r3, r3, #7
 8007146:	613b      	str	r3, [r7, #16]
 8007148:	693b      	ldr	r3, [r7, #16]
 800714a:	2b7f      	cmp	r3, #127	; 0x7f
 800714c:	d8f0      	bhi.n	8007130 <SEGGER_SYSVIEW_SendNumModules+0x2c>
 800714e:	697b      	ldr	r3, [r7, #20]
 8007150:	1c5a      	adds	r2, r3, #1
 8007152:	617a      	str	r2, [r7, #20]
 8007154:	693a      	ldr	r2, [r7, #16]
 8007156:	b2d2      	uxtb	r2, r2
 8007158:	701a      	strb	r2, [r3, #0]
 800715a:	697b      	ldr	r3, [r7, #20]
 800715c:	607b      	str	r3, [r7, #4]
 800715e:	221b      	movs	r2, #27
 8007160:	6879      	ldr	r1, [r7, #4]
 8007162:	68b8      	ldr	r0, [r7, #8]
 8007164:	f7fe ffa8 	bl	80060b8 <_SendPacket>
 8007168:	68fb      	ldr	r3, [r7, #12]
 800716a:	f383 8811 	msr	BASEPRI, r3
 800716e:	bf00      	nop
 8007170:	3718      	adds	r7, #24
 8007172:	46bd      	mov	sp, r7
 8007174:	bd80      	pop	{r7, pc}
 8007176:	bf00      	nop
 8007178:	2001a688 	.word	0x2001a688
 800717c:	2001a684 	.word	0x2001a684

08007180 <SEGGER_SYSVIEW_Warn>:
 8007180:	b580      	push	{r7, lr}
 8007182:	b08a      	sub	sp, #40	; 0x28
 8007184:	af00      	add	r7, sp, #0
 8007186:	6078      	str	r0, [r7, #4]
 8007188:	f3ef 8311 	mrs	r3, BASEPRI
 800718c:	f04f 0120 	mov.w	r1, #32
 8007190:	f381 8811 	msr	BASEPRI, r1
 8007194:	617b      	str	r3, [r7, #20]
 8007196:	4827      	ldr	r0, [pc, #156]	; (8007234 <SEGGER_SYSVIEW_Warn+0xb4>)
 8007198:	f7fe fea4 	bl	8005ee4 <_PreparePacket>
 800719c:	6138      	str	r0, [r7, #16]
 800719e:	2280      	movs	r2, #128	; 0x80
 80071a0:	6879      	ldr	r1, [r7, #4]
 80071a2:	6938      	ldr	r0, [r7, #16]
 80071a4:	f7fe fe4e 	bl	8005e44 <_EncodeStr>
 80071a8:	60f8      	str	r0, [r7, #12]
 80071aa:	68fb      	ldr	r3, [r7, #12]
 80071ac:	627b      	str	r3, [r7, #36]	; 0x24
 80071ae:	2301      	movs	r3, #1
 80071b0:	623b      	str	r3, [r7, #32]
 80071b2:	e00b      	b.n	80071cc <SEGGER_SYSVIEW_Warn+0x4c>
 80071b4:	6a3b      	ldr	r3, [r7, #32]
 80071b6:	b2da      	uxtb	r2, r3
 80071b8:	6a7b      	ldr	r3, [r7, #36]	; 0x24
 80071ba:	1c59      	adds	r1, r3, #1
 80071bc:	6279      	str	r1, [r7, #36]	; 0x24
 80071be:	f062 027f 	orn	r2, r2, #127	; 0x7f
 80071c2:	b2d2      	uxtb	r2, r2
 80071c4:	701a      	strb	r2, [r3, #0]
 80071c6:	6a3b      	ldr	r3, [r7, #32]
 80071c8:	09db      	lsrs	r3, r3, #7
 80071ca:	623b      	str	r3, [r7, #32]
 80071cc:	6a3b      	ldr	r3, [r7, #32]
 80071ce:	2b7f      	cmp	r3, #127	; 0x7f
 80071d0:	d8f0      	bhi.n	80071b4 <SEGGER_SYSVIEW_Warn+0x34>
 80071d2:	6a7b      	ldr	r3, [r7, #36]	; 0x24
 80071d4:	1c5a      	adds	r2, r3, #1
 80071d6:	627a      	str	r2, [r7, #36]	; 0x24
 80071d8:	6a3a      	ldr	r2, [r7, #32]
 80071da:	b2d2      	uxtb	r2, r2
 80071dc:	701a      	strb	r2, [r3, #0]
 80071de:	6a7b      	ldr	r3, [r7, #36]	; 0x24
 80071e0:	60fb      	str	r3, [r7, #12]
 80071e2:	68fb      	ldr	r3, [r7, #12]
 80071e4:	61fb      	str	r3, [r7, #28]
 80071e6:	2300      	movs	r3, #0
 80071e8:	61bb      	str	r3, [r7, #24]
 80071ea:	e00b      	b.n	8007204 <SEGGER_SYSVIEW_Warn+0x84>
 80071ec:	69bb      	ldr	r3, [r7, #24]
 80071ee:	b2da      	uxtb	r2, r3
 80071f0:	69fb      	ldr	r3, [r7, #28]
 80071f2:	1c59      	adds	r1, r3, #1
 80071f4:	61f9      	str	r1, [r7, #28]
 80071f6:	f062 027f 	orn	r2, r2, #127	; 0x7f
 80071fa:	b2d2      	uxtb	r2, r2
 80071fc:	701a      	strb	r2, [r3, #0]
 80071fe:	69bb      	ldr	r3, [r7, #24]
 8007200:	09db      	lsrs	r3, r3, #7
 8007202:	61bb      	str	r3, [r7, #24]
 8007204:	69bb      	ldr	r3, [r7, #24]
 8007206:	2b7f      	cmp	r3, #127	; 0x7f
 8007208:	d8f0      	bhi.n	80071ec <SEGGER_SYSVIEW_Warn+0x6c>
 800720a:	69fb      	ldr	r3, [r7, #28]
 800720c:	1c5a      	adds	r2, r3, #1
 800720e:	61fa      	str	r2, [r7, #28]
 8007210:	69ba      	ldr	r2, [r7, #24]
 8007212:	b2d2      	uxtb	r2, r2
 8007214:	701a      	strb	r2, [r3, #0]
 8007216:	69fb      	ldr	r3, [r7, #28]
 8007218:	60fb      	str	r3, [r7, #12]
 800721a:	221a      	movs	r2, #26
 800721c:	68f9      	ldr	r1, [r7, #12]
 800721e:	6938      	ldr	r0, [r7, #16]
 8007220:	f7fe ff4a 	bl	80060b8 <_SendPacket>
 8007224:	697b      	ldr	r3, [r7, #20]
 8007226:	f383 8811 	msr	BASEPRI, r3
 800722a:	bf00      	nop
 800722c:	3728      	adds	r7, #40	; 0x28
 800722e:	46bd      	mov	sp, r7
 8007230:	bd80      	pop	{r7, pc}
 8007232:	bf00      	nop
 8007234:	2001a688 	.word	0x2001a688

08007238 <__libc_init_array>:
 8007238:	b570      	push	{r4, r5, r6, lr}
 800723a:	4e0d      	ldr	r6, [pc, #52]	; (8007270 <__libc_init_array+0x38>)
 800723c:	4c0d      	ldr	r4, [pc, #52]	; (8007274 <__libc_init_array+0x3c>)
 800723e:	1ba4      	subs	r4, r4, r6
 8007240:	10a4      	asrs	r4, r4, #2
 8007242:	2500      	movs	r5, #0
 8007244:	42a5      	cmp	r5, r4
 8007246:	d109      	bne.n	800725c <__libc_init_array+0x24>
 8007248:	4e0b      	ldr	r6, [pc, #44]	; (8007278 <__libc_init_array+0x40>)
 800724a:	4c0c      	ldr	r4, [pc, #48]	; (800727c <__libc_init_array+0x44>)
 800724c:	f000 f83a 	bl	80072c4 <_init>
 8007250:	1ba4      	subs	r4, r4, r6
 8007252:	10a4      	asrs	r4, r4, #2
 8007254:	2500      	movs	r5, #0
 8007256:	42a5      	cmp	r5, r4
 8007258:	d105      	bne.n	8007266 <__libc_init_array+0x2e>
 800725a:	bd70      	pop	{r4, r5, r6, pc}
 800725c:	f856 3025 	ldr.w	r3, [r6, r5, lsl #2]
 8007260:	4798      	blx	r3
 8007262:	3501      	adds	r5, #1
 8007264:	e7ee      	b.n	8007244 <__libc_init_array+0xc>
 8007266:	f856 3025 	ldr.w	r3, [r6, r5, lsl #2]
 800726a:	4798      	blx	r3
 800726c:	3501      	adds	r5, #1
 800726e:	e7f2      	b.n	8007256 <__libc_init_array+0x1e>
 8007270:	08007440 	.word	0x08007440
 8007274:	08007440 	.word	0x08007440
 8007278:	08007440 	.word	0x08007440
 800727c:	08007444 	.word	0x08007444

08007280 <memcmp>:
 8007280:	b530      	push	{r4, r5, lr}
 8007282:	2400      	movs	r4, #0
 8007284:	42a2      	cmp	r2, r4
 8007286:	d101      	bne.n	800728c <memcmp+0xc>
 8007288:	2000      	movs	r0, #0
 800728a:	e007      	b.n	800729c <memcmp+0x1c>
 800728c:	5d03      	ldrb	r3, [r0, r4]
 800728e:	3401      	adds	r4, #1
 8007290:	190d      	adds	r5, r1, r4
 8007292:	f815 5c01 	ldrb.w	r5, [r5, #-1]
 8007296:	42ab      	cmp	r3, r5
 8007298:	d0f4      	beq.n	8007284 <memcmp+0x4>
 800729a:	1b58      	subs	r0, r3, r5
 800729c:	bd30      	pop	{r4, r5, pc}

0800729e <memcpy>:
 800729e:	b510      	push	{r4, lr}
 80072a0:	1e43      	subs	r3, r0, #1
 80072a2:	440a      	add	r2, r1
 80072a4:	4291      	cmp	r1, r2
 80072a6:	d100      	bne.n	80072aa <memcpy+0xc>
 80072a8:	bd10      	pop	{r4, pc}
 80072aa:	f811 4b01 	ldrb.w	r4, [r1], #1
 80072ae:	f803 4f01 	strb.w	r4, [r3, #1]!
 80072b2:	e7f7      	b.n	80072a4 <memcpy+0x6>

080072b4 <memset>:
 80072b4:	4402      	add	r2, r0
 80072b6:	4603      	mov	r3, r0
 80072b8:	4293      	cmp	r3, r2
 80072ba:	d100      	bne.n	80072be <memset+0xa>
 80072bc:	4770      	bx	lr
 80072be:	f803 1b01 	strb.w	r1, [r3], #1
 80072c2:	e7f9      	b.n	80072b8 <memset+0x4>

080072c4 <_init>:
 80072c4:	b5f8      	push	{r3, r4, r5, r6, r7, lr}
 80072c6:	bf00      	nop
 80072c8:	bcf8      	pop	{r3, r4, r5, r6, r7}
 80072ca:	bc08      	pop	{r3}
 80072cc:	469e      	mov	lr, r3
 80072ce:	4770      	bx	lr

080072d0 <_fini>:
 80072d0:	b5f8      	push	{r3, r4, r5, r6, r7, lr}
 80072d2:	bf00      	nop
 80072d4:	bcf8      	pop	{r3, r4, r5, r6, r7}
 80072d6:	bc08      	pop	{r3}
 80072d8:	469e      	mov	lr, r3
 80072da:	4770      	bx	lr
